In archive target/release/libraidpir.rlib:

raidpir-af98855fa7dd616c.raidpir.b7a4ri6o-cgu.0.rcgu.o:     file format elf64-x86-64


Disassembly of section .text._ZN4core3ptr13drop_in_place17h98c1674478c817f3E.llvm.12728593311079159136:

0000000000000000 <_ZN4core3ptr13drop_in_place17h98c1674478c817f3E.llvm.12728593311079159136>:
   0:	c3                   	retq   

Disassembly of section .text._ZN5alloc7raw_vec19RawVec$LT$T$C$A$GT$11allocate_in17h8939e6aa36458e1dE:

0000000000000000 <_ZN5alloc7raw_vec19RawVec$LT$T$C$A$GT$11allocate_in17h8939e6aa36458e1dE>:
   0:	53                   	push   %rbx
   1:	48 89 f8             	mov    %rdi,%rax
   4:	b9 10 00 00 00       	mov    $0x10,%ecx
   9:	48 f7 e1             	mul    %rcx
   c:	70 4c                	jo     5a <_ZN5alloc7raw_vec19RawVec$LT$T$C$A$GT$11allocate_in17h8939e6aa36458e1dE+0x5a>
   e:	48 89 c3             	mov    %rax,%rbx
  11:	40 84 f6             	test   %sil,%sil
  14:	74 15                	je     2b <_ZN5alloc7raw_vec19RawVec$LT$T$C$A$GT$11allocate_in17h8939e6aa36458e1dE+0x2b>
  16:	48 85 db             	test   %rbx,%rbx
  19:	74 31                	je     4c <_ZN5alloc7raw_vec19RawVec$LT$T$C$A$GT$11allocate_in17h8939e6aa36458e1dE+0x4c>
  1b:	be 08 00 00 00       	mov    $0x8,%esi
  20:	48 89 df             	mov    %rbx,%rdi
  23:	ff 15 00 00 00 00    	callq  *0x0(%rip)        # 29 <_ZN5alloc7raw_vec19RawVec$LT$T$C$A$GT$11allocate_in17h8939e6aa36458e1dE+0x29>
  29:	eb 13                	jmp    3e <_ZN5alloc7raw_vec19RawVec$LT$T$C$A$GT$11allocate_in17h8939e6aa36458e1dE+0x3e>
  2b:	48 85 db             	test   %rbx,%rbx
  2e:	74 1c                	je     4c <_ZN5alloc7raw_vec19RawVec$LT$T$C$A$GT$11allocate_in17h8939e6aa36458e1dE+0x4c>
  30:	be 08 00 00 00       	mov    $0x8,%esi
  35:	48 89 df             	mov    %rbx,%rdi
  38:	ff 15 00 00 00 00    	callq  *0x0(%rip)        # 3e <_ZN5alloc7raw_vec19RawVec$LT$T$C$A$GT$11allocate_in17h8939e6aa36458e1dE+0x3e>
  3e:	48 85 c0             	test   %rax,%rax
  41:	74 1f                	je     62 <_ZN5alloc7raw_vec19RawVec$LT$T$C$A$GT$11allocate_in17h8939e6aa36458e1dE+0x62>
  43:	48 c1 eb 04          	shr    $0x4,%rbx
  47:	48 89 da             	mov    %rbx,%rdx
  4a:	5b                   	pop    %rbx
  4b:	c3                   	retq   
  4c:	b8 08 00 00 00       	mov    $0x8,%eax
  51:	48 c1 eb 04          	shr    $0x4,%rbx
  55:	48 89 da             	mov    %rbx,%rdx
  58:	5b                   	pop    %rbx
  59:	c3                   	retq   
  5a:	ff 15 00 00 00 00    	callq  *0x0(%rip)        # 60 <_ZN5alloc7raw_vec19RawVec$LT$T$C$A$GT$11allocate_in17h8939e6aa36458e1dE+0x60>
  60:	0f 0b                	ud2    
  62:	be 08 00 00 00       	mov    $0x8,%esi
  67:	48 89 df             	mov    %rbx,%rdi
  6a:	ff 15 00 00 00 00    	callq  *0x0(%rip)        # 70 <_ZN5alloc7raw_vec19RawVec$LT$T$C$A$GT$11allocate_in17h8939e6aa36458e1dE+0x70>
  70:	0f 0b                	ud2    

Disassembly of section .text._ZN5alloc7raw_vec19RawVec$LT$T$C$A$GT$11allocate_in17hf600d1c50678d760E:

0000000000000000 <_ZN5alloc7raw_vec19RawVec$LT$T$C$A$GT$11allocate_in17hf600d1c50678d760E>:
   0:	53                   	push   %rbx
   1:	48 89 f8             	mov    %rdi,%rax
   4:	b9 08 00 00 00       	mov    $0x8,%ecx
   9:	48 f7 e1             	mul    %rcx
   c:	70 4c                	jo     5a <_ZN5alloc7raw_vec19RawVec$LT$T$C$A$GT$11allocate_in17hf600d1c50678d760E+0x5a>
   e:	48 89 c3             	mov    %rax,%rbx
  11:	40 84 f6             	test   %sil,%sil
  14:	74 15                	je     2b <_ZN5alloc7raw_vec19RawVec$LT$T$C$A$GT$11allocate_in17hf600d1c50678d760E+0x2b>
  16:	48 85 db             	test   %rbx,%rbx
  19:	74 31                	je     4c <_ZN5alloc7raw_vec19RawVec$LT$T$C$A$GT$11allocate_in17hf600d1c50678d760E+0x4c>
  1b:	be 08 00 00 00       	mov    $0x8,%esi
  20:	48 89 df             	mov    %rbx,%rdi
  23:	ff 15 00 00 00 00    	callq  *0x0(%rip)        # 29 <_ZN5alloc7raw_vec19RawVec$LT$T$C$A$GT$11allocate_in17hf600d1c50678d760E+0x29>
  29:	eb 13                	jmp    3e <_ZN5alloc7raw_vec19RawVec$LT$T$C$A$GT$11allocate_in17hf600d1c50678d760E+0x3e>
  2b:	48 85 db             	test   %rbx,%rbx
  2e:	74 1c                	je     4c <_ZN5alloc7raw_vec19RawVec$LT$T$C$A$GT$11allocate_in17hf600d1c50678d760E+0x4c>
  30:	be 08 00 00 00       	mov    $0x8,%esi
  35:	48 89 df             	mov    %rbx,%rdi
  38:	ff 15 00 00 00 00    	callq  *0x0(%rip)        # 3e <_ZN5alloc7raw_vec19RawVec$LT$T$C$A$GT$11allocate_in17hf600d1c50678d760E+0x3e>
  3e:	48 85 c0             	test   %rax,%rax
  41:	74 1f                	je     62 <_ZN5alloc7raw_vec19RawVec$LT$T$C$A$GT$11allocate_in17hf600d1c50678d760E+0x62>
  43:	48 c1 eb 03          	shr    $0x3,%rbx
  47:	48 89 da             	mov    %rbx,%rdx
  4a:	5b                   	pop    %rbx
  4b:	c3                   	retq   
  4c:	b8 08 00 00 00       	mov    $0x8,%eax
  51:	48 c1 eb 03          	shr    $0x3,%rbx
  55:	48 89 da             	mov    %rbx,%rdx
  58:	5b                   	pop    %rbx
  59:	c3                   	retq   
  5a:	ff 15 00 00 00 00    	callq  *0x0(%rip)        # 60 <_ZN5alloc7raw_vec19RawVec$LT$T$C$A$GT$11allocate_in17hf600d1c50678d760E+0x60>
  60:	0f 0b                	ud2    
  62:	be 08 00 00 00       	mov    $0x8,%esi
  67:	48 89 df             	mov    %rbx,%rdi
  6a:	ff 15 00 00 00 00    	callq  *0x0(%rip)        # 70 <_ZN5alloc7raw_vec19RawVec$LT$T$C$A$GT$11allocate_in17hf600d1c50678d760E+0x70>
  70:	0f 0b                	ud2    

Disassembly of section .text._ZN5alloc7raw_vec19RawVec$LT$T$C$A$GT$3ptr17h2b29aed56b49e49bE:

0000000000000000 <_ZN5alloc7raw_vec19RawVec$LT$T$C$A$GT$3ptr17h2b29aed56b49e49bE>:
   0:	48 8b 07             	mov    (%rdi),%rax
   3:	c3                   	retq   

Disassembly of section .text._ZN5alloc7raw_vec19RawVec$LT$T$C$A$GT$3ptr17h8819e960536f7239E:

0000000000000000 <_ZN5alloc7raw_vec19RawVec$LT$T$C$A$GT$3ptr17h8819e960536f7239E>:
   0:	48 8b 07             	mov    (%rdi),%rax
   3:	c3                   	retq   

Disassembly of section .text._ZN5alloc7raw_vec19RawVec$LT$T$C$A$GT$7reserve17h2920abab93aa0f72E:

0000000000000000 <_ZN5alloc7raw_vec19RawVec$LT$T$C$A$GT$7reserve17h2920abab93aa0f72E>:
   0:	41 57                	push   %r15
   2:	41 56                	push   %r14
   4:	53                   	push   %rbx
   5:	48 89 f1             	mov    %rsi,%rcx
   8:	48 8b 77 08          	mov    0x8(%rdi),%rsi
   c:	48 89 f0             	mov    %rsi,%rax
   f:	48 29 c8             	sub    %rcx,%rax
  12:	48 39 d0             	cmp    %rdx,%rax
  15:	0f 83 95 00 00 00    	jae    b0 <_ZN5alloc7raw_vec19RawVec$LT$T$C$A$GT$7reserve17h2920abab93aa0f72E+0xb0>
  1b:	48 01 d1             	add    %rdx,%rcx
  1e:	0f 82 92 00 00 00    	jb     b6 <_ZN5alloc7raw_vec19RawVec$LT$T$C$A$GT$7reserve17h2920abab93aa0f72E+0xb6>
  24:	48 8d 04 36          	lea    (%rsi,%rsi,1),%rax
  28:	48 39 c8             	cmp    %rcx,%rax
  2b:	48 0f 47 c8          	cmova  %rax,%rcx
  2f:	48 83 f9 04          	cmp    $0x4,%rcx
  33:	b8 04 00 00 00       	mov    $0x4,%eax
  38:	48 0f 47 c1          	cmova  %rcx,%rax
  3c:	b9 08 00 00 00       	mov    $0x8,%ecx
  41:	31 db                	xor    %ebx,%ebx
  43:	48 f7 e1             	mul    %rcx
  46:	49 89 c6             	mov    %rax,%r14
  49:	0f 91 c0             	setno  %al
  4c:	70 68                	jo     b6 <_ZN5alloc7raw_vec19RawVec$LT$T$C$A$GT$7reserve17h2920abab93aa0f72E+0xb6>
  4e:	49 89 ff             	mov    %rdi,%r15
  51:	88 c3                	mov    %al,%bl
  53:	48 89 f7             	mov    %rsi,%rdi
  56:	48 85 f6             	test   %rsi,%rsi
  59:	74 03                	je     5e <_ZN5alloc7raw_vec19RawVec$LT$T$C$A$GT$7reserve17h2920abab93aa0f72E+0x5e>
  5b:	49 8b 3f             	mov    (%r15),%rdi
  5e:	48 c1 e3 03          	shl    $0x3,%rbx
  62:	48 85 ff             	test   %rdi,%rdi
  65:	74 17                	je     7e <_ZN5alloc7raw_vec19RawVec$LT$T$C$A$GT$7reserve17h2920abab93aa0f72E+0x7e>
  67:	48 c1 e6 03          	shl    $0x3,%rsi
  6b:	48 85 f6             	test   %rsi,%rsi
  6e:	74 0e                	je     7e <_ZN5alloc7raw_vec19RawVec$LT$T$C$A$GT$7reserve17h2920abab93aa0f72E+0x7e>
  70:	48 89 da             	mov    %rbx,%rdx
  73:	4c 89 f1             	mov    %r14,%rcx
  76:	ff 15 00 00 00 00    	callq  *0x0(%rip)        # 7c <_ZN5alloc7raw_vec19RawVec$LT$T$C$A$GT$7reserve17h2920abab93aa0f72E+0x7c>
  7c:	eb 11                	jmp    8f <_ZN5alloc7raw_vec19RawVec$LT$T$C$A$GT$7reserve17h2920abab93aa0f72E+0x8f>
  7e:	4d 85 f6             	test   %r14,%r14
  81:	74 1f                	je     a2 <_ZN5alloc7raw_vec19RawVec$LT$T$C$A$GT$7reserve17h2920abab93aa0f72E+0xa2>
  83:	4c 89 f7             	mov    %r14,%rdi
  86:	48 89 de             	mov    %rbx,%rsi
  89:	ff 15 00 00 00 00    	callq  *0x0(%rip)        # 8f <_ZN5alloc7raw_vec19RawVec$LT$T$C$A$GT$7reserve17h2920abab93aa0f72E+0x8f>
  8f:	48 85 c0             	test   %rax,%rax
  92:	75 11                	jne    a5 <_ZN5alloc7raw_vec19RawVec$LT$T$C$A$GT$7reserve17h2920abab93aa0f72E+0xa5>
  94:	4c 89 f7             	mov    %r14,%rdi
  97:	48 89 de             	mov    %rbx,%rsi
  9a:	ff 15 00 00 00 00    	callq  *0x0(%rip)        # a0 <_ZN5alloc7raw_vec19RawVec$LT$T$C$A$GT$7reserve17h2920abab93aa0f72E+0xa0>
  a0:	0f 0b                	ud2    
  a2:	48 89 d8             	mov    %rbx,%rax
  a5:	49 89 07             	mov    %rax,(%r15)
  a8:	49 c1 ee 03          	shr    $0x3,%r14
  ac:	4d 89 77 08          	mov    %r14,0x8(%r15)
  b0:	5b                   	pop    %rbx
  b1:	41 5e                	pop    %r14
  b3:	41 5f                	pop    %r15
  b5:	c3                   	retq   
  b6:	ff 15 00 00 00 00    	callq  *0x0(%rip)        # bc <_ZN5alloc7raw_vec19RawVec$LT$T$C$A$GT$7reserve17h2920abab93aa0f72E+0xbc>
  bc:	0f 0b                	ud2    

Disassembly of section .text._ZN5alloc7raw_vec19RawVec$LT$T$C$A$GT$7reserve17hdc98fe83733a4c93E:

0000000000000000 <_ZN5alloc7raw_vec19RawVec$LT$T$C$A$GT$7reserve17hdc98fe83733a4c93E>:
   0:	41 57                	push   %r15
   2:	41 56                	push   %r14
   4:	53                   	push   %rbx
   5:	48 8b 4f 08          	mov    0x8(%rdi),%rcx
   9:	48 89 c8             	mov    %rcx,%rax
   c:	48 29 f0             	sub    %rsi,%rax
   f:	48 39 d0             	cmp    %rdx,%rax
  12:	0f 83 a9 00 00 00    	jae    c1 <_ZN5alloc7raw_vec19RawVec$LT$T$C$A$GT$7reserve17hdc98fe83733a4c93E+0xc1>
  18:	48 01 d6             	add    %rdx,%rsi
  1b:	0f 82 a6 00 00 00    	jb     c7 <_ZN5alloc7raw_vec19RawVec$LT$T$C$A$GT$7reserve17hdc98fe83733a4c93E+0xc7>
  21:	48 8d 04 09          	lea    (%rcx,%rcx,1),%rax
  25:	48 39 f0             	cmp    %rsi,%rax
  28:	48 0f 47 f0          	cmova  %rax,%rsi
  2c:	48 83 fe 04          	cmp    $0x4,%rsi
  30:	b8 04 00 00 00       	mov    $0x4,%eax
  35:	48 0f 47 c6          	cmova  %rsi,%rax
  39:	ba 18 00 00 00       	mov    $0x18,%edx
  3e:	31 db                	xor    %ebx,%ebx
  40:	48 f7 e2             	mul    %rdx
  43:	49 89 c6             	mov    %rax,%r14
  46:	0f 91 c0             	setno  %al
  49:	70 7c                	jo     c7 <_ZN5alloc7raw_vec19RawVec$LT$T$C$A$GT$7reserve17hdc98fe83733a4c93E+0xc7>
  4b:	49 89 ff             	mov    %rdi,%r15
  4e:	88 c3                	mov    %al,%bl
  50:	48 89 cf             	mov    %rcx,%rdi
  53:	48 85 c9             	test   %rcx,%rcx
  56:	74 03                	je     5b <_ZN5alloc7raw_vec19RawVec$LT$T$C$A$GT$7reserve17hdc98fe83733a4c93E+0x5b>
  58:	49 8b 3f             	mov    (%r15),%rdi
  5b:	48 c1 e3 03          	shl    $0x3,%rbx
  5f:	48 85 ff             	test   %rdi,%rdi
  62:	74 1b                	je     7f <_ZN5alloc7raw_vec19RawVec$LT$T$C$A$GT$7reserve17hdc98fe83733a4c93E+0x7f>
  64:	48 c1 e1 03          	shl    $0x3,%rcx
  68:	48 8d 34 49          	lea    (%rcx,%rcx,2),%rsi
  6c:	48 85 f6             	test   %rsi,%rsi
  6f:	74 0e                	je     7f <_ZN5alloc7raw_vec19RawVec$LT$T$C$A$GT$7reserve17hdc98fe83733a4c93E+0x7f>
  71:	48 89 da             	mov    %rbx,%rdx
  74:	4c 89 f1             	mov    %r14,%rcx
  77:	ff 15 00 00 00 00    	callq  *0x0(%rip)        # 7d <_ZN5alloc7raw_vec19RawVec$LT$T$C$A$GT$7reserve17hdc98fe83733a4c93E+0x7d>
  7d:	eb 11                	jmp    90 <_ZN5alloc7raw_vec19RawVec$LT$T$C$A$GT$7reserve17hdc98fe83733a4c93E+0x90>
  7f:	4d 85 f6             	test   %r14,%r14
  82:	74 1f                	je     a3 <_ZN5alloc7raw_vec19RawVec$LT$T$C$A$GT$7reserve17hdc98fe83733a4c93E+0xa3>
  84:	4c 89 f7             	mov    %r14,%rdi
  87:	48 89 de             	mov    %rbx,%rsi
  8a:	ff 15 00 00 00 00    	callq  *0x0(%rip)        # 90 <_ZN5alloc7raw_vec19RawVec$LT$T$C$A$GT$7reserve17hdc98fe83733a4c93E+0x90>
  90:	48 85 c0             	test   %rax,%rax
  93:	75 11                	jne    a6 <_ZN5alloc7raw_vec19RawVec$LT$T$C$A$GT$7reserve17hdc98fe83733a4c93E+0xa6>
  95:	4c 89 f7             	mov    %r14,%rdi
  98:	48 89 de             	mov    %rbx,%rsi
  9b:	ff 15 00 00 00 00    	callq  *0x0(%rip)        # a1 <_ZN5alloc7raw_vec19RawVec$LT$T$C$A$GT$7reserve17hdc98fe83733a4c93E+0xa1>
  a1:	0f 0b                	ud2    
  a3:	48 89 d8             	mov    %rbx,%rax
  a6:	49 89 07             	mov    %rax,(%r15)
  a9:	48 b9 ab aa aa aa aa 	movabs $0xaaaaaaaaaaaaaaab,%rcx
  b0:	aa aa aa 
  b3:	4c 89 f0             	mov    %r14,%rax
  b6:	48 f7 e1             	mul    %rcx
  b9:	48 c1 ea 04          	shr    $0x4,%rdx
  bd:	49 89 57 08          	mov    %rdx,0x8(%r15)
  c1:	5b                   	pop    %rbx
  c2:	41 5e                	pop    %r14
  c4:	41 5f                	pop    %r15
  c6:	c3                   	retq   
  c7:	ff 15 00 00 00 00    	callq  *0x0(%rip)        # cd <_ZN5alloc7raw_vec19RawVec$LT$T$C$A$GT$7reserve17hdc98fe83733a4c93E+0xcd>
  cd:	0f 0b                	ud2    

Disassembly of section .text._ZN77_$LT$alloc..raw_vec..RawVec$LT$T$C$A$GT$$u20$as$u20$core..ops..drop..Drop$GT$4drop17h017ac15f06b6d20fE:

0000000000000000 <_ZN77_$LT$alloc..raw_vec..RawVec$LT$T$C$A$GT$$u20$as$u20$core..ops..drop..Drop$GT$4drop17h017ac15f06b6d20fE>:
   0:	48 8b 77 08          	mov    0x8(%rdi),%rsi
   4:	48 85 f6             	test   %rsi,%rsi
   7:	74 14                	je     1d <_ZN77_$LT$alloc..raw_vec..RawVec$LT$T$C$A$GT$$u20$as$u20$core..ops..drop..Drop$GT$4drop17h017ac15f06b6d20fE+0x1d>
   9:	48 c1 e6 07          	shl    $0x7,%rsi
   d:	74 0e                	je     1d <_ZN77_$LT$alloc..raw_vec..RawVec$LT$T$C$A$GT$$u20$as$u20$core..ops..drop..Drop$GT$4drop17h017ac15f06b6d20fE+0x1d>
   f:	48 8b 3f             	mov    (%rdi),%rdi
  12:	ba 80 00 00 00       	mov    $0x80,%edx
  17:	ff 25 00 00 00 00    	jmpq   *0x0(%rip)        # 1d <_ZN77_$LT$alloc..raw_vec..RawVec$LT$T$C$A$GT$$u20$as$u20$core..ops..drop..Drop$GT$4drop17h017ac15f06b6d20fE+0x1d>
  1d:	c3                   	retq   

Disassembly of section .text._ZN77_$LT$alloc..raw_vec..RawVec$LT$T$C$A$GT$$u20$as$u20$core..ops..drop..Drop$GT$4drop17h1530e3eb369e020eE:

0000000000000000 <_ZN77_$LT$alloc..raw_vec..RawVec$LT$T$C$A$GT$$u20$as$u20$core..ops..drop..Drop$GT$4drop17h1530e3eb369e020eE>:
   0:	48 8b 77 08          	mov    0x8(%rdi),%rsi
   4:	48 85 f6             	test   %rsi,%rsi
   7:	74 17                	je     20 <_ZN77_$LT$alloc..raw_vec..RawVec$LT$T$C$A$GT$$u20$as$u20$core..ops..drop..Drop$GT$4drop17h1530e3eb369e020eE+0x20>
   9:	48 c1 e6 03          	shl    $0x3,%rsi
   d:	48 85 f6             	test   %rsi,%rsi
  10:	74 0e                	je     20 <_ZN77_$LT$alloc..raw_vec..RawVec$LT$T$C$A$GT$$u20$as$u20$core..ops..drop..Drop$GT$4drop17h1530e3eb369e020eE+0x20>
  12:	48 8b 3f             	mov    (%rdi),%rdi
  15:	ba 08 00 00 00       	mov    $0x8,%edx
  1a:	ff 25 00 00 00 00    	jmpq   *0x0(%rip)        # 20 <_ZN77_$LT$alloc..raw_vec..RawVec$LT$T$C$A$GT$$u20$as$u20$core..ops..drop..Drop$GT$4drop17h1530e3eb369e020eE+0x20>
  20:	c3                   	retq   

Disassembly of section .text._ZN77_$LT$alloc..raw_vec..RawVec$LT$T$C$A$GT$$u20$as$u20$core..ops..drop..Drop$GT$4drop17h2172a55f95777285E:

0000000000000000 <_ZN77_$LT$alloc..raw_vec..RawVec$LT$T$C$A$GT$$u20$as$u20$core..ops..drop..Drop$GT$4drop17h2172a55f95777285E>:
   0:	48 8b 47 08          	mov    0x8(%rdi),%rax
   4:	48 85 c0             	test   %rax,%rax
   7:	74 1b                	je     24 <_ZN77_$LT$alloc..raw_vec..RawVec$LT$T$C$A$GT$$u20$as$u20$core..ops..drop..Drop$GT$4drop17h2172a55f95777285E+0x24>
   9:	48 c1 e0 03          	shl    $0x3,%rax
   d:	48 8d 34 40          	lea    (%rax,%rax,2),%rsi
  11:	48 85 f6             	test   %rsi,%rsi
  14:	74 0e                	je     24 <_ZN77_$LT$alloc..raw_vec..RawVec$LT$T$C$A$GT$$u20$as$u20$core..ops..drop..Drop$GT$4drop17h2172a55f95777285E+0x24>
  16:	48 8b 3f             	mov    (%rdi),%rdi
  19:	ba 08 00 00 00       	mov    $0x8,%edx
  1e:	ff 25 00 00 00 00    	jmpq   *0x0(%rip)        # 24 <_ZN77_$LT$alloc..raw_vec..RawVec$LT$T$C$A$GT$$u20$as$u20$core..ops..drop..Drop$GT$4drop17h2172a55f95777285E+0x24>
  24:	c3                   	retq   

Disassembly of section .text._ZN77_$LT$alloc..raw_vec..RawVec$LT$T$C$A$GT$$u20$as$u20$core..ops..drop..Drop$GT$4drop17h46bdb8159bf5f70dE:

0000000000000000 <_ZN77_$LT$alloc..raw_vec..RawVec$LT$T$C$A$GT$$u20$as$u20$core..ops..drop..Drop$GT$4drop17h46bdb8159bf5f70dE>:
   0:	48 8b 77 08          	mov    0x8(%rdi),%rsi
   4:	48 85 f6             	test   %rsi,%rsi
   7:	74 14                	je     1d <_ZN77_$LT$alloc..raw_vec..RawVec$LT$T$C$A$GT$$u20$as$u20$core..ops..drop..Drop$GT$4drop17h46bdb8159bf5f70dE+0x1d>
   9:	48 c1 e6 04          	shl    $0x4,%rsi
   d:	74 0e                	je     1d <_ZN77_$LT$alloc..raw_vec..RawVec$LT$T$C$A$GT$$u20$as$u20$core..ops..drop..Drop$GT$4drop17h46bdb8159bf5f70dE+0x1d>
   f:	48 8b 3f             	mov    (%rdi),%rdi
  12:	ba 08 00 00 00       	mov    $0x8,%edx
  17:	ff 25 00 00 00 00    	jmpq   *0x0(%rip)        # 1d <_ZN77_$LT$alloc..raw_vec..RawVec$LT$T$C$A$GT$$u20$as$u20$core..ops..drop..Drop$GT$4drop17h46bdb8159bf5f70dE+0x1d>
  1d:	c3                   	retq   

Disassembly of section .text._ZN77_$LT$alloc..raw_vec..RawVec$LT$T$C$A$GT$$u20$as$u20$core..ops..drop..Drop$GT$4drop17ha0a69fc602af83a6E:

0000000000000000 <_ZN77_$LT$alloc..raw_vec..RawVec$LT$T$C$A$GT$$u20$as$u20$core..ops..drop..Drop$GT$4drop17ha0a69fc602af83a6E>:
   0:	48 8b 47 08          	mov    0x8(%rdi),%rax
   4:	48 85 c0             	test   %rax,%rax
   7:	74 1b                	je     24 <_ZN77_$LT$alloc..raw_vec..RawVec$LT$T$C$A$GT$$u20$as$u20$core..ops..drop..Drop$GT$4drop17ha0a69fc602af83a6E+0x24>
   9:	48 c1 e0 05          	shl    $0x5,%rax
   d:	48 8d 34 40          	lea    (%rax,%rax,2),%rsi
  11:	48 85 f6             	test   %rsi,%rsi
  14:	74 0e                	je     24 <_ZN77_$LT$alloc..raw_vec..RawVec$LT$T$C$A$GT$$u20$as$u20$core..ops..drop..Drop$GT$4drop17ha0a69fc602af83a6E+0x24>
  16:	48 8b 3f             	mov    (%rdi),%rdi
  19:	ba 08 00 00 00       	mov    $0x8,%edx
  1e:	ff 25 00 00 00 00    	jmpq   *0x0(%rip)        # 24 <_ZN77_$LT$alloc..raw_vec..RawVec$LT$T$C$A$GT$$u20$as$u20$core..ops..drop..Drop$GT$4drop17ha0a69fc602af83a6E+0x24>
  24:	c3                   	retq   

raidpir-af98855fa7dd616c.raidpir.b7a4ri6o-cgu.1.rcgu.o:     file format elf64-x86-64


Disassembly of section .text._ZN15crossbeam_deque5deque15Buffer$LT$T$GT$7dealloc17h01a91e207739c484E:

0000000000000000 <_ZN15crossbeam_deque5deque15Buffer$LT$T$GT$7dealloc17h01a91e207739c484E>:
   0:	48 85 f6             	test   %rsi,%rsi
   3:	74 11                	je     16 <_ZN15crossbeam_deque5deque15Buffer$LT$T$GT$7dealloc17h01a91e207739c484E+0x16>
   5:	48 c1 e6 04          	shl    $0x4,%rsi
   9:	74 0b                	je     16 <_ZN15crossbeam_deque5deque15Buffer$LT$T$GT$7dealloc17h01a91e207739c484E+0x16>
   b:	ba 08 00 00 00       	mov    $0x8,%edx
  10:	ff 25 00 00 00 00    	jmpq   *0x0(%rip)        # 16 <_ZN15crossbeam_deque5deque15Buffer$LT$T$GT$7dealloc17h01a91e207739c484E+0x16>
  16:	c3                   	retq   

Disassembly of section .text._ZN15crossbeam_deque5deque15Worker$LT$T$GT$3pop17h32d43303a5f0d03bE:

0000000000000000 <_ZN15crossbeam_deque5deque15Worker$LT$T$GT$3pop17h32d43303a5f0d03bE>:
   0:	41 56                	push   %r14
   2:	53                   	push   %rbx
   3:	50                   	push   %rax
   4:	48 8b 17             	mov    (%rdi),%rdx
   7:	48 8b 8a 08 01 00 00 	mov    0x108(%rdx),%rcx
   e:	48 8b b2 00 01 00 00 	mov    0x100(%rdx),%rsi
  15:	48 89 c8             	mov    %rcx,%rax
  18:	48 29 f0             	sub    %rsi,%rax
  1b:	48 85 c0             	test   %rax,%rax
  1e:	0f 8e d7 00 00 00    	jle    fb <_ZN15crossbeam_deque5deque15Worker$LT$T$GT$3pop17h32d43303a5f0d03bE+0xfb>
  24:	80 7f 18 01          	cmpb   $0x1,0x18(%rdi)
  28:	75 65                	jne    8f <_ZN15crossbeam_deque5deque15Worker$LT$T$GT$3pop17h32d43303a5f0d03bE+0x8f>
  2a:	48 8d 59 ff          	lea    -0x1(%rcx),%rbx
  2e:	48 89 9a 08 01 00 00 	mov    %rbx,0x108(%rdx)
  35:	0f ae f0             	mfence 
  38:	4c 8b 07             	mov    (%rdi),%r8
  3b:	49 8b 80 00 01 00 00 	mov    0x100(%r8),%rax
  42:	49 89 da             	mov    %rbx,%r10
  45:	49 29 c2             	sub    %rax,%r10
  48:	0f 88 9a 00 00 00    	js     e8 <_ZN15crossbeam_deque5deque15Worker$LT$T$GT$3pop17h32d43303a5f0d03bE+0xe8>
  4e:	4c 8b 4f 08          	mov    0x8(%rdi),%r9
  52:	48 8b 77 10          	mov    0x10(%rdi),%rsi
  56:	48 8d 56 ff          	lea    -0x1(%rsi),%rdx
  5a:	48 21 da             	and    %rbx,%rdx
  5d:	48 c1 e2 04          	shl    $0x4,%rdx
  61:	4d 8b 34 11          	mov    (%r9,%rdx,1),%r14
  65:	49 8b 5c 11 08       	mov    0x8(%r9,%rdx,1),%rbx
  6a:	4d 85 d2             	test   %r10,%r10
  6d:	0f 84 98 00 00 00    	je     10b <_ZN15crossbeam_deque5deque15Worker$LT$T$GT$3pop17h32d43303a5f0d03bE+0x10b>
  73:	48 8d 46 03          	lea    0x3(%rsi),%rax
  77:	48 85 f6             	test   %rsi,%rsi
  7a:	48 0f 49 c6          	cmovns %rsi,%rax
  7e:	48 83 fe 41          	cmp    $0x41,%rsi
  82:	72 79                	jb     fd <_ZN15crossbeam_deque5deque15Worker$LT$T$GT$3pop17h32d43303a5f0d03bE+0xfd>
  84:	48 c1 f8 02          	sar    $0x2,%rax
  88:	49 39 c2             	cmp    %rax,%r10
  8b:	7d 70                	jge    fd <_ZN15crossbeam_deque5deque15Worker$LT$T$GT$3pop17h32d43303a5f0d03bE+0xfd>
  8d:	eb 4f                	jmp    de <_ZN15crossbeam_deque5deque15Worker$LT$T$GT$3pop17h32d43303a5f0d03bE+0xde>
  8f:	bb 01 00 00 00       	mov    $0x1,%ebx
  94:	f0 48 0f c1 9a 00 01 	lock xadd %rbx,0x100(%rdx)
  9b:	00 00 
  9d:	48 89 da             	mov    %rbx,%rdx
  a0:	48 f7 d2             	not    %rdx
  a3:	48 01 d1             	add    %rdx,%rcx
  a6:	78 49                	js     f1 <_ZN15crossbeam_deque5deque15Worker$LT$T$GT$3pop17h32d43303a5f0d03bE+0xf1>
  a8:	48 8b 4f 08          	mov    0x8(%rdi),%rcx
  ac:	48 8b 77 10          	mov    0x10(%rdi),%rsi
  b0:	48 8d 56 ff          	lea    -0x1(%rsi),%rdx
  b4:	48 21 da             	and    %rbx,%rdx
  b7:	48 c1 e2 04          	shl    $0x4,%rdx
  bb:	4c 8b 34 11          	mov    (%rcx,%rdx,1),%r14
  bf:	48 8b 5c 11 08       	mov    0x8(%rcx,%rdx,1),%rbx
  c4:	48 8d 4e 03          	lea    0x3(%rsi),%rcx
  c8:	48 85 f6             	test   %rsi,%rsi
  cb:	48 0f 49 ce          	cmovns %rsi,%rcx
  cf:	48 83 fe 41          	cmp    $0x41,%rsi
  d3:	72 28                	jb     fd <_ZN15crossbeam_deque5deque15Worker$LT$T$GT$3pop17h32d43303a5f0d03bE+0xfd>
  d5:	48 c1 f9 02          	sar    $0x2,%rcx
  d9:	48 39 c8             	cmp    %rcx,%rax
  dc:	7f 1f                	jg     fd <_ZN15crossbeam_deque5deque15Worker$LT$T$GT$3pop17h32d43303a5f0d03bE+0xfd>
  de:	48 d1 ee             	shr    %rsi
  e1:	e8 00 00 00 00       	callq  e6 <_ZN15crossbeam_deque5deque15Worker$LT$T$GT$3pop17h32d43303a5f0d03bE+0xe6>
  e6:	eb 15                	jmp    fd <_ZN15crossbeam_deque5deque15Worker$LT$T$GT$3pop17h32d43303a5f0d03bE+0xfd>
  e8:	49 89 88 08 01 00 00 	mov    %rcx,0x108(%r8)
  ef:	eb 0a                	jmp    fb <_ZN15crossbeam_deque5deque15Worker$LT$T$GT$3pop17h32d43303a5f0d03bE+0xfb>
  f1:	48 8b 07             	mov    (%rdi),%rax
  f4:	48 89 98 00 01 00 00 	mov    %rbx,0x100(%rax)
  fb:	31 db                	xor    %ebx,%ebx
  fd:	4c 89 f0             	mov    %r14,%rax
 100:	48 89 da             	mov    %rbx,%rdx
 103:	48 83 c4 08          	add    $0x8,%rsp
 107:	5b                   	pop    %rbx
 108:	41 5e                	pop    %r14
 10a:	c3                   	retq   
 10b:	48 8d 50 01          	lea    0x1(%rax),%rdx
 10f:	31 f6                	xor    %esi,%esi
 111:	f0 49 0f b1 90 00 01 	lock cmpxchg %rdx,0x100(%r8)
 118:	00 00 
 11a:	48 8b 07             	mov    (%rdi),%rax
 11d:	48 0f 45 de          	cmovne %rsi,%rbx
 121:	48 89 88 08 01 00 00 	mov    %rcx,0x108(%rax)
 128:	eb d3                	jmp    fd <_ZN15crossbeam_deque5deque15Worker$LT$T$GT$3pop17h32d43303a5f0d03bE+0xfd>

Disassembly of section .text._ZN15crossbeam_deque5deque15Worker$LT$T$GT$4push17h3f11d6e36115e1c5E:

0000000000000000 <_ZN15crossbeam_deque5deque15Worker$LT$T$GT$4push17h3f11d6e36115e1c5E>:
   0:	41 57                	push   %r15
   2:	41 56                	push   %r14
   4:	41 54                	push   %r12
   6:	53                   	push   %rbx
   7:	50                   	push   %rax
   8:	49 89 d6             	mov    %rdx,%r14
   b:	49 89 f7             	mov    %rsi,%r15
   e:	49 89 fc             	mov    %rdi,%r12
  11:	48 8b 07             	mov    (%rdi),%rax
  14:	48 8b 98 08 01 00 00 	mov    0x108(%rax),%rbx
  1b:	48 8b 80 00 01 00 00 	mov    0x100(%rax),%rax
  22:	48 8b 77 10          	mov    0x10(%rdi),%rsi
  26:	48 89 d9             	mov    %rbx,%rcx
  29:	48 29 c1             	sub    %rax,%rcx
  2c:	48 39 f1             	cmp    %rsi,%rcx
  2f:	7d 34                	jge    65 <_ZN15crossbeam_deque5deque15Worker$LT$T$GT$4push17h3f11d6e36115e1c5E+0x65>
  31:	49 8b 44 24 08       	mov    0x8(%r12),%rax
  36:	48 83 c6 ff          	add    $0xffffffffffffffff,%rsi
  3a:	48 21 de             	and    %rbx,%rsi
  3d:	48 c1 e6 04          	shl    $0x4,%rsi
  41:	4c 89 3c 30          	mov    %r15,(%rax,%rsi,1)
  45:	4c 89 74 30 08       	mov    %r14,0x8(%rax,%rsi,1)
  4a:	49 8b 04 24          	mov    (%r12),%rax
  4e:	48 83 c3 01          	add    $0x1,%rbx
  52:	48 89 98 08 01 00 00 	mov    %rbx,0x108(%rax)
  59:	48 83 c4 08          	add    $0x8,%rsp
  5d:	5b                   	pop    %rbx
  5e:	41 5c                	pop    %r12
  60:	41 5e                	pop    %r14
  62:	41 5f                	pop    %r15
  64:	c3                   	retq   
  65:	48 01 f6             	add    %rsi,%rsi
  68:	4c 89 e7             	mov    %r12,%rdi
  6b:	e8 00 00 00 00       	callq  70 <_ZN15crossbeam_deque5deque15Worker$LT$T$GT$4push17h3f11d6e36115e1c5E+0x70>
  70:	49 8b 74 24 10       	mov    0x10(%r12),%rsi
  75:	eb ba                	jmp    31 <_ZN15crossbeam_deque5deque15Worker$LT$T$GT$4push17h3f11d6e36115e1c5E+0x31>

Disassembly of section .text._ZN15crossbeam_deque5deque15Worker$LT$T$GT$6resize17h3f8f0b97afca55fcE.llvm.720062800653213169:

0000000000000000 <_ZN15crossbeam_deque5deque15Worker$LT$T$GT$6resize17h3f8f0b97afca55fcE.llvm.720062800653213169>:
   0:	55                   	push   %rbp
   1:	41 57                	push   %r15
   3:	41 56                	push   %r14
   5:	41 55                	push   %r13
   7:	41 54                	push   %r12
   9:	53                   	push   %rbx
   a:	48 83 ec 38          	sub    $0x38,%rsp
   e:	48 8b 07             	mov    (%rdi),%rax
  11:	48 8b 98 08 01 00 00 	mov    0x108(%rax),%rbx
  18:	48 8b a8 00 01 00 00 	mov    0x100(%rax),%rbp
  1f:	b9 10 00 00 00       	mov    $0x10,%ecx
  24:	48 89 74 24 08       	mov    %rsi,0x8(%rsp)
  29:	48 89 f0             	mov    %rsi,%rax
  2c:	48 f7 e1             	mul    %rcx
  2f:	0f 80 38 03 00 00    	jo     36d <_ZN15crossbeam_deque5deque15Worker$LT$T$GT$6resize17h3f8f0b97afca55fcE.llvm.720062800653213169+0x36d>
  35:	49 89 c4             	mov    %rax,%r12
  38:	4c 8b 77 08          	mov    0x8(%rdi),%r14
  3c:	48 89 7c 24 30       	mov    %rdi,0x30(%rsp)
  41:	4c 8b 7f 10          	mov    0x10(%rdi),%r15
  45:	48 85 c0             	test   %rax,%rax
  48:	74 29                	je     73 <_ZN15crossbeam_deque5deque15Worker$LT$T$GT$6resize17h3f8f0b97afca55fcE.llvm.720062800653213169+0x73>
  4a:	be 08 00 00 00       	mov    $0x8,%esi
  4f:	4c 89 e7             	mov    %r12,%rdi
  52:	ff 15 00 00 00 00    	callq  *0x0(%rip)        # 58 <_ZN15crossbeam_deque5deque15Worker$LT$T$GT$6resize17h3f8f0b97afca55fcE.llvm.720062800653213169+0x58>
  58:	49 89 c5             	mov    %rax,%r13
  5b:	48 85 c0             	test   %rax,%rax
  5e:	0f 84 23 03 00 00    	je     387 <_ZN15crossbeam_deque5deque15Worker$LT$T$GT$6resize17h3f8f0b97afca55fcE.llvm.720062800653213169+0x387>
  64:	48 39 eb             	cmp    %rbp,%rbx
  67:	4c 8b 64 24 08       	mov    0x8(%rsp),%r12
  6c:	75 19                	jne    87 <_ZN15crossbeam_deque5deque15Worker$LT$T$GT$6resize17h3f8f0b97afca55fcE.llvm.720062800653213169+0x87>
  6e:	e9 a9 00 00 00       	jmpq   11c <_ZN15crossbeam_deque5deque15Worker$LT$T$GT$6resize17h3f8f0b97afca55fcE.llvm.720062800653213169+0x11c>
  73:	41 bd 08 00 00 00    	mov    $0x8,%r13d
  79:	48 39 eb             	cmp    %rbp,%rbx
  7c:	4c 8b 64 24 08       	mov    0x8(%rsp),%r12
  81:	0f 84 95 00 00 00    	je     11c <_ZN15crossbeam_deque5deque15Worker$LT$T$GT$6resize17h3f8f0b97afca55fcE.llvm.720062800653213169+0x11c>
  87:	49 83 c7 ff          	add    $0xffffffffffffffff,%r15
  8b:	49 8d 44 24 ff       	lea    -0x1(%r12),%rax
  90:	89 da                	mov    %ebx,%edx
  92:	29 ea                	sub    %ebp,%edx
  94:	48 8d 4d 01          	lea    0x1(%rbp),%rcx
  98:	f6 c2 01             	test   $0x1,%dl
  9b:	74 21                	je     be <_ZN15crossbeam_deque5deque15Worker$LT$T$GT$6resize17h3f8f0b97afca55fcE.llvm.720062800653213169+0xbe>
  9d:	48 89 ea             	mov    %rbp,%rdx
  a0:	4c 21 fa             	and    %r15,%rdx
  a3:	48 c1 e2 04          	shl    $0x4,%rdx
  a7:	48 21 c5             	and    %rax,%rbp
  aa:	48 c1 e5 04          	shl    $0x4,%rbp
  ae:	c4 c1 78 10 04 16    	vmovups (%r14,%rdx,1),%xmm0
  b4:	c4 c1 78 11 44 2d 00 	vmovups %xmm0,0x0(%r13,%rbp,1)
  bb:	48 89 cd             	mov    %rcx,%rbp
  be:	48 39 cb             	cmp    %rcx,%rbx
  c1:	0f 84 55 00 00 00    	je     11c <_ZN15crossbeam_deque5deque15Worker$LT$T$GT$6resize17h3f8f0b97afca55fcE.llvm.720062800653213169+0x11c>
  c7:	66 0f 1f 84 00 00 00 	nopw   0x0(%rax,%rax,1)
  ce:	00 00 
  d0:	48 89 e9             	mov    %rbp,%rcx
  d3:	4c 21 f9             	and    %r15,%rcx
  d6:	48 c1 e1 04          	shl    $0x4,%rcx
  da:	48 89 ea             	mov    %rbp,%rdx
  dd:	48 21 c2             	and    %rax,%rdx
  e0:	48 c1 e2 04          	shl    $0x4,%rdx
  e4:	c4 c1 78 10 04 0e    	vmovups (%r14,%rcx,1),%xmm0
  ea:	c4 c1 78 11 44 15 00 	vmovups %xmm0,0x0(%r13,%rdx,1)
  f1:	48 8d 4d 01          	lea    0x1(%rbp),%rcx
  f5:	48 89 ca             	mov    %rcx,%rdx
  f8:	4c 21 fa             	and    %r15,%rdx
  fb:	48 c1 e2 04          	shl    $0x4,%rdx
  ff:	48 21 c1             	and    %rax,%rcx
 102:	48 c1 e1 04          	shl    $0x4,%rcx
 106:	c4 c1 78 10 04 16    	vmovups (%r14,%rdx,1),%xmm0
 10c:	c4 c1 78 11 44 0d 00 	vmovups %xmm0,0x0(%r13,%rcx,1)
 113:	48 83 c5 02          	add    $0x2,%rbp
 117:	48 39 dd             	cmp    %rbx,%rbp
 11a:	75 b4                	jne    d0 <_ZN15crossbeam_deque5deque15Worker$LT$T$GT$6resize17h3f8f0b97afca55fcE.llvm.720062800653213169+0xd0>
 11c:	ff 15 00 00 00 00    	callq  *0x0(%rip)        # 122 <_ZN15crossbeam_deque5deque15Worker$LT$T$GT$6resize17h3f8f0b97afca55fcE.llvm.720062800653213169+0x122>
 122:	48 85 c0             	test   %rax,%rax
 125:	74 71                	je     198 <_ZN15crossbeam_deque5deque15Worker$LT$T$GT$6resize17h3f8f0b97afca55fcE.llvm.720062800653213169+0x198>
 127:	48 8b 08             	mov    (%rax),%rcx
 12a:	48 89 4c 24 10       	mov    %rcx,0x10(%rsp)
 12f:	48 8b 81 e0 07 00 00 	mov    0x7e0(%rcx),%rax
 136:	48 89 c2             	mov    %rax,%rdx
 139:	48 ff c2             	inc    %rdx
 13c:	0f 84 55 02 00 00    	je     397 <_ZN15crossbeam_deque5deque15Worker$LT$T$GT$6resize17h3f8f0b97afca55fcE.llvm.720062800653213169+0x397>
 142:	48 89 91 e0 07 00 00 	mov    %rdx,0x7e0(%rcx)
 149:	48 85 c0             	test   %rax,%rax
 14c:	75 40                	jne    18e <_ZN15crossbeam_deque5deque15Worker$LT$T$GT$6resize17h3f8f0b97afca55fcE.llvm.720062800653213169+0x18e>
 14e:	48 8b 41 10          	mov    0x10(%rcx),%rax
 152:	48 8b 90 80 01 00 00 	mov    0x180(%rax),%rdx
 159:	48 83 ca 01          	or     $0x1,%rdx
 15d:	31 c0                	xor    %eax,%eax
 15f:	f0 48 0f b1 51 08    	lock cmpxchg %rdx,0x8(%rcx)
 165:	48 8b 81 f0 07 00 00 	mov    0x7f0(%rcx),%rax
 16c:	48 8d 50 01          	lea    0x1(%rax),%rdx
 170:	48 89 91 f0 07 00 00 	mov    %rdx,0x7f0(%rcx)
 177:	a8 7f                	test   $0x7f,%al
 179:	75 13                	jne    18e <_ZN15crossbeam_deque5deque15Worker$LT$T$GT$6resize17h3f8f0b97afca55fcE.llvm.720062800653213169+0x18e>
 17b:	48 8b 79 10          	mov    0x10(%rcx),%rdi
 17f:	48 83 ef 80          	sub    $0xffffffffffffff80,%rdi
 183:	48 8d 74 24 10       	lea    0x10(%rsp),%rsi
 188:	ff 15 00 00 00 00    	callq  *0x0(%rip)        # 18e <_ZN15crossbeam_deque5deque15Worker$LT$T$GT$6resize17h3f8f0b97afca55fcE.llvm.720062800653213169+0x18e>
 18e:	48 8b 5c 24 10       	mov    0x10(%rsp),%rbx
 193:	e9 ba 00 00 00       	jmpq   252 <_ZN15crossbeam_deque5deque15Worker$LT$T$GT$6resize17h3f8f0b97afca55fcE.llvm.720062800653213169+0x252>
 198:	48 8b 3d 00 00 00 00 	mov    0x0(%rip),%rdi        # 19f <_ZN15crossbeam_deque5deque15Worker$LT$T$GT$6resize17h3f8f0b97afca55fcE.llvm.720062800653213169+0x19f>
 19f:	ff 15 00 00 00 00    	callq  *0x0(%rip)        # 1a5 <_ZN15crossbeam_deque5deque15Worker$LT$T$GT$6resize17h3f8f0b97afca55fcE.llvm.720062800653213169+0x1a5>
 1a5:	48 89 c7             	mov    %rax,%rdi
 1a8:	ff 15 00 00 00 00    	callq  *0x0(%rip)        # 1ae <_ZN15crossbeam_deque5deque15Worker$LT$T$GT$6resize17h3f8f0b97afca55fcE.llvm.720062800653213169+0x1ae>
 1ae:	49 89 c4             	mov    %rax,%r12
 1b1:	48 89 04 24          	mov    %rax,(%rsp)
 1b5:	48 89 44 24 10       	mov    %rax,0x10(%rsp)
 1ba:	48 8b 80 e0 07 00 00 	mov    0x7e0(%rax),%rax
 1c1:	48 89 c1             	mov    %rax,%rcx
 1c4:	48 ff c1             	inc    %rcx
 1c7:	0f 84 e5 01 00 00    	je     3b2 <_ZN15crossbeam_deque5deque15Worker$LT$T$GT$6resize17h3f8f0b97afca55fcE.llvm.720062800653213169+0x3b2>
 1cd:	49 89 8c 24 e0 07 00 	mov    %rcx,0x7e0(%r12)
 1d4:	00 
 1d5:	48 85 c0             	test   %rax,%rax
 1d8:	75 45                	jne    21f <_ZN15crossbeam_deque5deque15Worker$LT$T$GT$6resize17h3f8f0b97afca55fcE.llvm.720062800653213169+0x21f>
 1da:	49 8b 44 24 10       	mov    0x10(%r12),%rax
 1df:	48 8b 88 80 01 00 00 	mov    0x180(%rax),%rcx
 1e6:	48 83 c9 01          	or     $0x1,%rcx
 1ea:	31 c0                	xor    %eax,%eax
 1ec:	f0 49 0f b1 4c 24 08 	lock cmpxchg %rcx,0x8(%r12)
 1f3:	49 8b 84 24 f0 07 00 	mov    0x7f0(%r12),%rax
 1fa:	00 
 1fb:	48 8d 48 01          	lea    0x1(%rax),%rcx
 1ff:	49 89 8c 24 f0 07 00 	mov    %rcx,0x7f0(%r12)
 206:	00 
 207:	a8 7f                	test   $0x7f,%al
 209:	75 14                	jne    21f <_ZN15crossbeam_deque5deque15Worker$LT$T$GT$6resize17h3f8f0b97afca55fcE.llvm.720062800653213169+0x21f>
 20b:	49 8b 7c 24 10       	mov    0x10(%r12),%rdi
 210:	48 83 ef 80          	sub    $0xffffffffffffff80,%rdi
 214:	48 8d 74 24 10       	lea    0x10(%rsp),%rsi
 219:	ff 15 00 00 00 00    	callq  *0x0(%rip)        # 21f <_ZN15crossbeam_deque5deque15Worker$LT$T$GT$6resize17h3f8f0b97afca55fcE.llvm.720062800653213169+0x21f>
 21f:	48 8b 5c 24 10       	mov    0x10(%rsp),%rbx
 224:	49 8b 84 24 e8 07 00 	mov    0x7e8(%r12),%rax
 22b:	00 
 22c:	48 8d 48 ff          	lea    -0x1(%rax),%rcx
 230:	49 89 8c 24 e8 07 00 	mov    %rcx,0x7e8(%r12)
 237:	00 
 238:	49 83 bc 24 e0 07 00 	cmpq   $0x0,0x7e0(%r12)
 23f:	00 00 
 241:	75 0a                	jne    24d <_ZN15crossbeam_deque5deque15Worker$LT$T$GT$6resize17h3f8f0b97afca55fcE.llvm.720062800653213169+0x24d>
 243:	48 83 f8 01          	cmp    $0x1,%rax
 247:	0f 84 0a 01 00 00    	je     357 <_ZN15crossbeam_deque5deque15Worker$LT$T$GT$6resize17h3f8f0b97afca55fcE.llvm.720062800653213169+0x357>
 24d:	4c 8b 64 24 08       	mov    0x8(%rsp),%r12
 252:	48 89 1c 24          	mov    %rbx,(%rsp)
 256:	48 8b 44 24 30       	mov    0x30(%rsp),%rax
 25b:	4c 89 68 08          	mov    %r13,0x8(%rax)
 25f:	4c 89 60 10          	mov    %r12,0x10(%rax)
 263:	48 8b 28             	mov    (%rax),%rbp
 266:	bf 10 00 00 00       	mov    $0x10,%edi
 26b:	be 08 00 00 00       	mov    $0x8,%esi
 270:	ff 15 00 00 00 00    	callq  *0x0(%rip)        # 276 <_ZN15crossbeam_deque5deque15Worker$LT$T$GT$6resize17h3f8f0b97afca55fcE.llvm.720062800653213169+0x276>
 276:	48 85 c0             	test   %rax,%rax
 279:	0f 84 f6 00 00 00    	je     375 <_ZN15crossbeam_deque5deque15Worker$LT$T$GT$6resize17h3f8f0b97afca55fcE.llvm.720062800653213169+0x375>
 27f:	48 89 c3             	mov    %rax,%rbx
 282:	4c 89 28             	mov    %r13,(%rax)
 285:	4c 89 60 08          	mov    %r12,0x8(%rax)
 289:	48 87 9d 80 00 00 00 	xchg   %rbx,0x80(%rbp)
 290:	48 8b 3c 24          	mov    (%rsp),%rdi
 294:	48 85 ff             	test   %rdi,%rdi
 297:	74 30                	je     2c9 <_ZN15crossbeam_deque5deque15Worker$LT$T$GT$6resize17h3f8f0b97afca55fcE.llvm.720062800653213169+0x2c9>
 299:	48 8d 05 00 00 00 00 	lea    0x0(%rip),%rax        # 2a0 <_ZN15crossbeam_deque5deque15Worker$LT$T$GT$6resize17h3f8f0b97afca55fcE.llvm.720062800653213169+0x2a0>
 2a0:	48 89 44 24 10       	mov    %rax,0x10(%rsp)
 2a5:	48 89 5c 24 18       	mov    %rbx,0x18(%rsp)
 2aa:	48 8d 74 24 10       	lea    0x10(%rsp),%rsi
 2af:	48 89 e2             	mov    %rsp,%rdx
 2b2:	ff 15 00 00 00 00    	callq  *0x0(%rip)        # 2b8 <_ZN15crossbeam_deque5deque15Worker$LT$T$GT$6resize17h3f8f0b97afca55fcE.llvm.720062800653213169+0x2b8>
 2b8:	48 b8 c0 ff ff ff ff 	movabs $0xfffffffffffffc0,%rax
 2bf:	ff ff 0f 
 2c2:	49 85 c4             	test   %rax,%r12
 2c5:	75 45                	jne    30c <_ZN15crossbeam_deque5deque15Worker$LT$T$GT$6resize17h3f8f0b97afca55fcE.llvm.720062800653213169+0x30c>
 2c7:	eb 4c                	jmp    315 <_ZN15crossbeam_deque5deque15Worker$LT$T$GT$6resize17h3f8f0b97afca55fcE.llvm.720062800653213169+0x315>
 2c9:	48 83 e3 f8          	and    $0xfffffffffffffff8,%rbx
 2cd:	48 8b 73 08          	mov    0x8(%rbx),%rsi
 2d1:	48 85 f6             	test   %rsi,%rsi
 2d4:	74 14                	je     2ea <_ZN15crossbeam_deque5deque15Worker$LT$T$GT$6resize17h3f8f0b97afca55fcE.llvm.720062800653213169+0x2ea>
 2d6:	48 c1 e6 04          	shl    $0x4,%rsi
 2da:	74 0e                	je     2ea <_ZN15crossbeam_deque5deque15Worker$LT$T$GT$6resize17h3f8f0b97afca55fcE.llvm.720062800653213169+0x2ea>
 2dc:	48 8b 3b             	mov    (%rbx),%rdi
 2df:	ba 08 00 00 00       	mov    $0x8,%edx
 2e4:	ff 15 00 00 00 00    	callq  *0x0(%rip)        # 2ea <_ZN15crossbeam_deque5deque15Worker$LT$T$GT$6resize17h3f8f0b97afca55fcE.llvm.720062800653213169+0x2ea>
 2ea:	be 10 00 00 00       	mov    $0x10,%esi
 2ef:	ba 08 00 00 00       	mov    $0x8,%edx
 2f4:	48 89 df             	mov    %rbx,%rdi
 2f7:	ff 15 00 00 00 00    	callq  *0x0(%rip)        # 2fd <_ZN15crossbeam_deque5deque15Worker$LT$T$GT$6resize17h3f8f0b97afca55fcE.llvm.720062800653213169+0x2fd>
 2fd:	48 b8 c0 ff ff ff ff 	movabs $0xfffffffffffffc0,%rax
 304:	ff ff 0f 
 307:	49 85 c4             	test   %rax,%r12
 30a:	74 09                	je     315 <_ZN15crossbeam_deque5deque15Worker$LT$T$GT$6resize17h3f8f0b97afca55fcE.llvm.720062800653213169+0x315>
 30c:	48 89 e7             	mov    %rsp,%rdi
 30f:	ff 15 00 00 00 00    	callq  *0x0(%rip)        # 315 <_ZN15crossbeam_deque5deque15Worker$LT$T$GT$6resize17h3f8f0b97afca55fcE.llvm.720062800653213169+0x315>
 315:	48 8b 3c 24          	mov    (%rsp),%rdi
 319:	48 85 ff             	test   %rdi,%rdi
 31c:	74 2a                	je     348 <_ZN15crossbeam_deque5deque15Worker$LT$T$GT$6resize17h3f8f0b97afca55fcE.llvm.720062800653213169+0x348>
 31e:	48 8b 87 e0 07 00 00 	mov    0x7e0(%rdi),%rax
 325:	48 8d 48 ff          	lea    -0x1(%rax),%rcx
 329:	48 89 8f e0 07 00 00 	mov    %rcx,0x7e0(%rdi)
 330:	48 83 f8 01          	cmp    $0x1,%rax
 334:	75 12                	jne    348 <_ZN15crossbeam_deque5deque15Worker$LT$T$GT$6resize17h3f8f0b97afca55fcE.llvm.720062800653213169+0x348>
 336:	48 c7 47 08 00 00 00 	movq   $0x0,0x8(%rdi)
 33d:	00 
 33e:	48 83 bf e8 07 00 00 	cmpq   $0x0,0x7e8(%rdi)
 345:	00 
 346:	74 1d                	je     365 <_ZN15crossbeam_deque5deque15Worker$LT$T$GT$6resize17h3f8f0b97afca55fcE.llvm.720062800653213169+0x365>
 348:	48 83 c4 38          	add    $0x38,%rsp
 34c:	5b                   	pop    %rbx
 34d:	41 5c                	pop    %r12
 34f:	41 5d                	pop    %r13
 351:	41 5e                	pop    %r14
 353:	41 5f                	pop    %r15
 355:	5d                   	pop    %rbp
 356:	c3                   	retq   
 357:	4c 89 e7             	mov    %r12,%rdi
 35a:	ff 15 00 00 00 00    	callq  *0x0(%rip)        # 360 <_ZN15crossbeam_deque5deque15Worker$LT$T$GT$6resize17h3f8f0b97afca55fcE.llvm.720062800653213169+0x360>
 360:	e9 e8 fe ff ff       	jmpq   24d <_ZN15crossbeam_deque5deque15Worker$LT$T$GT$6resize17h3f8f0b97afca55fcE.llvm.720062800653213169+0x24d>
 365:	ff 15 00 00 00 00    	callq  *0x0(%rip)        # 36b <_ZN15crossbeam_deque5deque15Worker$LT$T$GT$6resize17h3f8f0b97afca55fcE.llvm.720062800653213169+0x36b>
 36b:	eb db                	jmp    348 <_ZN15crossbeam_deque5deque15Worker$LT$T$GT$6resize17h3f8f0b97afca55fcE.llvm.720062800653213169+0x348>
 36d:	ff 15 00 00 00 00    	callq  *0x0(%rip)        # 373 <_ZN15crossbeam_deque5deque15Worker$LT$T$GT$6resize17h3f8f0b97afca55fcE.llvm.720062800653213169+0x373>
 373:	0f 0b                	ud2    
 375:	bf 10 00 00 00       	mov    $0x10,%edi
 37a:	be 08 00 00 00       	mov    $0x8,%esi
 37f:	ff 15 00 00 00 00    	callq  *0x0(%rip)        # 385 <_ZN15crossbeam_deque5deque15Worker$LT$T$GT$6resize17h3f8f0b97afca55fcE.llvm.720062800653213169+0x385>
 385:	0f 0b                	ud2    
 387:	be 08 00 00 00       	mov    $0x8,%esi
 38c:	4c 89 e7             	mov    %r12,%rdi
 38f:	ff 15 00 00 00 00    	callq  *0x0(%rip)        # 395 <_ZN15crossbeam_deque5deque15Worker$LT$T$GT$6resize17h3f8f0b97afca55fcE.llvm.720062800653213169+0x395>
 395:	0f 0b                	ud2    
 397:	48 8d 3d 00 00 00 00 	lea    0x0(%rip),%rdi        # 39e <_ZN15crossbeam_deque5deque15Worker$LT$T$GT$6resize17h3f8f0b97afca55fcE.llvm.720062800653213169+0x39e>
 39e:	48 8d 15 00 00 00 00 	lea    0x0(%rip),%rdx        # 3a5 <_ZN15crossbeam_deque5deque15Worker$LT$T$GT$6resize17h3f8f0b97afca55fcE.llvm.720062800653213169+0x3a5>
 3a5:	be 2b 00 00 00       	mov    $0x2b,%esi
 3aa:	ff 15 00 00 00 00    	callq  *0x0(%rip)        # 3b0 <_ZN15crossbeam_deque5deque15Worker$LT$T$GT$6resize17h3f8f0b97afca55fcE.llvm.720062800653213169+0x3b0>
 3b0:	eb 19                	jmp    3cb <_ZN15crossbeam_deque5deque15Worker$LT$T$GT$6resize17h3f8f0b97afca55fcE.llvm.720062800653213169+0x3cb>
 3b2:	48 8d 3d 00 00 00 00 	lea    0x0(%rip),%rdi        # 3b9 <_ZN15crossbeam_deque5deque15Worker$LT$T$GT$6resize17h3f8f0b97afca55fcE.llvm.720062800653213169+0x3b9>
 3b9:	48 8d 15 00 00 00 00 	lea    0x0(%rip),%rdx        # 3c0 <_ZN15crossbeam_deque5deque15Worker$LT$T$GT$6resize17h3f8f0b97afca55fcE.llvm.720062800653213169+0x3c0>
 3c0:	be 2b 00 00 00       	mov    $0x2b,%esi
 3c5:	ff 15 00 00 00 00    	callq  *0x0(%rip)        # 3cb <_ZN15crossbeam_deque5deque15Worker$LT$T$GT$6resize17h3f8f0b97afca55fcE.llvm.720062800653213169+0x3cb>
 3cb:	0f 0b                	ud2    
 3cd:	48 89 c3             	mov    %rax,%rbx
 3d0:	48 8d 7c 24 10       	lea    0x10(%rsp),%rdi
 3d5:	e8 00 00 00 00       	callq  3da <_ZN15crossbeam_deque5deque15Worker$LT$T$GT$6resize17h3f8f0b97afca55fcE.llvm.720062800653213169+0x3da>
 3da:	48 89 e7             	mov    %rsp,%rdi
 3dd:	e8 00 00 00 00       	callq  3e2 <_ZN15crossbeam_deque5deque15Worker$LT$T$GT$6resize17h3f8f0b97afca55fcE.llvm.720062800653213169+0x3e2>
 3e2:	eb 1a                	jmp    3fe <_ZN15crossbeam_deque5deque15Worker$LT$T$GT$6resize17h3f8f0b97afca55fcE.llvm.720062800653213169+0x3fe>
 3e4:	48 89 c3             	mov    %rax,%rbx
 3e7:	eb f1                	jmp    3da <_ZN15crossbeam_deque5deque15Worker$LT$T$GT$6resize17h3f8f0b97afca55fcE.llvm.720062800653213169+0x3da>
 3e9:	48 89 c3             	mov    %rax,%rbx
 3ec:	48 8d 7c 24 10       	lea    0x10(%rsp),%rdi
 3f1:	eb 06                	jmp    3f9 <_ZN15crossbeam_deque5deque15Worker$LT$T$GT$6resize17h3f8f0b97afca55fcE.llvm.720062800653213169+0x3f9>
 3f3:	48 89 c3             	mov    %rax,%rbx
 3f6:	48 89 e7             	mov    %rsp,%rdi
 3f9:	e8 00 00 00 00       	callq  3fe <_ZN15crossbeam_deque5deque15Worker$LT$T$GT$6resize17h3f8f0b97afca55fcE.llvm.720062800653213169+0x3fe>
 3fe:	48 89 df             	mov    %rbx,%rdi
 401:	e8 00 00 00 00       	callq  406 <_ZN15crossbeam_deque5deque15Worker$LT$T$GT$6resize17h3f8f0b97afca55fcE.llvm.720062800653213169+0x406>
 406:	0f 0b                	ud2    

Disassembly of section .text._ZN15crossbeam_deque5deque15Worker$LT$T$GT$8is_empty17h41b6e73e76feeb7aE:

0000000000000000 <_ZN15crossbeam_deque5deque15Worker$LT$T$GT$8is_empty17h41b6e73e76feeb7aE>:
   0:	48 8b 07             	mov    (%rdi),%rax
   3:	48 8b 88 08 01 00 00 	mov    0x108(%rax),%rcx
   a:	48 8b 80 00 01 00 00 	mov    0x100(%rax),%rax
  11:	48 29 c1             	sub    %rax,%rcx
  14:	48 85 c9             	test   %rcx,%rcx
  17:	0f 9e c0             	setle  %al
  1a:	c3                   	retq   

Disassembly of section .text._ZN4core3ptr13drop_in_place17h3547e469c7b3a481E.llvm.720062800653213169:

0000000000000000 <_ZN4core3ptr13drop_in_place17h3547e469c7b3a481E.llvm.720062800653213169>:
   0:	48 8b 77 08          	mov    0x8(%rdi),%rsi
   4:	48 85 f6             	test   %rsi,%rsi
   7:	74 14                	je     1d <_ZN4core3ptr13drop_in_place17h3547e469c7b3a481E.llvm.720062800653213169+0x1d>
   9:	48 c1 e6 04          	shl    $0x4,%rsi
   d:	74 0e                	je     1d <_ZN4core3ptr13drop_in_place17h3547e469c7b3a481E.llvm.720062800653213169+0x1d>
   f:	48 8b 3f             	mov    (%rdi),%rdi
  12:	ba 08 00 00 00       	mov    $0x8,%edx
  17:	ff 25 00 00 00 00    	jmpq   *0x0(%rip)        # 1d <_ZN4core3ptr13drop_in_place17h3547e469c7b3a481E.llvm.720062800653213169+0x1d>
  1d:	c3                   	retq   

Disassembly of section .text._ZN4core3ptr13drop_in_place17h6ecd62b18731786bE.llvm.720062800653213169:

0000000000000000 <_ZN4core3ptr13drop_in_place17h6ecd62b18731786bE.llvm.720062800653213169>:
   0:	48 8b 3f             	mov    (%rdi),%rdi
   3:	be 10 00 00 00       	mov    $0x10,%esi
   8:	ba 08 00 00 00       	mov    $0x8,%edx
   d:	ff 25 00 00 00 00    	jmpq   *0x0(%rip)        # 13 <_ZN4core3ptr13drop_in_place17h6ecd62b18731786bE.llvm.720062800653213169+0x13>

Disassembly of section .text._ZN4core3ptr13drop_in_place17h9e40b406626a09b8E:

0000000000000000 <_ZN4core3ptr13drop_in_place17h9e40b406626a09b8E>:
   0:	48 8b 3f             	mov    (%rdi),%rdi
   3:	48 8b 87 e8 07 00 00 	mov    0x7e8(%rdi),%rax
   a:	48 8d 48 ff          	lea    -0x1(%rax),%rcx
   e:	48 89 8f e8 07 00 00 	mov    %rcx,0x7e8(%rdi)
  15:	48 83 bf e0 07 00 00 	cmpq   $0x0,0x7e0(%rdi)
  1c:	00 
  1d:	75 06                	jne    25 <_ZN4core3ptr13drop_in_place17h9e40b406626a09b8E+0x25>
  1f:	48 83 f8 01          	cmp    $0x1,%rax
  23:	74 01                	je     26 <_ZN4core3ptr13drop_in_place17h9e40b406626a09b8E+0x26>
  25:	c3                   	retq   
  26:	ff 25 00 00 00 00    	jmpq   *0x0(%rip)        # 2c <_ZN4core3ptr13drop_in_place17h9e40b406626a09b8E+0x2c>

Disassembly of section .text._ZN4core3ptr13drop_in_place17hb06577a446a590a5E:

0000000000000000 <_ZN4core3ptr13drop_in_place17hb06577a446a590a5E>:
   0:	48 8b 3f             	mov    (%rdi),%rdi
   3:	48 85 ff             	test   %rdi,%rdi
   6:	74 2a                	je     32 <_ZN4core3ptr13drop_in_place17hb06577a446a590a5E+0x32>
   8:	48 8b 87 e0 07 00 00 	mov    0x7e0(%rdi),%rax
   f:	48 8d 48 ff          	lea    -0x1(%rax),%rcx
  13:	48 89 8f e0 07 00 00 	mov    %rcx,0x7e0(%rdi)
  1a:	48 83 f8 01          	cmp    $0x1,%rax
  1e:	75 12                	jne    32 <_ZN4core3ptr13drop_in_place17hb06577a446a590a5E+0x32>
  20:	48 c7 47 08 00 00 00 	movq   $0x0,0x8(%rdi)
  27:	00 
  28:	48 83 bf e8 07 00 00 	cmpq   $0x0,0x7e8(%rdi)
  2f:	00 
  30:	74 01                	je     33 <_ZN4core3ptr13drop_in_place17hb06577a446a590a5E+0x33>
  32:	c3                   	retq   
  33:	ff 25 00 00 00 00    	jmpq   *0x0(%rip)        # 39 <_ZN4core3ptr13drop_in_place17hb06577a446a590a5E+0x39>

Disassembly of section .text._ZN56_$LT$T$u20$as$u20$crossbeam_epoch..atomic..Pointable$GT$4init17h0692acdddadd42dbE:

0000000000000000 <_ZN56_$LT$T$u20$as$u20$crossbeam_epoch..atomic..Pointable$GT$4init17h0692acdddadd42dbE>:
   0:	41 56                	push   %r14
   2:	53                   	push   %rbx
   3:	50                   	push   %rax
   4:	49 89 f6             	mov    %rsi,%r14
   7:	48 89 fb             	mov    %rdi,%rbx
   a:	bf 10 00 00 00       	mov    $0x10,%edi
   f:	be 08 00 00 00       	mov    $0x8,%esi
  14:	ff 15 00 00 00 00    	callq  *0x0(%rip)        # 1a <_ZN56_$LT$T$u20$as$u20$crossbeam_epoch..atomic..Pointable$GT$4init17h0692acdddadd42dbE+0x1a>
  1a:	48 85 c0             	test   %rax,%rax
  1d:	74 0f                	je     2e <_ZN56_$LT$T$u20$as$u20$crossbeam_epoch..atomic..Pointable$GT$4init17h0692acdddadd42dbE+0x2e>
  1f:	48 89 18             	mov    %rbx,(%rax)
  22:	4c 89 70 08          	mov    %r14,0x8(%rax)
  26:	48 83 c4 08          	add    $0x8,%rsp
  2a:	5b                   	pop    %rbx
  2b:	41 5e                	pop    %r14
  2d:	c3                   	retq   
  2e:	bf 10 00 00 00       	mov    $0x10,%edi
  33:	be 08 00 00 00       	mov    $0x8,%esi
  38:	ff 15 00 00 00 00    	callq  *0x0(%rip)        # 3e <_ZN56_$LT$T$u20$as$u20$crossbeam_epoch..atomic..Pointable$GT$4init17h0692acdddadd42dbE+0x3e>
  3e:	0f 0b                	ud2    

Disassembly of section .text._ZN56_$LT$T$u20$as$u20$crossbeam_epoch..atomic..Pointable$GT$5deref17h638ad9b78d0b7359E:

0000000000000000 <_ZN56_$LT$T$u20$as$u20$crossbeam_epoch..atomic..Pointable$GT$5deref17h638ad9b78d0b7359E>:
   0:	48 89 f8             	mov    %rdi,%rax
   3:	c3                   	retq   

Disassembly of section .text._ZN80_$LT$crossbeam_deque..deque..Inner$LT$T$GT$$u20$as$u20$core..ops..drop..Drop$GT$4drop17h67de4eaad18349fdE:

0000000000000000 <_ZN80_$LT$crossbeam_deque..deque..Inner$LT$T$GT$$u20$as$u20$core..ops..drop..Drop$GT$4drop17h67de4eaad18349fdE>:
   0:	53                   	push   %rbx
   1:	48 8b 87 88 00 00 00 	mov    0x88(%rdi),%rax
   8:	48 8b 87 80 00 00 00 	mov    0x80(%rdi),%rax
   f:	48 8b 1f             	mov    (%rdi),%rbx
  12:	48 83 e3 f8          	and    $0xfffffffffffffff8,%rbx
  16:	48 8b 73 08          	mov    0x8(%rbx),%rsi
  1a:	48 85 f6             	test   %rsi,%rsi
  1d:	74 14                	je     33 <_ZN80_$LT$crossbeam_deque..deque..Inner$LT$T$GT$$u20$as$u20$core..ops..drop..Drop$GT$4drop17h67de4eaad18349fdE+0x33>
  1f:	48 c1 e6 04          	shl    $0x4,%rsi
  23:	74 0e                	je     33 <_ZN80_$LT$crossbeam_deque..deque..Inner$LT$T$GT$$u20$as$u20$core..ops..drop..Drop$GT$4drop17h67de4eaad18349fdE+0x33>
  25:	48 8b 3b             	mov    (%rbx),%rdi
  28:	ba 08 00 00 00       	mov    $0x8,%edx
  2d:	ff 15 00 00 00 00    	callq  *0x0(%rip)        # 33 <_ZN80_$LT$crossbeam_deque..deque..Inner$LT$T$GT$$u20$as$u20$core..ops..drop..Drop$GT$4drop17h67de4eaad18349fdE+0x33>
  33:	be 10 00 00 00       	mov    $0x10,%esi
  38:	ba 08 00 00 00       	mov    $0x8,%edx
  3d:	48 89 df             	mov    %rbx,%rdi
  40:	5b                   	pop    %rbx
  41:	ff 25 00 00 00 00    	jmpq   *0x0(%rip)        # 47 <_ZN80_$LT$crossbeam_deque..deque..Inner$LT$T$GT$$u20$as$u20$core..ops..drop..Drop$GT$4drop17h67de4eaad18349fdE+0x47>

Disassembly of section .text._ZN83_$LT$crossbeam_deque..deque..Injector$LT$T$GT$$u20$as$u20$core..ops..drop..Drop$GT$4drop17h28499a7abeed536eE:

0000000000000000 <_ZN83_$LT$crossbeam_deque..deque..Injector$LT$T$GT$$u20$as$u20$core..ops..drop..Drop$GT$4drop17h28499a7abeed536eE>:
   0:	41 57                	push   %r15
   2:	41 56                	push   %r14
   4:	41 54                	push   %r12
   6:	53                   	push   %rbx
   7:	50                   	push   %rax
   8:	48 8b 1f             	mov    (%rdi),%rbx
   b:	4c 8b b7 80 00 00 00 	mov    0x80(%rdi),%r14
  12:	48 8b 7f 08          	mov    0x8(%rdi),%rdi
  16:	48 83 e3 fe          	and    $0xfffffffffffffffe,%rbx
  1a:	49 83 e6 fe          	and    $0xfffffffffffffffe,%r14
  1e:	4c 39 f3             	cmp    %r14,%rbx
  21:	75 1b                	jne    3e <_ZN83_$LT$crossbeam_deque..deque..Injector$LT$T$GT$$u20$as$u20$core..ops..drop..Drop$GT$4drop17h28499a7abeed536eE+0x3e>
  23:	be f0 05 00 00       	mov    $0x5f0,%esi
  28:	ba 08 00 00 00       	mov    $0x8,%edx
  2d:	48 83 c4 08          	add    $0x8,%rsp
  31:	5b                   	pop    %rbx
  32:	41 5c                	pop    %r12
  34:	41 5e                	pop    %r14
  36:	41 5f                	pop    %r15
  38:	ff 25 00 00 00 00    	jmpq   *0x0(%rip)        # 3e <_ZN83_$LT$crossbeam_deque..deque..Injector$LT$T$GT$$u20$as$u20$core..ops..drop..Drop$GT$4drop17h28499a7abeed536eE+0x3e>
  3e:	4c 8b 3d 00 00 00 00 	mov    0x0(%rip),%r15        # 45 <_ZN83_$LT$crossbeam_deque..deque..Injector$LT$T$GT$$u20$as$u20$core..ops..drop..Drop$GT$4drop17h28499a7abeed536eE+0x45>
  45:	e9 0f 00 00 00       	jmpq   59 <_ZN83_$LT$crossbeam_deque..deque..Injector$LT$T$GT$$u20$as$u20$core..ops..drop..Drop$GT$4drop17h28499a7abeed536eE+0x59>
  4a:	66 0f 1f 44 00 00    	nopw   0x0(%rax,%rax,1)
  50:	48 83 c3 02          	add    $0x2,%rbx
  54:	49 39 de             	cmp    %rbx,%r14
  57:	74 ca                	je     23 <_ZN83_$LT$crossbeam_deque..deque..Injector$LT$T$GT$$u20$as$u20$core..ops..drop..Drop$GT$4drop17h28499a7abeed536eE+0x23>
  59:	89 d8                	mov    %ebx,%eax
  5b:	83 e0 7e             	and    $0x7e,%eax
  5e:	83 f8 7e             	cmp    $0x7e,%eax
  61:	75 ed                	jne    50 <_ZN83_$LT$crossbeam_deque..deque..Injector$LT$T$GT$$u20$as$u20$core..ops..drop..Drop$GT$4drop17h28499a7abeed536eE+0x50>
  63:	4c 8b 27             	mov    (%rdi),%r12
  66:	be f0 05 00 00       	mov    $0x5f0,%esi
  6b:	ba 08 00 00 00       	mov    $0x8,%edx
  70:	41 ff d7             	callq  *%r15
  73:	4c 89 e7             	mov    %r12,%rdi
  76:	eb d8                	jmp    50 <_ZN83_$LT$crossbeam_deque..deque..Injector$LT$T$GT$$u20$as$u20$core..ops..drop..Drop$GT$4drop17h28499a7abeed536eE+0x50>

raidpir-af98855fa7dd616c.raidpir.b7a4ri6o-cgu.10.rcgu.o:     file format elf64-x86-64


Disassembly of section .text._ZN3std4sync5mutex14Mutex$LT$T$GT$4lock17h25240eea10055fc5E:

0000000000000000 <_ZN3std4sync5mutex14Mutex$LT$T$GT$4lock17h25240eea10055fc5E>:
   0:	41 56                	push   %r14
   2:	53                   	push   %rbx
   3:	50                   	push   %rax
   4:	49 89 f6             	mov    %rsi,%r14
   7:	48 89 fb             	mov    %rdi,%rbx
   a:	48 8b 3e             	mov    (%rsi),%rdi
   d:	ff 15 00 00 00 00    	callq  *0x0(%rip)        # 13 <_ZN3std4sync5mutex14Mutex$LT$T$GT$4lock17h25240eea10055fc5E+0x13>
  13:	48 8b 05 00 00 00 00 	mov    0x0(%rip),%rax        # 1a <_ZN3std4sync5mutex14Mutex$LT$T$GT$4lock17h25240eea10055fc5E+0x1a>
  1a:	48 8b 00             	mov    (%rax),%rax
  1d:	48 85 c0             	test   %rax,%rax
  20:	75 22                	jne    44 <_ZN3std4sync5mutex14Mutex$LT$T$GT$4lock17h25240eea10055fc5E+0x44>
  22:	31 c0                	xor    %eax,%eax
  24:	41 8a 4e 08          	mov    0x8(%r14),%cl
  28:	31 d2                	xor    %edx,%edx
  2a:	84 c9                	test   %cl,%cl
  2c:	0f 95 c2             	setne  %dl
  2f:	4c 89 73 08          	mov    %r14,0x8(%rbx)
  33:	88 43 10             	mov    %al,0x10(%rbx)
  36:	48 89 13             	mov    %rdx,(%rbx)
  39:	48 89 d8             	mov    %rbx,%rax
  3c:	48 83 c4 08          	add    $0x8,%rsp
  40:	5b                   	pop    %rbx
  41:	41 5e                	pop    %r14
  43:	c3                   	retq   
  44:	ff 15 00 00 00 00    	callq  *0x0(%rip)        # 4a <_ZN3std4sync5mutex14Mutex$LT$T$GT$4lock17h25240eea10055fc5E+0x4a>
  4a:	34 01                	xor    $0x1,%al
  4c:	eb d6                	jmp    24 <_ZN3std4sync5mutex14Mutex$LT$T$GT$4lock17h25240eea10055fc5E+0x24>

Disassembly of section .text._ZN4core4iter8adapters3zip16Zip$LT$A$C$B$GT$3new17h88ee142d534d97eaE:

0000000000000000 <_ZN4core4iter8adapters3zip16Zip$LT$A$C$B$GT$3new17h88ee142d534d97eaE>:
   0:	48 89 f8             	mov    %rdi,%rax
   3:	48 89 37             	mov    %rsi,(%rdi)
   6:	48 89 57 08          	mov    %rdx,0x8(%rdi)
   a:	48 29 f2             	sub    %rsi,%rdx
   d:	48 c1 ea 03          	shr    $0x3,%rdx
  11:	4c 89 c6             	mov    %r8,%rsi
  14:	48 29 ce             	sub    %rcx,%rsi
  17:	48 c1 ee 03          	shr    $0x3,%rsi
  1b:	48 39 f2             	cmp    %rsi,%rdx
  1e:	48 0f 46 f2          	cmovbe %rdx,%rsi
  22:	48 89 4f 10          	mov    %rcx,0x10(%rdi)
  26:	4c 89 47 18          	mov    %r8,0x18(%rdi)
  2a:	48 c7 47 20 00 00 00 	movq   $0x0,0x20(%rdi)
  31:	00 
  32:	48 89 77 28          	mov    %rsi,0x28(%rdi)
  36:	c3                   	retq   

Disassembly of section .text._ZN50_$LT$T$u20$as$u20$core..convert..Into$LT$U$GT$$GT$4into17h8d22bab87f742592E:

0000000000000000 <_ZN50_$LT$T$u20$as$u20$core..convert..Into$LT$U$GT$$GT$4into17h8d22bab87f742592E>:
   0:	b0 01                	mov    $0x1,%al
   2:	89 fa                	mov    %edi,%edx
   4:	c3                   	retq   

Disassembly of section .text._ZN63_$LT$I$u20$as$u20$core..iter..traits..collect..IntoIterator$GT$9into_iter17h634ed26f66decae9E:

0000000000000000 <_ZN63_$LT$I$u20$as$u20$core..iter..traits..collect..IntoIterator$GT$9into_iter17h634ed26f66decae9E>:
   0:	48 89 f8             	mov    %rdi,%rax
   3:	c5 fc 10 06          	vmovups (%rsi),%ymm0
   7:	c5 fc 10 4e 10       	vmovups 0x10(%rsi),%ymm1
   c:	c5 fc 11 4f 10       	vmovups %ymm1,0x10(%rdi)
  11:	c5 fc 11 07          	vmovups %ymm0,(%rdi)
  15:	c5 f8 77             	vzeroupper 
  18:	c3                   	retq   

Disassembly of section .text._ZN6bitvec5index16BitTail$LT$R$GT$4span17h9d7767e9bf9740eaE:

0000000000000000 <_ZN6bitvec5index16BitTail$LT$R$GT$4span17h9d7767e9bf9740eaE>:
   0:	48 85 f6             	test   %rsi,%rsi
   3:	74 36                	je     3b <_ZN6bitvec5index16BitTail$LT$R$GT$4span17h9d7767e9bf9740eaE+0x3b>
   5:	40 80 e7 3f          	and    $0x3f,%dil
   9:	b0 40                	mov    $0x40,%al
   b:	40 28 f8             	sub    %dil,%al
   e:	0f b6 c0             	movzbl %al,%eax
  11:	48 39 f0             	cmp    %rsi,%rax
  14:	73 2a                	jae    40 <_ZN6bitvec5index16BitTail$LT$R$GT$4span17h9d7767e9bf9740eaE+0x40>
  16:	48 29 c6             	sub    %rax,%rsi
  19:	48 89 f0             	mov    %rsi,%rax
  1c:	48 c1 e8 06          	shr    $0x6,%rax
  20:	31 ff                	xor    %edi,%edi
  22:	40 80 e6 3f          	and    $0x3f,%sil
  26:	40 0f 94 c7          	sete   %dil
  2a:	48 29 f8             	sub    %rdi,%rax
  2d:	48 83 c0 02          	add    $0x2,%rax
  31:	40 c0 e7 06          	shl    $0x6,%dil
  35:	40 08 f7             	or     %sil,%dil
  38:	89 fa                	mov    %edi,%edx
  3a:	c3                   	retq   
  3b:	31 c0                	xor    %eax,%eax
  3d:	89 fa                	mov    %edi,%edx
  3f:	c3                   	retq   
  40:	40 00 f7             	add    %sil,%dil
  43:	b8 01 00 00 00       	mov    $0x1,%eax
  48:	89 fa                	mov    %edi,%edx
  4a:	c3                   	retq   

Disassembly of section .text._ZN84_$LT$std..sync..mutex..MutexGuard$LT$T$GT$$u20$as$u20$core..ops..deref..DerefMut$GT$9deref_mut17h7194a4ffbb119003E:

0000000000000000 <_ZN84_$LT$std..sync..mutex..MutexGuard$LT$T$GT$$u20$as$u20$core..ops..deref..DerefMut$GT$9deref_mut17h7194a4ffbb119003E>:
   0:	48 8b 07             	mov    (%rdi),%rax
   3:	48 83 c0 09          	add    $0x9,%rax
   7:	c3                   	retq   

Disassembly of section .text._ZN97_$LT$rand_chacha..chacha..Array64$LT$T$GT$$u20$as$u20$core..convert..AsMut$LT$$u5b$T$u5d$$GT$$GT$6as_mut17h4ee367050c150b0fE:

0000000000000000 <_ZN97_$LT$rand_chacha..chacha..Array64$LT$T$GT$$u20$as$u20$core..convert..AsMut$LT$$u5b$T$u5d$$GT$$GT$6as_mut17h4ee367050c150b0fE>:
   0:	48 89 f8             	mov    %rdi,%rax
   3:	ba 40 00 00 00       	mov    $0x40,%edx
   8:	c3                   	retq   

Disassembly of section .text._ZN97_$LT$rand_chacha..chacha..Array64$LT$T$GT$$u20$as$u20$core..convert..AsRef$LT$$u5b$T$u5d$$GT$$GT$6as_ref17hee2aebbaff31f97eE:

0000000000000000 <_ZN97_$LT$rand_chacha..chacha..Array64$LT$T$GT$$u20$as$u20$core..convert..AsRef$LT$$u5b$T$u5d$$GT$$GT$6as_ref17hee2aebbaff31f97eE>:
   0:	48 89 f8             	mov    %rdi,%rax
   3:	ba 40 00 00 00       	mov    $0x40,%edx
   8:	c3                   	retq   

Disassembly of section .text._ZN9rand_core11SeedableRng13seed_from_u6417ha48fe17289eb0654E:

0000000000000000 <_ZN9rand_core11SeedableRng13seed_from_u6417ha48fe17289eb0654E>:
   0:	53                   	push   %rbx
   1:	48 81 ec 90 00 00 00 	sub    $0x90,%rsp
   8:	48 89 fb             	mov    %rdi,%rbx
   b:	48 b8 2d 7f 95 4c 2d 	movabs $0x5851f42d4c957f2d,%rax
  12:	f4 51 58 
  15:	48 0f af f0          	imul   %rax,%rsi
  19:	48 b9 f3 17 be 6f e4 	movabs $0xa17654e46fbe17f3,%rcx
  20:	54 76 a1 
  23:	48 01 ce             	add    %rcx,%rsi
  26:	c4 e1 f9 6e c6       	vmovq  %rsi,%xmm0
  2b:	48 0f af f0          	imul   %rax,%rsi
  2f:	48 01 ce             	add    %rcx,%rsi
  32:	c4 e1 f9 6e ce       	vmovq  %rsi,%xmm1
  37:	48 0f af f0          	imul   %rax,%rsi
  3b:	48 01 ce             	add    %rcx,%rsi
  3e:	c4 e1 f9 6e d6       	vmovq  %rsi,%xmm2
  43:	48 0f af f0          	imul   %rax,%rsi
  47:	48 01 ce             	add    %rcx,%rsi
  4a:	c4 e1 f9 6e de       	vmovq  %rsi,%xmm3
  4f:	48 0f af f0          	imul   %rax,%rsi
  53:	48 01 ce             	add    %rcx,%rsi
  56:	c4 e1 f9 6e e6       	vmovq  %rsi,%xmm4
  5b:	48 0f af f0          	imul   %rax,%rsi
  5f:	48 01 ce             	add    %rcx,%rsi
  62:	c5 f9 6c c1          	vpunpcklqdq %xmm1,%xmm0,%xmm0
  66:	c4 e1 f9 6e ce       	vmovq  %rsi,%xmm1
  6b:	48 0f af f0          	imul   %rax,%rsi
  6f:	48 01 ce             	add    %rcx,%rsi
  72:	48 0f af c6          	imul   %rsi,%rax
  76:	48 01 c8             	add    %rcx,%rax
  79:	c5 e9 6c d3          	vpunpcklqdq %xmm3,%xmm2,%xmm2
  7d:	c4 e3 7d 38 c2 01    	vinserti128 $0x1,%xmm2,%ymm0,%ymm0
  83:	c5 d9 6c c9          	vpunpcklqdq %xmm1,%xmm4,%xmm1
  87:	c4 e1 f9 6e d6       	vmovq  %rsi,%xmm2
  8c:	c4 e1 f9 6e d8       	vmovq  %rax,%xmm3
  91:	c5 e9 6c d3          	vpunpcklqdq %xmm3,%xmm2,%xmm2
  95:	c4 e3 75 38 ca 01    	vinserti128 $0x1,%xmm2,%ymm1,%ymm1
  9b:	c5 ed 73 d1 2d       	vpsrlq $0x2d,%ymm1,%ymm2
  a0:	c5 e5 73 d0 2d       	vpsrlq $0x2d,%ymm0,%ymm3
  a5:	c5 dd 73 d1 1b       	vpsrlq $0x1b,%ymm1,%ymm4
  aa:	c5 ed ef d4          	vpxor  %ymm4,%ymm2,%ymm2
  ae:	c5 dd 73 d0 1b       	vpsrlq $0x1b,%ymm0,%ymm4
  b3:	c5 e5 ef dc          	vpxor  %ymm4,%ymm3,%ymm3
  b7:	c4 e3 65 46 e2 31    	vperm2i128 $0x31,%ymm2,%ymm3,%ymm4
  bd:	c4 e3 65 38 d2 01    	vinserti128 $0x1,%xmm2,%ymm3,%ymm2
  c3:	c5 ec c6 d4 88       	vshufps $0x88,%ymm4,%ymm2,%ymm2
  c8:	c5 fd 73 d0 3b       	vpsrlq $0x3b,%ymm0,%ymm0
  cd:	c5 f5 73 d1 3b       	vpsrlq $0x3b,%ymm1,%ymm1
  d2:	c4 e2 7d 2b c1       	vpackusdw %ymm1,%ymm0,%ymm0
  d7:	c4 e3 fd 00 c0 d8    	vpermq $0xd8,%ymm0,%ymm0
  dd:	c5 f1 ef c9          	vpxor  %xmm1,%xmm1,%xmm1
  e1:	c5 f5 fa c0          	vpsubd %ymm0,%ymm1,%ymm0
  e5:	c4 e2 7d 58 0d 00 00 	vpbroadcastd 0x0(%rip),%ymm1        # ee <_ZN9rand_core11SeedableRng13seed_from_u6417ha48fe17289eb0654E+0xee>
  ec:	00 00 
  ee:	c5 fd db c1          	vpand  %ymm1,%ymm0,%ymm0
  f2:	c4 e2 6d 47 c8       	vpsllvd %ymm0,%ymm2,%ymm1
  f7:	c4 e2 7d 58 1d 00 00 	vpbroadcastd 0x0(%rip),%ymm3        # 100 <_ZN9rand_core11SeedableRng13seed_from_u6417ha48fe17289eb0654E+0x100>
  fe:	00 00 
 100:	c5 e5 fa c0          	vpsubd %ymm0,%ymm3,%ymm0
 104:	c4 e2 6d 45 c0       	vpsrlvd %ymm0,%ymm2,%ymm0
 109:	c5 f5 eb c0          	vpor   %ymm0,%ymm1,%ymm0
 10d:	c5 fe 7f 44 24 40    	vmovdqu %ymm0,0x40(%rsp)
 113:	c5 fc 10 44 24 40    	vmovups 0x40(%rsp),%ymm0
 119:	c5 fc 11 04 24       	vmovups %ymm0,(%rsp)
 11e:	48 8d 15 00 00 00 00 	lea    0x0(%rip),%rdx        # 125 <_ZN9rand_core11SeedableRng13seed_from_u6417ha48fe17289eb0654E+0x125>
 125:	48 8d 7c 24 60       	lea    0x60(%rsp),%rdi
 12a:	48 89 e6             	mov    %rsp,%rsi
 12d:	b9 08 00 00 00       	mov    $0x8,%ecx
 132:	c5 f8 77             	vzeroupper 
 135:	ff 15 00 00 00 00    	callq  *0x0(%rip)        # 13b <_ZN9rand_core11SeedableRng13seed_from_u6417ha48fe17289eb0654E+0x13b>
 13b:	c5 fc 10 44 24 60    	vmovups 0x60(%rsp),%ymm0
 141:	c5 fc 10 4c 24 70    	vmovups 0x70(%rsp),%ymm1
 147:	c5 fc 11 4c 24 18    	vmovups %ymm1,0x18(%rsp)
 14d:	c5 fc 11 44 24 08    	vmovups %ymm0,0x8(%rsp)
 153:	48 c7 03 40 00 00 00 	movq   $0x40,(%rbx)
 15a:	c5 f8 57 c0          	vxorps %xmm0,%xmm0,%xmm0
 15e:	c5 fc 11 43 08       	vmovups %ymm0,0x8(%rbx)
 163:	c5 fc 11 43 28       	vmovups %ymm0,0x28(%rbx)
 168:	c5 fc 11 43 48       	vmovups %ymm0,0x48(%rbx)
 16d:	c5 fc 11 43 68       	vmovups %ymm0,0x68(%rbx)
 172:	c5 fc 11 83 88 00 00 	vmovups %ymm0,0x88(%rbx)
 179:	00 
 17a:	c5 fc 11 83 a8 00 00 	vmovups %ymm0,0xa8(%rbx)
 181:	00 
 182:	c5 fc 11 83 c8 00 00 	vmovups %ymm0,0xc8(%rbx)
 189:	00 
 18a:	c5 fc 11 83 e8 00 00 	vmovups %ymm0,0xe8(%rbx)
 191:	00 
 192:	c5 fc 10 04 24       	vmovups (%rsp),%ymm0
 197:	c5 fc 10 4c 24 18    	vmovups 0x18(%rsp),%ymm1
 19d:	c5 fc 11 83 08 01 00 	vmovups %ymm0,0x108(%rbx)
 1a4:	00 
 1a5:	c5 fc 11 8b 20 01 00 	vmovups %ymm1,0x120(%rbx)
 1ac:	00 
 1ad:	48 89 d8             	mov    %rbx,%rax
 1b0:	48 81 c4 90 00 00 00 	add    $0x90,%rsp
 1b7:	5b                   	pop    %rbx
 1b8:	c5 f8 77             	vzeroupper 
 1bb:	c3                   	retq   

raidpir-af98855fa7dd616c.raidpir.b7a4ri6o-cgu.11.rcgu.o:     file format elf64-x86-64


Disassembly of section .text._ZN3std9panicking11begin_panic17h82a592b2ab6e8c29E:

0000000000000000 <_ZN3std9panicking11begin_panic17h82a592b2ab6e8c29E>:
   0:	41 56                	push   %r14
   2:	53                   	push   %rbx
   3:	48 83 ec 18          	sub    $0x18,%rsp
   7:	49 89 f6             	mov    %rsi,%r14
   a:	48 89 fb             	mov    %rdi,%rbx
   d:	48 89 d7             	mov    %rdx,%rdi
  10:	ff 15 00 00 00 00    	callq  *0x0(%rip)        # 16 <_ZN3std9panicking11begin_panic17h82a592b2ab6e8c29E+0x16>
  16:	48 89 1c 24          	mov    %rbx,(%rsp)
  1a:	4c 89 74 24 08       	mov    %r14,0x8(%rsp)
  1f:	48 89 44 24 10       	mov    %rax,0x10(%rsp)
  24:	48 89 e7             	mov    %rsp,%rdi
  27:	e8 00 00 00 00       	callq  2c <_ZN3std9panicking11begin_panic17h82a592b2ab6e8c29E+0x2c>
  2c:	0f 0b                	ud2    

Disassembly of section .text._ZN3std9panicking11begin_panic21PanicPayload$LT$A$GT$3new17haf4a83c9b82fd36eE:

0000000000000000 <_ZN3std9panicking11begin_panic21PanicPayload$LT$A$GT$3new17haf4a83c9b82fd36eE>:
   0:	48 89 f2             	mov    %rsi,%rdx
   3:	48 89 f8             	mov    %rdi,%rax
   6:	c3                   	retq   

Disassembly of section .text._ZN3std9panicking3try17h1902ec4017e7b9f3E:

0000000000000000 <_ZN3std9panicking3try17h1902ec4017e7b9f3E>:
   0:	53                   	push   %rbx
   1:	48 83 ec 50          	sub    $0x50,%rsp
   5:	48 89 fb             	mov    %rdi,%rbx
   8:	48 8b 06             	mov    (%rsi),%rax
   b:	48 8b 4e 08          	mov    0x8(%rsi),%rcx
   f:	48 8b 56 10          	mov    0x10(%rsi),%rdx
  13:	4c 8b 4e 18          	mov    0x18(%rsi),%r9
  17:	4c 8b 56 20          	mov    0x20(%rsi),%r10
  1b:	48 8b 00             	mov    (%rax),%rax
  1e:	48 2b 01             	sub    (%rcx),%rax
  21:	48 8b 0a             	mov    (%rdx),%rcx
  24:	4c 8b 42 08          	mov    0x8(%rdx),%r8
  28:	c5 fc 10 46 28       	vmovups 0x28(%rsi),%ymm0
  2d:	c5 fc 10 4e 38       	vmovups 0x38(%rsi),%ymm1
  32:	c5 fc 11 4c 24 30    	vmovups %ymm1,0x30(%rsp)
  38:	c5 fc 11 44 24 20    	vmovups %ymm0,0x20(%rsp)
  3e:	4c 8d 5c 24 20       	lea    0x20(%rsp),%r11
  43:	48 89 e7             	mov    %rsp,%rdi
  46:	48 89 c6             	mov    %rax,%rsi
  49:	ba 01 00 00 00       	mov    $0x1,%edx
  4e:	41 53                	push   %r11
  50:	41 52                	push   %r10
  52:	c5 f8 77             	vzeroupper 
  55:	e8 00 00 00 00       	callq  5a <_ZN3std9panicking3try17h1902ec4017e7b9f3E+0x5a>
  5a:	48 83 c4 10          	add    $0x10,%rsp
  5e:	c5 f8 28 04 24       	vmovaps (%rsp),%xmm0
  63:	48 8b 44 24 10       	mov    0x10(%rsp),%rax
  68:	c5 f8 11 43 08       	vmovups %xmm0,0x8(%rbx)
  6d:	48 89 43 18          	mov    %rax,0x18(%rbx)
  71:	31 c0                	xor    %eax,%eax
  73:	48 89 03             	mov    %rax,(%rbx)
  76:	48 89 d8             	mov    %rbx,%rax
  79:	48 83 c4 50          	add    $0x50,%rsp
  7d:	5b                   	pop    %rbx
  7e:	c3                   	retq   
  7f:	48 89 c7             	mov    %rax,%rdi
  82:	ff 15 00 00 00 00    	callq  *0x0(%rip)        # 88 <_ZN3std9panicking3try17h1902ec4017e7b9f3E+0x88>
  88:	48 89 43 08          	mov    %rax,0x8(%rbx)
  8c:	48 89 53 10          	mov    %rdx,0x10(%rbx)
  90:	b8 01 00 00 00       	mov    $0x1,%eax
  95:	eb dc                	jmp    73 <_ZN3std9panicking3try17h1902ec4017e7b9f3E+0x73>

Disassembly of section .text._ZN3std9panicking3try17h19f5da0c6e790b36E:

0000000000000000 <_ZN3std9panicking3try17h19f5da0c6e790b36E>:
   0:	48 83 ec 28          	sub    $0x28,%rsp
   4:	48 8b 07             	mov    (%rdi),%rax
   7:	48 8b 4f 08          	mov    0x8(%rdi),%rcx
   b:	48 8b 77 10          	mov    0x10(%rdi),%rsi
   f:	4c 8b 4f 40          	mov    0x40(%rdi),%r9
  13:	48 8b 00             	mov    (%rax),%rax
  16:	48 2b 01             	sub    (%rcx),%rax
  19:	48 8b 16             	mov    (%rsi),%rdx
  1c:	48 8b 4e 08          	mov    0x8(%rsi),%rcx
  20:	48 8b 77 38          	mov    0x38(%rdi),%rsi
  24:	48 89 74 24 20       	mov    %rsi,0x20(%rsp)
  29:	c5 fc 10 47 18       	vmovups 0x18(%rdi),%ymm0
  2e:	c5 fc 11 04 24       	vmovups %ymm0,(%rsp)
  33:	49 89 e0             	mov    %rsp,%r8
  36:	48 89 c7             	mov    %rax,%rdi
  39:	be 01 00 00 00       	mov    $0x1,%esi
  3e:	c5 f8 77             	vzeroupper 
  41:	e8 00 00 00 00       	callq  46 <_ZN3std9panicking3try17h19f5da0c6e790b36E+0x46>
  46:	31 c0                	xor    %eax,%eax
  48:	48 83 c4 28          	add    $0x28,%rsp
  4c:	c3                   	retq   
  4d:	48 89 c7             	mov    %rax,%rdi
  50:	ff 15 00 00 00 00    	callq  *0x0(%rip)        # 56 <_ZN3std9panicking3try17h19f5da0c6e790b36E+0x56>
  56:	48 83 c4 28          	add    $0x28,%rsp
  5a:	c3                   	retq   

Disassembly of section .text._ZN3std9panicking3try17h26d05f9b5563b69fE:

0000000000000000 <_ZN3std9panicking3try17h26d05f9b5563b69fE>:
   0:	41 56                	push   %r14
   2:	53                   	push   %rbx
   3:	48 83 ec 28          	sub    $0x28,%rsp
   7:	49 89 fe             	mov    %rdi,%r14
   a:	48 8b 0e             	mov    (%rsi),%rcx
   d:	48 8b 5e 08          	mov    0x8(%rsi),%rbx
  11:	4c 8b 46 10          	mov    0x10(%rsi),%r8
  15:	4c 8b 4e 18          	mov    0x18(%rsi),%r9
  19:	31 c0                	xor    %eax,%eax
  1b:	80 7e 38 00          	cmpb   $0x0,0x38(%rsi)
  1f:	0f 95 c0             	setne  %al
  22:	48 8b 39             	mov    (%rcx),%rdi
  25:	48 8b 13             	mov    (%rbx),%rdx
  28:	48 8b 4b 08          	mov    0x8(%rbx),%rcx
  2c:	48 8b 5e 30          	mov    0x30(%rsi),%rbx
  30:	48 89 5c 24 20       	mov    %rbx,0x20(%rsp)
  35:	c5 f8 10 46 20       	vmovups 0x20(%rsi),%xmm0
  3a:	c5 f8 29 44 24 10    	vmovaps %xmm0,0x10(%rsp)
  40:	48 8d 74 24 10       	lea    0x10(%rsp),%rsi
  45:	48 89 34 24          	mov    %rsi,(%rsp)
  49:	89 c6                	mov    %eax,%esi
  4b:	e8 00 00 00 00       	callq  50 <_ZN3std9panicking3try17h26d05f9b5563b69fE+0x50>
  50:	49 89 46 08          	mov    %rax,0x8(%r14)
  54:	49 89 56 10          	mov    %rdx,0x10(%r14)
  58:	31 c0                	xor    %eax,%eax
  5a:	49 89 06             	mov    %rax,(%r14)
  5d:	4c 89 f0             	mov    %r14,%rax
  60:	48 83 c4 28          	add    $0x28,%rsp
  64:	5b                   	pop    %rbx
  65:	41 5e                	pop    %r14
  67:	c3                   	retq   
  68:	48 89 c7             	mov    %rax,%rdi
  6b:	ff 15 00 00 00 00    	callq  *0x0(%rip)        # 71 <_ZN3std9panicking3try17h26d05f9b5563b69fE+0x71>
  71:	49 89 46 08          	mov    %rax,0x8(%r14)
  75:	49 89 56 10          	mov    %rdx,0x10(%r14)
  79:	b8 01 00 00 00       	mov    $0x1,%eax
  7e:	eb da                	jmp    5a <_ZN3std9panicking3try17h26d05f9b5563b69fE+0x5a>

Disassembly of section .text._ZN3std9panicking3try17h6608d856419e5e16E:

0000000000000000 <_ZN3std9panicking3try17h6608d856419e5e16E>:
   0:	53                   	push   %rbx
   1:	48 81 ec 80 01 00 00 	sub    $0x180,%rsp
   8:	48 89 fb             	mov    %rdi,%rbx
   b:	c5 f8 10 06          	vmovups (%rsi),%xmm0
   f:	c5 fc 10 8e 88 00 00 	vmovups 0x88(%rsi),%ymm1
  16:	00 
  17:	c5 fc 11 8c 24 a8 00 	vmovups %ymm1,0xa8(%rsp)
  1e:	00 00 
  20:	c5 fc 10 4e 70       	vmovups 0x70(%rsi),%ymm1
  25:	c5 fc 11 8c 24 90 00 	vmovups %ymm1,0x90(%rsp)
  2c:	00 00 
  2e:	c5 fc 10 4e 50       	vmovups 0x50(%rsi),%ymm1
  33:	c5 fc 11 4c 24 70    	vmovups %ymm1,0x70(%rsp)
  39:	c5 fc 10 4e 30       	vmovups 0x30(%rsi),%ymm1
  3e:	c5 fc 11 4c 24 50    	vmovups %ymm1,0x50(%rsp)
  44:	c5 fc 10 4e 10       	vmovups 0x10(%rsi),%ymm1
  49:	c5 fc 11 4c 24 30    	vmovups %ymm1,0x30(%rsp)
  4f:	c5 f8 29 84 24 d0 00 	vmovaps %xmm0,0xd0(%rsp)
  56:	00 00 
  58:	c5 fc 10 46 10       	vmovups 0x10(%rsi),%ymm0
  5d:	c5 fc 10 4e 30       	vmovups 0x30(%rsi),%ymm1
  62:	c5 fc 10 56 50       	vmovups 0x50(%rsi),%ymm2
  67:	c5 fc 10 5e 70       	vmovups 0x70(%rsi),%ymm3
  6c:	c5 fc 11 84 24 e0 00 	vmovups %ymm0,0xe0(%rsp)
  73:	00 00 
  75:	c5 fc 11 8c 24 00 01 	vmovups %ymm1,0x100(%rsp)
  7c:	00 00 
  7e:	c5 fc 11 94 24 20 01 	vmovups %ymm2,0x120(%rsp)
  85:	00 00 
  87:	c5 fc 11 9c 24 40 01 	vmovups %ymm3,0x140(%rsp)
  8e:	00 00 
  90:	c5 fc 10 86 88 00 00 	vmovups 0x88(%rsi),%ymm0
  97:	00 
  98:	c5 fc 11 84 24 58 01 	vmovups %ymm0,0x158(%rsp)
  9f:	00 00 
  a1:	48 89 e7             	mov    %rsp,%rdi
  a4:	48 8d b4 24 d0 00 00 	lea    0xd0(%rsp),%rsi
  ab:	00 
  ac:	c5 f8 77             	vzeroupper 
  af:	e8 00 00 00 00       	callq  b4 <_ZN3std9panicking3try17h6608d856419e5e16E+0xb4>
  b4:	c5 f8 28 04 24       	vmovaps (%rsp),%xmm0
  b9:	c5 fc 10 4c 24 10    	vmovups 0x10(%rsp),%ymm1
  bf:	c5 fc 11 4c 24 30    	vmovups %ymm1,0x30(%rsp)
  c5:	c5 f8 11 43 08       	vmovups %xmm0,0x8(%rbx)
  ca:	c5 fc 10 44 24 30    	vmovups 0x30(%rsp),%ymm0
  d0:	c5 fc 11 43 18       	vmovups %ymm0,0x18(%rbx)
  d5:	31 c0                	xor    %eax,%eax
  d7:	48 89 03             	mov    %rax,(%rbx)
  da:	48 89 d8             	mov    %rbx,%rax
  dd:	48 81 c4 80 01 00 00 	add    $0x180,%rsp
  e4:	5b                   	pop    %rbx
  e5:	c5 f8 77             	vzeroupper 
  e8:	c3                   	retq   
  e9:	48 89 c7             	mov    %rax,%rdi
  ec:	ff 15 00 00 00 00    	callq  *0x0(%rip)        # f2 <_ZN3std9panicking3try17h6608d856419e5e16E+0xf2>
  f2:	48 89 43 08          	mov    %rax,0x8(%rbx)
  f6:	48 89 53 10          	mov    %rdx,0x10(%rbx)
  fa:	b8 01 00 00 00       	mov    $0x1,%eax
  ff:	eb d6                	jmp    d7 <_ZN3std9panicking3try17h6608d856419e5e16E+0xd7>

Disassembly of section .text._ZN3std9panicking3try17h660f7bb0a1422746E:

0000000000000000 <_ZN3std9panicking3try17h660f7bb0a1422746E>:
   0:	48 83 ec 28          	sub    $0x28,%rsp
   4:	48 8b 07             	mov    (%rdi),%rax
   7:	48 8b 4f 08          	mov    0x8(%rdi),%rcx
   b:	4c 8b 4f 38          	mov    0x38(%rdi),%r9
   f:	31 f6                	xor    %esi,%esi
  11:	80 7f 40 00          	cmpb   $0x0,0x40(%rdi)
  15:	40 0f 95 c6          	setne  %sil
  19:	4c 8b 10             	mov    (%rax),%r10
  1c:	48 8b 11             	mov    (%rcx),%rdx
  1f:	48 8b 49 08          	mov    0x8(%rcx),%rcx
  23:	48 8b 47 30          	mov    0x30(%rdi),%rax
  27:	48 89 44 24 20       	mov    %rax,0x20(%rsp)
  2c:	c5 fc 10 47 10       	vmovups 0x10(%rdi),%ymm0
  31:	c5 fc 11 04 24       	vmovups %ymm0,(%rsp)
  36:	49 89 e0             	mov    %rsp,%r8
  39:	4c 89 d7             	mov    %r10,%rdi
  3c:	c5 f8 77             	vzeroupper 
  3f:	e8 00 00 00 00       	callq  44 <_ZN3std9panicking3try17h660f7bb0a1422746E+0x44>
  44:	31 c0                	xor    %eax,%eax
  46:	48 83 c4 28          	add    $0x28,%rsp
  4a:	c3                   	retq   
  4b:	48 89 c7             	mov    %rax,%rdi
  4e:	ff 15 00 00 00 00    	callq  *0x0(%rip)        # 54 <_ZN3std9panicking3try17h660f7bb0a1422746E+0x54>
  54:	48 83 c4 28          	add    $0x28,%rsp
  58:	c3                   	retq   

Disassembly of section .text._ZN3std9panicking3try17h6872fff961c4548eE:

0000000000000000 <_ZN3std9panicking3try17h6872fff961c4548eE>:
   0:	48 81 ec 88 00 00 00 	sub    $0x88,%rsp
   7:	c5 f8 10 07          	vmovups (%rdi),%xmm0
   b:	c5 f8 29 04 24       	vmovaps %xmm0,(%rsp)
  10:	c5 fc 10 47 10       	vmovups 0x10(%rdi),%ymm0
  15:	c5 fc 10 4f 30       	vmovups 0x30(%rdi),%ymm1
  1a:	c5 fc 10 57 50       	vmovups 0x50(%rdi),%ymm2
  1f:	c5 fc 10 5f 68       	vmovups 0x68(%rdi),%ymm3
  24:	c5 fc 11 44 24 10    	vmovups %ymm0,0x10(%rsp)
  2a:	c5 fc 11 4c 24 30    	vmovups %ymm1,0x30(%rsp)
  30:	c5 fc 11 54 24 50    	vmovups %ymm2,0x50(%rsp)
  36:	c5 fc 11 5c 24 68    	vmovups %ymm3,0x68(%rsp)
  3c:	48 89 e7             	mov    %rsp,%rdi
  3f:	c5 f8 77             	vzeroupper 
  42:	e8 00 00 00 00       	callq  47 <_ZN3std9panicking3try17h6872fff961c4548eE+0x47>
  47:	31 c0                	xor    %eax,%eax
  49:	48 81 c4 88 00 00 00 	add    $0x88,%rsp
  50:	c3                   	retq   
  51:	48 89 c7             	mov    %rax,%rdi
  54:	ff 15 00 00 00 00    	callq  *0x0(%rip)        # 5a <_ZN3std9panicking3try17h6872fff961c4548eE+0x5a>
  5a:	48 81 c4 88 00 00 00 	add    $0x88,%rsp
  61:	c3                   	retq   

Disassembly of section .text._ZN3std9panicking3try17h9b41f6c4f09a56abE:

0000000000000000 <_ZN3std9panicking3try17h9b41f6c4f09a56abE>:
   0:	53                   	push   %rbx
   1:	48 83 ec 50          	sub    $0x50,%rsp
   5:	48 89 fb             	mov    %rdi,%rbx
   8:	48 8b 06             	mov    (%rsi),%rax
   b:	48 8b 7e 08          	mov    0x8(%rsi),%rdi
   f:	4c 8b 4e 10          	mov    0x10(%rsi),%r9
  13:	4c 8b 56 18          	mov    0x18(%rsi),%r10
  17:	31 d2                	xor    %edx,%edx
  19:	80 7e 50 00          	cmpb   $0x0,0x50(%rsi)
  1d:	0f 95 c2             	setne  %dl
  20:	48 8b 00             	mov    (%rax),%rax
  23:	48 8b 0f             	mov    (%rdi),%rcx
  26:	4c 8b 47 08          	mov    0x8(%rdi),%r8
  2a:	c5 fc 10 46 20       	vmovups 0x20(%rsi),%ymm0
  2f:	c5 fc 10 4e 30       	vmovups 0x30(%rsi),%ymm1
  34:	c5 fc 11 4c 24 30    	vmovups %ymm1,0x30(%rsp)
  3a:	c5 fc 11 44 24 20    	vmovups %ymm0,0x20(%rsp)
  40:	4c 8d 5c 24 20       	lea    0x20(%rsp),%r11
  45:	48 89 e7             	mov    %rsp,%rdi
  48:	48 89 c6             	mov    %rax,%rsi
  4b:	41 53                	push   %r11
  4d:	41 52                	push   %r10
  4f:	c5 f8 77             	vzeroupper 
  52:	e8 00 00 00 00       	callq  57 <_ZN3std9panicking3try17h9b41f6c4f09a56abE+0x57>
  57:	48 83 c4 10          	add    $0x10,%rsp
  5b:	c5 f8 28 04 24       	vmovaps (%rsp),%xmm0
  60:	48 8b 44 24 10       	mov    0x10(%rsp),%rax
  65:	c5 f8 11 43 08       	vmovups %xmm0,0x8(%rbx)
  6a:	48 89 43 18          	mov    %rax,0x18(%rbx)
  6e:	31 c0                	xor    %eax,%eax
  70:	48 89 03             	mov    %rax,(%rbx)
  73:	48 89 d8             	mov    %rbx,%rax
  76:	48 83 c4 50          	add    $0x50,%rsp
  7a:	5b                   	pop    %rbx
  7b:	c3                   	retq   
  7c:	48 89 c7             	mov    %rax,%rdi
  7f:	ff 15 00 00 00 00    	callq  *0x0(%rip)        # 85 <_ZN3std9panicking3try17h9b41f6c4f09a56abE+0x85>
  85:	48 89 43 08          	mov    %rax,0x8(%rbx)
  89:	48 89 53 10          	mov    %rdx,0x10(%rbx)
  8d:	b8 01 00 00 00       	mov    $0x1,%eax
  92:	eb dc                	jmp    70 <_ZN3std9panicking3try17h9b41f6c4f09a56abE+0x70>

Disassembly of section .text._ZN3std9panicking3try17hb03081dec74b38d0E:

0000000000000000 <_ZN3std9panicking3try17hb03081dec74b38d0E>:
   0:	41 56                	push   %r14
   2:	53                   	push   %rbx
   3:	48 83 ec 28          	sub    $0x28,%rsp
   7:	49 89 fe             	mov    %rdi,%r14
   a:	48 8b 06             	mov    (%rsi),%rax
   d:	48 8b 4e 08          	mov    0x8(%rsi),%rcx
  11:	48 8b 5e 10          	mov    0x10(%rsi),%rbx
  15:	4c 8b 46 18          	mov    0x18(%rsi),%r8
  19:	4c 8b 4e 20          	mov    0x20(%rsi),%r9
  1d:	48 8b 38             	mov    (%rax),%rdi
  20:	48 2b 39             	sub    (%rcx),%rdi
  23:	48 8b 13             	mov    (%rbx),%rdx
  26:	48 8b 4b 08          	mov    0x8(%rbx),%rcx
  2a:	48 8b 46 38          	mov    0x38(%rsi),%rax
  2e:	48 89 44 24 20       	mov    %rax,0x20(%rsp)
  33:	c5 f8 10 46 28       	vmovups 0x28(%rsi),%xmm0
  38:	c5 f8 29 44 24 10    	vmovaps %xmm0,0x10(%rsp)
  3e:	48 8d 44 24 10       	lea    0x10(%rsp),%rax
  43:	48 89 04 24          	mov    %rax,(%rsp)
  47:	be 01 00 00 00       	mov    $0x1,%esi
  4c:	e8 00 00 00 00       	callq  51 <_ZN3std9panicking3try17hb03081dec74b38d0E+0x51>
  51:	49 89 46 08          	mov    %rax,0x8(%r14)
  55:	49 89 56 10          	mov    %rdx,0x10(%r14)
  59:	31 c0                	xor    %eax,%eax
  5b:	49 89 06             	mov    %rax,(%r14)
  5e:	4c 89 f0             	mov    %r14,%rax
  61:	48 83 c4 28          	add    $0x28,%rsp
  65:	5b                   	pop    %rbx
  66:	41 5e                	pop    %r14
  68:	c3                   	retq   
  69:	48 89 c7             	mov    %rax,%rdi
  6c:	ff 15 00 00 00 00    	callq  *0x0(%rip)        # 72 <_ZN3std9panicking3try17hb03081dec74b38d0E+0x72>
  72:	49 89 46 08          	mov    %rax,0x8(%r14)
  76:	49 89 56 10          	mov    %rdx,0x10(%r14)
  7a:	b8 01 00 00 00       	mov    $0x1,%eax
  7f:	eb da                	jmp    5b <_ZN3std9panicking3try17hb03081dec74b38d0E+0x5b>

Disassembly of section .text._ZN3std9panicking3try17hf033ef4b2e6f2107E:

0000000000000000 <_ZN3std9panicking3try17hf033ef4b2e6f2107E>:
   0:	53                   	push   %rbx
   1:	48 81 ec 10 01 00 00 	sub    $0x110,%rsp
   8:	48 89 fb             	mov    %rdi,%rbx
   b:	c5 f8 10 06          	vmovups (%rsi),%xmm0
   f:	48 8b 46 70          	mov    0x70(%rsi),%rax
  13:	48 89 84 24 80 00 00 	mov    %rax,0x80(%rsp)
  1a:	00 
  1b:	c5 fc 10 4e 50       	vmovups 0x50(%rsi),%ymm1
  20:	c5 fc 11 4c 24 60    	vmovups %ymm1,0x60(%rsp)
  26:	c5 fc 10 4e 30       	vmovups 0x30(%rsi),%ymm1
  2b:	c5 fc 11 4c 24 40    	vmovups %ymm1,0x40(%rsp)
  31:	c5 fc 10 4e 10       	vmovups 0x10(%rsi),%ymm1
  36:	c5 fc 11 4c 24 20    	vmovups %ymm1,0x20(%rsp)
  3c:	c5 f8 29 84 24 90 00 	vmovaps %xmm0,0x90(%rsp)
  43:	00 00 
  45:	c5 fc 10 46 10       	vmovups 0x10(%rsi),%ymm0
  4a:	c5 fc 10 4e 30       	vmovups 0x30(%rsi),%ymm1
  4f:	c5 fc 10 56 50       	vmovups 0x50(%rsi),%ymm2
  54:	c5 fc 11 84 24 a0 00 	vmovups %ymm0,0xa0(%rsp)
  5b:	00 00 
  5d:	c5 fc 11 8c 24 c0 00 	vmovups %ymm1,0xc0(%rsp)
  64:	00 00 
  66:	c5 fc 11 94 24 e0 00 	vmovups %ymm2,0xe0(%rsp)
  6d:	00 00 
  6f:	48 8b 46 70          	mov    0x70(%rsi),%rax
  73:	48 89 84 24 00 01 00 	mov    %rax,0x100(%rsp)
  7a:	00 
  7b:	48 89 e7             	mov    %rsp,%rdi
  7e:	48 8d b4 24 90 00 00 	lea    0x90(%rsp),%rsi
  85:	00 
  86:	c5 f8 77             	vzeroupper 
  89:	e8 00 00 00 00       	callq  8e <_ZN3std9panicking3try17hf033ef4b2e6f2107E+0x8e>
  8e:	c5 f8 28 04 24       	vmovaps (%rsp),%xmm0
  93:	c5 f8 28 4c 24 10    	vmovaps 0x10(%rsp),%xmm1
  99:	c5 f8 29 4c 24 20    	vmovaps %xmm1,0x20(%rsp)
  9f:	c5 f8 11 43 08       	vmovups %xmm0,0x8(%rbx)
  a4:	c5 f8 28 44 24 20    	vmovaps 0x20(%rsp),%xmm0
  aa:	c5 f8 11 43 18       	vmovups %xmm0,0x18(%rbx)
  af:	31 c0                	xor    %eax,%eax
  b1:	48 89 03             	mov    %rax,(%rbx)
  b4:	48 89 d8             	mov    %rbx,%rax
  b7:	48 81 c4 10 01 00 00 	add    $0x110,%rsp
  be:	5b                   	pop    %rbx
  bf:	c3                   	retq   
  c0:	48 89 c7             	mov    %rax,%rdi
  c3:	ff 15 00 00 00 00    	callq  *0x0(%rip)        # c9 <_ZN3std9panicking3try17hf033ef4b2e6f2107E+0xc9>
  c9:	48 89 43 08          	mov    %rax,0x8(%rbx)
  cd:	48 89 53 10          	mov    %rdx,0x10(%rbx)
  d1:	b8 01 00 00 00       	mov    $0x1,%eax
  d6:	eb d9                	jmp    b1 <_ZN3std9panicking3try17hf033ef4b2e6f2107E+0xb1>

Disassembly of section .text._ZN4core3ptr13drop_in_place17h12543dcd6c85ebc0E:

0000000000000000 <_ZN4core3ptr13drop_in_place17h12543dcd6c85ebc0E>:
   0:	c3                   	retq   

Disassembly of section .text._ZN91_$LT$std..panicking..begin_panic..PanicPayload$LT$A$GT$$u20$as$u20$core..panic..BoxMeUp$GT$3get17h49fd664fa79fa168E:

0000000000000000 <_ZN91_$LT$std..panicking..begin_panic..PanicPayload$LT$A$GT$$u20$as$u20$core..panic..BoxMeUp$GT$3get17h49fd664fa79fa168E>:
   0:	50                   	push   %rax
   1:	48 83 3f 00          	cmpq   $0x0,(%rdi)
   5:	74 0c                	je     13 <_ZN91_$LT$std..panicking..begin_panic..PanicPayload$LT$A$GT$$u20$as$u20$core..panic..BoxMeUp$GT$3get17h49fd664fa79fa168E+0x13>
   7:	48 89 f8             	mov    %rdi,%rax
   a:	48 8d 15 00 00 00 00 	lea    0x0(%rip),%rdx        # 11 <_ZN91_$LT$std..panicking..begin_panic..PanicPayload$LT$A$GT$$u20$as$u20$core..panic..BoxMeUp$GT$3get17h49fd664fa79fa168E+0x11>
  11:	59                   	pop    %rcx
  12:	c3                   	retq   
  13:	ff 15 00 00 00 00    	callq  *0x0(%rip)        # 19 <_ZN91_$LT$std..panicking..begin_panic..PanicPayload$LT$A$GT$$u20$as$u20$core..panic..BoxMeUp$GT$3get17h49fd664fa79fa168E+0x19>
  19:	0f 0b                	ud2    

Disassembly of section .text._ZN91_$LT$std..panicking..begin_panic..PanicPayload$LT$A$GT$$u20$as$u20$core..panic..BoxMeUp$GT$8take_box17heb892c25f1af6f6bE:

0000000000000000 <_ZN91_$LT$std..panicking..begin_panic..PanicPayload$LT$A$GT$$u20$as$u20$core..panic..BoxMeUp$GT$8take_box17heb892c25f1af6f6bE>:
   0:	41 56                	push   %r14
   2:	53                   	push   %rbx
   3:	50                   	push   %rax
   4:	48 8b 1f             	mov    (%rdi),%rbx
   7:	4c 8b 77 08          	mov    0x8(%rdi),%r14
   b:	48 c7 07 00 00 00 00 	movq   $0x0,(%rdi)
  12:	48 85 db             	test   %rbx,%rbx
  15:	74 2b                	je     42 <_ZN91_$LT$std..panicking..begin_panic..PanicPayload$LT$A$GT$$u20$as$u20$core..panic..BoxMeUp$GT$8take_box17heb892c25f1af6f6bE+0x42>
  17:	bf 10 00 00 00       	mov    $0x10,%edi
  1c:	be 08 00 00 00       	mov    $0x8,%esi
  21:	ff 15 00 00 00 00    	callq  *0x0(%rip)        # 27 <_ZN91_$LT$std..panicking..begin_panic..PanicPayload$LT$A$GT$$u20$as$u20$core..panic..BoxMeUp$GT$8take_box17heb892c25f1af6f6bE+0x27>
  27:	48 85 c0             	test   %rax,%rax
  2a:	74 1e                	je     4a <_ZN91_$LT$std..panicking..begin_panic..PanicPayload$LT$A$GT$$u20$as$u20$core..panic..BoxMeUp$GT$8take_box17heb892c25f1af6f6bE+0x4a>
  2c:	48 89 18             	mov    %rbx,(%rax)
  2f:	4c 89 70 08          	mov    %r14,0x8(%rax)
  33:	48 8d 15 00 00 00 00 	lea    0x0(%rip),%rdx        # 3a <_ZN91_$LT$std..panicking..begin_panic..PanicPayload$LT$A$GT$$u20$as$u20$core..panic..BoxMeUp$GT$8take_box17heb892c25f1af6f6bE+0x3a>
  3a:	48 83 c4 08          	add    $0x8,%rsp
  3e:	5b                   	pop    %rbx
  3f:	41 5e                	pop    %r14
  41:	c3                   	retq   
  42:	ff 15 00 00 00 00    	callq  *0x0(%rip)        # 48 <_ZN91_$LT$std..panicking..begin_panic..PanicPayload$LT$A$GT$$u20$as$u20$core..panic..BoxMeUp$GT$8take_box17heb892c25f1af6f6bE+0x48>
  48:	0f 0b                	ud2    
  4a:	bf 10 00 00 00       	mov    $0x10,%edi
  4f:	be 08 00 00 00       	mov    $0x8,%esi
  54:	ff 15 00 00 00 00    	callq  *0x0(%rip)        # 5a <_ZN91_$LT$std..panicking..begin_panic..PanicPayload$LT$A$GT$$u20$as$u20$core..panic..BoxMeUp$GT$8take_box17heb892c25f1af6f6bE+0x5a>
  5a:	0f 0b                	ud2    

raidpir-af98855fa7dd616c.raidpir.b7a4ri6o-cgu.12.rcgu.o:     file format elf64-x86-64


Disassembly of section .text._ZN103_$LT$core..iter..adapters..TakeWhile$LT$I$C$P$GT$$u20$as$u20$core..iter..traits..iterator..Iterator$GT$8try_fold5check17h1d9e94ef8a2c8007E:

0000000000000000 <_ZN103_$LT$core..iter..adapters..TakeWhile$LT$I$C$P$GT$$u20$as$u20$core..iter..traits..iterator..Iterator$GT$8try_fold5check17h1d9e94ef8a2c8007E>:
   0:	48 89 f8             	mov    %rdi,%rax
   3:	48 89 17             	mov    %rdx,(%rdi)
   6:	48 89 4f 08          	mov    %rcx,0x8(%rdi)
   a:	48 89 77 10          	mov    %rsi,0x10(%rdi)
   e:	c3                   	retq   

Disassembly of section .text._ZN15crossbeam_epoch8deferred8Deferred3new17hb779f6ee0f257429E:

0000000000000000 <_ZN15crossbeam_epoch8deferred8Deferred3new17hb779f6ee0f257429E>:
   0:	48 89 f8             	mov    %rdi,%rax
   3:	48 8d 0d 00 00 00 00 	lea    0x0(%rip),%rcx        # a <_ZN15crossbeam_epoch8deferred8Deferred3new17hb779f6ee0f257429E+0xa>
   a:	48 89 0f             	mov    %rcx,(%rdi)
   d:	48 89 77 08          	mov    %rsi,0x8(%rdi)
  11:	c3                   	retq   

Disassembly of section .text._ZN15crossbeam_epoch8deferred8Deferred3new4call17hd2fca0cfee386b44E.llvm.17930553233675978543:

0000000000000000 <_ZN15crossbeam_epoch8deferred8Deferred3new4call17hd2fca0cfee386b44E.llvm.17930553233675978543>:
   0:	53                   	push   %rbx
   1:	48 8b 1f             	mov    (%rdi),%rbx
   4:	48 83 e3 f8          	and    $0xfffffffffffffff8,%rbx
   8:	48 8b 73 08          	mov    0x8(%rbx),%rsi
   c:	48 85 f6             	test   %rsi,%rsi
   f:	74 14                	je     25 <_ZN15crossbeam_epoch8deferred8Deferred3new4call17hd2fca0cfee386b44E.llvm.17930553233675978543+0x25>
  11:	48 c1 e6 04          	shl    $0x4,%rsi
  15:	74 0e                	je     25 <_ZN15crossbeam_epoch8deferred8Deferred3new4call17hd2fca0cfee386b44E.llvm.17930553233675978543+0x25>
  17:	48 8b 3b             	mov    (%rbx),%rdi
  1a:	ba 08 00 00 00       	mov    $0x8,%edx
  1f:	ff 15 00 00 00 00    	callq  *0x0(%rip)        # 25 <_ZN15crossbeam_epoch8deferred8Deferred3new4call17hd2fca0cfee386b44E.llvm.17930553233675978543+0x25>
  25:	be 10 00 00 00       	mov    $0x10,%esi
  2a:	ba 08 00 00 00       	mov    $0x8,%edx
  2f:	48 89 df             	mov    %rbx,%rdi
  32:	5b                   	pop    %rbx
  33:	ff 25 00 00 00 00    	jmpq   *0x0(%rip)        # 39 <GCC_except_table21+0x21>

Disassembly of section .text._ZN4core3ops8function5impls71_$LT$impl$u20$core..ops..function..FnMut$LT$A$GT$$u20$for$u20$$RF$F$GT$8call_mut17h19f54eb0ca0e88c5E:

0000000000000000 <_ZN4core3ops8function5impls71_$LT$impl$u20$core..ops..function..FnMut$LT$A$GT$$u20$for$u20$$RF$F$GT$8call_mut17h19f54eb0ca0e88c5E>:
   0:	48 8b 02             	mov    (%rdx),%rax
   3:	48 31 06             	xor    %rax,(%rsi)
   6:	c3                   	retq   

Disassembly of section .text._ZN4core3ptr13drop_in_place17h1a00ded7c8846526E:

0000000000000000 <_ZN4core3ptr13drop_in_place17h1a00ded7c8846526E>:
   0:	41 57                	push   %r15
   2:	41 56                	push   %r14
   4:	41 54                	push   %r12
   6:	53                   	push   %rbx
   7:	50                   	push   %rax
   8:	4c 8b 77 10          	mov    0x10(%rdi),%r14
   c:	b9 40 00 00 00       	mov    $0x40,%ecx
  11:	4c 89 f0             	mov    %r14,%rax
  14:	48 f7 e1             	mul    %rcx
  17:	70 48                	jo     61 <_ZN4core3ptr13drop_in_place17h1a00ded7c8846526E+0x61>
  19:	48 89 fb             	mov    %rdi,%rbx
  1c:	4c 8b 3f             	mov    (%rdi),%r15
  1f:	4c 8b 67 08          	mov    0x8(%rdi),%r12
  23:	41 83 e4 07          	and    $0x7,%r12d
  27:	4c 89 67 08          	mov    %r12,0x8(%rdi)
  2b:	4d 85 f6             	test   %r14,%r14
  2e:	74 1a                	je     4a <_ZN4core3ptr13drop_in_place17h1a00ded7c8846526E+0x4a>
  30:	4c 89 ff             	mov    %r15,%rdi
  33:	48 83 e7 f8          	and    $0xfffffffffffffff8,%rdi
  37:	4a 8d 34 f5 00 00 00 	lea    0x0(,%r14,8),%rsi
  3e:	00 
  3f:	ba 08 00 00 00       	mov    $0x8,%edx
  44:	ff 15 00 00 00 00    	callq  *0x0(%rip)        # 4a <_ZN4core3ptr13drop_in_place17h1a00ded7c8846526E+0x4a>
  4a:	4c 89 3b             	mov    %r15,(%rbx)
  4d:	4c 89 63 08          	mov    %r12,0x8(%rbx)
  51:	4c 89 73 10          	mov    %r14,0x10(%rbx)
  55:	48 83 c4 08          	add    $0x8,%rsp
  59:	5b                   	pop    %rbx
  5a:	41 5c                	pop    %r12
  5c:	41 5e                	pop    %r14
  5e:	41 5f                	pop    %r15
  60:	c3                   	retq   
  61:	48 8d 3d 00 00 00 00 	lea    0x0(%rip),%rdi        # 68 <_ZN4core3ptr13drop_in_place17h1a00ded7c8846526E+0x68>
  68:	48 8d 15 00 00 00 00 	lea    0x0(%rip),%rdx        # 6f <_ZN4core3ptr13drop_in_place17h1a00ded7c8846526E+0x6f>
  6f:	be 18 00 00 00       	mov    $0x18,%esi
  74:	ff 15 00 00 00 00    	callq  *0x0(%rip)        # 7a <_ZN4core3ptr13drop_in_place17h1a00ded7c8846526E+0x7a>
  7a:	0f 0b                	ud2    

Disassembly of section .text._ZN4core3ptr13drop_in_place17h26b93d7110730e8eE.llvm.17930553233675978543:

0000000000000000 <_ZN4core3ptr13drop_in_place17h26b93d7110730e8eE.llvm.17930553233675978543>:
   0:	e9 00 00 00 00       	jmpq   5 <.LCPI23_1+0x1>

Disassembly of section .text._ZN4core3ptr13drop_in_place17h8e6b8f26ee3bd574E:

0000000000000000 <_ZN4core3ptr13drop_in_place17h8e6b8f26ee3bd574E>:
   0:	48 8b 77 08          	mov    0x8(%rdi),%rsi
   4:	48 85 f6             	test   %rsi,%rsi
   7:	74 17                	je     20 <_ZN4core3ptr13drop_in_place17h8e6b8f26ee3bd574E+0x20>
   9:	48 c1 e6 03          	shl    $0x3,%rsi
   d:	48 85 f6             	test   %rsi,%rsi
  10:	74 0e                	je     20 <_ZN4core3ptr13drop_in_place17h8e6b8f26ee3bd574E+0x20>
  12:	48 8b 3f             	mov    (%rdi),%rdi
  15:	ba 08 00 00 00       	mov    $0x8,%edx
  1a:	ff 25 00 00 00 00    	jmpq   *0x0(%rip)        # 20 <_ZN4core3ptr13drop_in_place17h8e6b8f26ee3bd574E+0x20>
  20:	c3                   	retq   

Disassembly of section .text._ZN4core3ptr13drop_in_place17h9d99768312637042E:

0000000000000000 <_ZN4core3ptr13drop_in_place17h9d99768312637042E>:
   0:	48 89 37             	mov    %rsi,(%rdi)
   3:	c3                   	retq   

Disassembly of section .text._ZN4core3ptr13drop_in_place17hbe3f2d627268499dE:

0000000000000000 <_ZN4core3ptr13drop_in_place17hbe3f2d627268499dE>:
   0:	48 8b 47 08          	mov    0x8(%rdi),%rax
   4:	48 85 c0             	test   %rax,%rax
   7:	74 1b                	je     24 <_ZN4core3ptr13drop_in_place17hbe3f2d627268499dE+0x24>
   9:	48 c1 e0 03          	shl    $0x3,%rax
   d:	48 8d 34 40          	lea    (%rax,%rax,2),%rsi
  11:	48 85 f6             	test   %rsi,%rsi
  14:	74 0e                	je     24 <_ZN4core3ptr13drop_in_place17hbe3f2d627268499dE+0x24>
  16:	48 8b 3f             	mov    (%rdi),%rdi
  19:	ba 08 00 00 00       	mov    $0x8,%edx
  1e:	ff 25 00 00 00 00    	jmpq   *0x0(%rip)        # 24 <_ZN4core3ptr13drop_in_place17hbe3f2d627268499dE+0x24>
  24:	c3                   	retq   

Disassembly of section .text._ZN4core3ptr13drop_in_place17hc36bd6771c099825E:

0000000000000000 <_ZN4core3ptr13drop_in_place17hc36bd6771c099825E>:
   0:	55                   	push   %rbp
   1:	41 57                	push   %r15
   3:	41 56                	push   %r14
   5:	41 55                	push   %r13
   7:	41 54                	push   %r12
   9:	53                   	push   %rbx
   a:	50                   	push   %rax
   b:	48 89 3c 24          	mov    %rdi,(%rsp)
   f:	48 8b 47 10          	mov    0x10(%rdi),%rax
  13:	48 85 c0             	test   %rax,%rax
  16:	0f 84 81 00 00 00    	je     9d <_ZN4core3ptr13drop_in_place17hc36bd6771c099825E+0x9d>
  1c:	48 8b 0c 24          	mov    (%rsp),%rcx
  20:	4c 8b 21             	mov    (%rcx),%r12
  23:	48 8d 04 40          	lea    (%rax,%rax,2),%rax
  27:	4c 8d 2c c5 e8 ff ff 	lea    -0x18(,%rax,8),%r13
  2e:	ff 
  2f:	49 83 c4 18          	add    $0x18,%r12
  33:	41 bf 40 00 00 00    	mov    $0x40,%r15d
  39:	e9 1f 00 00 00       	jmpq   5d <_ZN4core3ptr13drop_in_place17hc36bd6771c099825E+0x5d>
  3e:	66 90                	xchg   %ax,%ax
  40:	4d 89 74 24 e8       	mov    %r14,-0x18(%r12)
  45:	49 89 6c 24 f0       	mov    %rbp,-0x10(%r12)
  4a:	49 89 5c 24 f8       	mov    %rbx,-0x8(%r12)
  4f:	49 83 c5 e8          	add    $0xffffffffffffffe8,%r13
  53:	49 83 c4 18          	add    $0x18,%r12
  57:	49 83 fd e8          	cmp    $0xffffffffffffffe8,%r13
  5b:	74 40                	je     9d <_ZN4core3ptr13drop_in_place17hc36bd6771c099825E+0x9d>
  5d:	49 8b 5c 24 f8       	mov    -0x8(%r12),%rbx
  62:	48 89 d8             	mov    %rbx,%rax
  65:	49 f7 e7             	mul    %r15
  68:	70 7c                	jo     e6 <_ZN4core3ptr13drop_in_place17hc36bd6771c099825E+0xe6>
  6a:	4d 8b 74 24 e8       	mov    -0x18(%r12),%r14
  6f:	49 8b 6c 24 f0       	mov    -0x10(%r12),%rbp
  74:	83 e5 07             	and    $0x7,%ebp
  77:	49 89 6c 24 f0       	mov    %rbp,-0x10(%r12)
  7c:	48 85 db             	test   %rbx,%rbx
  7f:	74 bf                	je     40 <_ZN4core3ptr13drop_in_place17hc36bd6771c099825E+0x40>
  81:	4c 89 f7             	mov    %r14,%rdi
  84:	48 83 e7 f8          	and    $0xfffffffffffffff8,%rdi
  88:	48 8d 34 dd 00 00 00 	lea    0x0(,%rbx,8),%rsi
  8f:	00 
  90:	ba 08 00 00 00       	mov    $0x8,%edx
  95:	ff 15 00 00 00 00    	callq  *0x0(%rip)        # 9b <_ZN4core3ptr13drop_in_place17hc36bd6771c099825E+0x9b>
  9b:	eb a3                	jmp    40 <_ZN4core3ptr13drop_in_place17hc36bd6771c099825E+0x40>
  9d:	48 8b 04 24          	mov    (%rsp),%rax
  a1:	48 8b 40 08          	mov    0x8(%rax),%rax
  a5:	48 85 c0             	test   %rax,%rax
  a8:	74 2d                	je     d7 <_ZN4core3ptr13drop_in_place17hc36bd6771c099825E+0xd7>
  aa:	48 c1 e0 03          	shl    $0x3,%rax
  ae:	48 8d 34 40          	lea    (%rax,%rax,2),%rsi
  b2:	48 85 f6             	test   %rsi,%rsi
  b5:	74 20                	je     d7 <_ZN4core3ptr13drop_in_place17hc36bd6771c099825E+0xd7>
  b7:	48 8b 04 24          	mov    (%rsp),%rax
  bb:	48 8b 38             	mov    (%rax),%rdi
  be:	ba 08 00 00 00       	mov    $0x8,%edx
  c3:	48 83 c4 08          	add    $0x8,%rsp
  c7:	5b                   	pop    %rbx
  c8:	41 5c                	pop    %r12
  ca:	41 5d                	pop    %r13
  cc:	41 5e                	pop    %r14
  ce:	41 5f                	pop    %r15
  d0:	5d                   	pop    %rbp
  d1:	ff 25 00 00 00 00    	jmpq   *0x0(%rip)        # d7 <_ZN4core3ptr13drop_in_place17hc36bd6771c099825E+0xd7>
  d7:	48 83 c4 08          	add    $0x8,%rsp
  db:	5b                   	pop    %rbx
  dc:	41 5c                	pop    %r12
  de:	41 5d                	pop    %r13
  e0:	41 5e                	pop    %r14
  e2:	41 5f                	pop    %r15
  e4:	5d                   	pop    %rbp
  e5:	c3                   	retq   
  e6:	48 8d 3d 00 00 00 00 	lea    0x0(%rip),%rdi        # ed <_ZN4core3ptr13drop_in_place17hc36bd6771c099825E+0xed>
  ed:	48 8d 15 00 00 00 00 	lea    0x0(%rip),%rdx        # f4 <_ZN4core3ptr13drop_in_place17hc36bd6771c099825E+0xf4>
  f4:	be 18 00 00 00       	mov    $0x18,%esi
  f9:	ff 15 00 00 00 00    	callq  *0x0(%rip)        # ff <_ZN4core3ptr13drop_in_place17hc36bd6771c099825E+0xff>
  ff:	0f 0b                	ud2    
 101:	49 89 c7             	mov    %rax,%r15
 104:	4d 85 ed             	test   %r13,%r13
 107:	74 12                	je     11b <_ZN4core3ptr13drop_in_place17hc36bd6771c099825E+0x11b>
 109:	4c 89 e7             	mov    %r12,%rdi
 10c:	e8 00 00 00 00       	callq  111 <_ZN4core3ptr13drop_in_place17hc36bd6771c099825E+0x111>
 111:	49 83 c4 18          	add    $0x18,%r12
 115:	49 83 c5 e8          	add    $0xffffffffffffffe8,%r13
 119:	75 ee                	jne    109 <_ZN4core3ptr13drop_in_place17hc36bd6771c099825E+0x109>
 11b:	48 8b 3c 24          	mov    (%rsp),%rdi
 11f:	e8 00 00 00 00       	callq  124 <_ZN4core3ptr13drop_in_place17hc36bd6771c099825E+0x124>
 124:	4c 89 ff             	mov    %r15,%rdi
 127:	e8 00 00 00 00       	callq  12c <_ZN4core3ptr13drop_in_place17hc36bd6771c099825E+0x12c>
 12c:	0f 0b                	ud2    
 12e:	49 89 c7             	mov    %rax,%r15
 131:	eb e8                	jmp    11b <_ZN4core3ptr13drop_in_place17hc36bd6771c099825E+0x11b>

Disassembly of section .text._ZN4core4iter8adapters16Map$LT$I$C$F$GT$3new17h41d5328696a3765cE:

0000000000000000 <_ZN4core4iter8adapters16Map$LT$I$C$F$GT$3new17h41d5328696a3765cE>:
   0:	48 89 f8             	mov    %rdi,%rax
   3:	48 89 37             	mov    %rsi,(%rdi)
   6:	48 89 57 08          	mov    %rdx,0x8(%rdi)
   a:	48 89 4f 10          	mov    %rcx,0x10(%rdi)
   e:	c3                   	retq   

Disassembly of section .text._ZN4core4iter8adapters16Map$LT$I$C$F$GT$3new17hb2ae57e76a98379aE:

0000000000000000 <_ZN4core4iter8adapters16Map$LT$I$C$F$GT$3new17hb2ae57e76a98379aE>:
   0:	48 89 f8             	mov    %rdi,%rax
   3:	48 8b 4e 10          	mov    0x10(%rsi),%rcx
   7:	48 89 4f 10          	mov    %rcx,0x10(%rdi)
   b:	c5 f8 10 06          	vmovups (%rsi),%xmm0
   f:	c5 f8 11 07          	vmovups %xmm0,(%rdi)
  13:	c3                   	retq   

Disassembly of section .text._ZN4core4iter8adapters22TakeWhile$LT$I$C$P$GT$3new17h4ad0659d1ca857d5E:

0000000000000000 <_ZN4core4iter8adapters22TakeWhile$LT$I$C$P$GT$3new17h4ad0659d1ca857d5E>:
   0:	48 89 f8             	mov    %rdi,%rax
   3:	48 8b 4e 10          	mov    0x10(%rsi),%rcx
   7:	48 89 4f 10          	mov    %rcx,0x10(%rdi)
   b:	c5 f8 10 06          	vmovups (%rsi),%xmm0
   f:	c5 f8 11 07          	vmovups %xmm0,(%rdi)
  13:	c6 47 20 00          	movb   $0x0,0x20(%rdi)
  17:	48 89 57 18          	mov    %rdx,0x18(%rdi)
  1b:	c3                   	retq   

Disassembly of section .text._ZN5alloc2rc11is_dangling17h3cda4c11050c0122E:

0000000000000000 <_ZN5alloc2rc11is_dangling17h3cda4c11050c0122E>:
   0:	48 83 ff ff          	cmp    $0xffffffffffffffff,%rdi
   4:	0f 94 c0             	sete   %al
   7:	c3                   	retq   

Disassembly of section .text._ZN5rayon4iter6extend11list_append17h11f7fd5616a48a11E:

0000000000000000 <_ZN5rayon4iter6extend11list_append17h11f7fd5616a48a11E>:
   0:	53                   	push   %rbx
   1:	48 83 ec 20          	sub    $0x20,%rsp
   5:	48 89 fb             	mov    %rdi,%rbx
   8:	48 8b 46 08          	mov    0x8(%rsi),%rax
   c:	48 85 c0             	test   %rax,%rax
   f:	74 31                	je     42 <_ZN5rayon4iter6extend11list_append17h11f7fd5616a48a11E+0x42>
  11:	48 8b 0a             	mov    (%rdx),%rcx
  14:	48 c7 02 00 00 00 00 	movq   $0x0,(%rdx)
  1b:	48 85 c9             	test   %rcx,%rcx
  1e:	74 56                	je     76 <_ZN5rayon4iter6extend11list_append17h11f7fd5616a48a11E+0x76>
  20:	48 89 08             	mov    %rcx,(%rax)
  23:	48 89 41 08          	mov    %rax,0x8(%rcx)
  27:	48 8b 42 08          	mov    0x8(%rdx),%rax
  2b:	48 89 46 08          	mov    %rax,0x8(%rsi)
  2f:	48 8b 42 10          	mov    0x10(%rdx),%rax
  33:	c5 f8 57 c0          	vxorps %xmm0,%xmm0,%xmm0
  37:	c5 f8 11 42 08       	vmovups %xmm0,0x8(%rdx)
  3c:	48 01 46 10          	add    %rax,0x10(%rsi)
  40:	eb 34                	jmp    76 <_ZN5rayon4iter6extend11list_append17h11f7fd5616a48a11E+0x76>
  42:	48 8b 46 10          	mov    0x10(%rsi),%rax
  46:	48 89 44 24 10       	mov    %rax,0x10(%rsp)
  4b:	c5 f8 10 06          	vmovups (%rsi),%xmm0
  4f:	c5 f8 29 04 24       	vmovaps %xmm0,(%rsp)
  54:	48 8b 42 10          	mov    0x10(%rdx),%rax
  58:	48 89 46 10          	mov    %rax,0x10(%rsi)
  5c:	c5 f8 10 02          	vmovups (%rdx),%xmm0
  60:	c5 f8 11 06          	vmovups %xmm0,(%rsi)
  64:	48 8b 44 24 10       	mov    0x10(%rsp),%rax
  69:	48 89 42 10          	mov    %rax,0x10(%rdx)
  6d:	c5 f8 28 04 24       	vmovaps (%rsp),%xmm0
  72:	c5 f8 11 02          	vmovups %xmm0,(%rdx)
  76:	48 8b 46 10          	mov    0x10(%rsi),%rax
  7a:	48 89 43 10          	mov    %rax,0x10(%rbx)
  7e:	48 8b 06             	mov    (%rsi),%rax
  81:	48 89 03             	mov    %rax,(%rbx)
  84:	48 8b 46 08          	mov    0x8(%rsi),%rax
  88:	48 89 43 08          	mov    %rax,0x8(%rbx)
  8c:	48 89 d7             	mov    %rdx,%rdi
  8f:	e8 00 00 00 00       	callq  94 <_ZN5rayon4iter6extend11list_append17h11f7fd5616a48a11E+0x94>
  94:	48 89 d8             	mov    %rbx,%rax
  97:	48 83 c4 20          	add    $0x20,%rsp
  9b:	5b                   	pop    %rbx
  9c:	c3                   	retq   

Disassembly of section .text._ZN5rayon4iter6extend3len17hae04ebcea48bcfafE:

0000000000000000 <_ZN5rayon4iter6extend3len17hae04ebcea48bcfafE>:
   0:	48 8b 4f 10          	mov    0x10(%rdi),%rcx
   4:	48 85 c9             	test   %rcx,%rcx
   7:	0f 84 26 00 00 00    	je     33 <_ZN5rayon4iter6extend3len17hae04ebcea48bcfafE+0x33>
   d:	48 8b 17             	mov    (%rdi),%rdx
  10:	31 c0                	xor    %eax,%eax
  12:	48 85 d2             	test   %rdx,%rdx
  15:	0f 84 17 00 00 00    	je     32 <_ZN5rayon4iter6extend3len17hae04ebcea48bcfafE+0x32>
  1b:	0f 1f 44 00 00       	nopl   0x0(%rax,%rax,1)
  20:	48 03 42 20          	add    0x20(%rdx),%rax
  24:	48 83 c1 ff          	add    $0xffffffffffffffff,%rcx
  28:	74 08                	je     32 <_ZN5rayon4iter6extend3len17hae04ebcea48bcfafE+0x32>
  2a:	48 8b 12             	mov    (%rdx),%rdx
  2d:	48 85 d2             	test   %rdx,%rdx
  30:	75 ee                	jne    20 <_ZN5rayon4iter6extend3len17hae04ebcea48bcfafE+0x20>
  32:	c3                   	retq   
  33:	31 c0                	xor    %eax,%eax
  35:	c3                   	retq   

Disassembly of section .text._ZN5rayon4iter6extend7as_list17h4e7e3655c2429f89E:

0000000000000000 <_ZN5rayon4iter6extend7as_list17h4e7e3655c2429f89E>:
   0:	53                   	push   %rbx
   1:	48 83 ec 20          	sub    $0x20,%rsp
   5:	48 89 fb             	mov    %rdi,%rbx
   8:	c5 f8 57 c0          	vxorps %xmm0,%xmm0,%xmm0
   c:	c5 f8 11 07          	vmovups %xmm0,(%rdi)
  10:	48 c7 47 10 00 00 00 	movq   $0x0,0x10(%rdi)
  17:	00 
  18:	48 8b 46 10          	mov    0x10(%rsi),%rax
  1c:	48 89 44 24 10       	mov    %rax,0x10(%rsp)
  21:	c5 f8 10 06          	vmovups (%rsi),%xmm0
  25:	c5 f8 29 04 24       	vmovaps %xmm0,(%rsp)
  2a:	bf 28 00 00 00       	mov    $0x28,%edi
  2f:	be 08 00 00 00       	mov    $0x8,%esi
  34:	ff 15 00 00 00 00    	callq  *0x0(%rip)        # 3a <_ZN5rayon4iter6extend7as_list17h4e7e3655c2429f89E+0x3a>
  3a:	48 85 c0             	test   %rax,%rax
  3d:	74 33                	je     72 <_ZN5rayon4iter6extend7as_list17h4e7e3655c2429f89E+0x72>
  3f:	48 8b 4c 24 10       	mov    0x10(%rsp),%rcx
  44:	48 89 48 20          	mov    %rcx,0x20(%rax)
  48:	c5 f8 28 04 24       	vmovaps (%rsp),%xmm0
  4d:	c5 f8 11 40 10       	vmovups %xmm0,0x10(%rax)
  52:	c5 f8 57 c0          	vxorps %xmm0,%xmm0,%xmm0
  56:	c5 f8 11 00          	vmovups %xmm0,(%rax)
  5a:	48 89 03             	mov    %rax,(%rbx)
  5d:	48 89 43 08          	mov    %rax,0x8(%rbx)
  61:	48 c7 43 10 01 00 00 	movq   $0x1,0x10(%rbx)
  68:	00 
  69:	48 89 d8             	mov    %rbx,%rax
  6c:	48 83 c4 20          	add    $0x20,%rsp
  70:	5b                   	pop    %rbx
  71:	c3                   	retq   
  72:	bf 28 00 00 00       	mov    $0x28,%edi
  77:	be 08 00 00 00       	mov    $0x8,%esi
  7c:	ff 15 00 00 00 00    	callq  *0x0(%rip)        # 82 <_ZN5rayon4iter6extend7as_list17h4e7e3655c2429f89E+0x82>
  82:	0f 0b                	ud2    

Disassembly of section .text._ZN5rayon4iter6extend7collect17h12efdf9512f2723cE:

0000000000000000 <_ZN5rayon4iter6extend7collect17h12efdf9512f2723cE>:
   0:	53                   	push   %rbx
   1:	48 81 ec c0 00 00 00 	sub    $0xc0,%rsp
   8:	48 89 fb             	mov    %rdi,%rbx
   b:	c5 fc 10 06          	vmovups (%rsi),%ymm0
   f:	c5 fc 11 84 24 a0 00 	vmovups %ymm0,0xa0(%rsp)
  16:	00 00 
  18:	c5 fc 11 44 24 60    	vmovups %ymm0,0x60(%rsp)
  1e:	c5 fc 10 0e          	vmovups (%rsi),%ymm1
  22:	c5 fc 11 8c 24 80 00 	vmovups %ymm1,0x80(%rsp)
  29:	00 00 
  2b:	c5 fc 11 44 24 40    	vmovups %ymm0,0x40(%rsp)
  31:	48 8d 44 24 50       	lea    0x50(%rsp),%rax
  36:	48 8b 74 24 40       	mov    0x40(%rsp),%rsi
  3b:	48 8b 54 24 48       	mov    0x48(%rsp),%rdx
  40:	48 8d 4c 24 08       	lea    0x8(%rsp),%rcx
  45:	48 89 4c 24 10       	mov    %rcx,0x10(%rsp)
  4a:	48 89 4c 24 18       	mov    %rcx,0x18(%rsp)
  4f:	48 8d 4c 24 60       	lea    0x60(%rsp),%rcx
  54:	48 89 4c 24 20       	mov    %rcx,0x20(%rsp)
  59:	48 8d 8c 24 80 00 00 	lea    0x80(%rsp),%rcx
  60:	00 
  61:	48 89 4c 24 28       	mov    %rcx,0x28(%rsp)
  66:	48 89 4c 24 30       	mov    %rcx,0x30(%rsp)
  6b:	48 89 44 24 38       	mov    %rax,0x38(%rsp)
  70:	48 8d 4c 24 10       	lea    0x10(%rsp),%rcx
  75:	c5 f8 77             	vzeroupper 
  78:	e8 00 00 00 00       	callq  7d <_ZN5rayon4iter6extend7collect17h12efdf9512f2723cE+0x7d>
  7d:	48 89 d8             	mov    %rbx,%rax
  80:	48 81 c4 c0 00 00 00 	add    $0xc0,%rsp
  87:	5b                   	pop    %rbx
  88:	c3                   	retq   

Disassembly of section .text._ZN63_$LT$I$u20$as$u20$core..iter..traits..collect..IntoIterator$GT$9into_iter17h70bf7a0cabe03773E:

0000000000000000 <_ZN63_$LT$I$u20$as$u20$core..iter..traits..collect..IntoIterator$GT$9into_iter17h70bf7a0cabe03773E>:
   0:	48 89 f8             	mov    %rdi,%rax
   3:	48 8b 4e 10          	mov    0x10(%rsi),%rcx
   7:	48 89 4f 10          	mov    %rcx,0x10(%rdi)
   b:	c5 f8 10 06          	vmovups (%rsi),%xmm0
   f:	c5 f8 11 07          	vmovups %xmm0,(%rdi)
  13:	c3                   	retq   

Disassembly of section .text._ZN63_$LT$I$u20$as$u20$core..iter..traits..collect..IntoIterator$GT$9into_iter17hf8b50d9688c795dfE:

0000000000000000 <_ZN63_$LT$I$u20$as$u20$core..iter..traits..collect..IntoIterator$GT$9into_iter17hf8b50d9688c795dfE>:
   0:	48 89 f8             	mov    %rdi,%rax
   3:	48 8b 4e 10          	mov    0x10(%rsi),%rcx
   7:	48 89 4f 10          	mov    %rcx,0x10(%rdi)
   b:	c5 f8 10 06          	vmovups (%rsi),%xmm0
   f:	c5 f8 11 07          	vmovups %xmm0,(%rdi)
  13:	c3                   	retq   

Disassembly of section .text._ZN97_$LT$core..iter..adapters..Map$LT$I$C$F$GT$$u20$as$u20$core..iter..traits..iterator..Iterator$GT$4fold17hf301472facda80baE:

0000000000000000 <_ZN97_$LT$core..iter..adapters..Map$LT$I$C$F$GT$$u20$as$u20$core..iter..traits..iterator..Iterator$GT$4fold17hf301472facda80baE>:
   0:	48 89 f0             	mov    %rsi,%rax
   3:	48 8b 4f 10          	mov    0x10(%rdi),%rcx
   7:	48 85 c9             	test   %rcx,%rcx
   a:	0f 84 12 00 00 00    	je     22 <_ZN97_$LT$core..iter..adapters..Map$LT$I$C$F$GT$$u20$as$u20$core..iter..traits..iterator..Iterator$GT$4fold17hf301472facda80baE+0x22>
  10:	48 8b 3f             	mov    (%rdi),%rdi
  13:	48 85 ff             	test   %rdi,%rdi
  16:	74 0a                	je     22 <_ZN97_$LT$core..iter..adapters..Map$LT$I$C$F$GT$$u20$as$u20$core..iter..traits..iterator..Iterator$GT$4fold17hf301472facda80baE+0x22>
  18:	48 03 47 20          	add    0x20(%rdi),%rax
  1c:	48 83 c1 ff          	add    $0xffffffffffffffff,%rcx
  20:	75 ee                	jne    10 <_ZN97_$LT$core..iter..adapters..Map$LT$I$C$F$GT$$u20$as$u20$core..iter..traits..iterator..Iterator$GT$4fold17hf301472facda80baE+0x10>
  22:	c3                   	retq   

Disassembly of section .text._ZN97_$LT$core..iter..adapters..Map$LT$I$C$F$GT$$u20$as$u20$core..iter..traits..iterator..Iterator$GT$4fold17hf7b11c2580deb318E:

0000000000000000 <_ZN97_$LT$core..iter..adapters..Map$LT$I$C$F$GT$$u20$as$u20$core..iter..traits..iterator..Iterator$GT$4fold17hf7b11c2580deb318E>:
   0:	55                   	push   %rbp
   1:	41 57                	push   %r15
   3:	41 56                	push   %r14
   5:	41 55                	push   %r13
   7:	41 54                	push   %r12
   9:	53                   	push   %rbx
   a:	48 83 ec 48          	sub    $0x48,%rsp
   e:	4c 8b 77 08          	mov    0x8(%rdi),%r14
  12:	48 8b 46 08          	mov    0x8(%rsi),%rax
  16:	48 89 44 24 20       	mov    %rax,0x20(%rsp)
  1b:	4c 8b 7e 10          	mov    0x10(%rsi),%r15
  1f:	4d 85 f6             	test   %r14,%r14
  22:	0f 84 f7 00 00 00    	je     11f <_ZN97_$LT$core..iter..adapters..Map$LT$I$C$F$GT$$u20$as$u20$core..iter..traits..iterator..Iterator$GT$4fold17hf7b11c2580deb318E+0x11f>
  28:	48 8b 47 10          	mov    0x10(%rdi),%rax
  2c:	48 89 44 24 28       	mov    %rax,0x28(%rsp)
  31:	4c 8b 26             	mov    (%rsi),%r12
  34:	4c 8b 2f             	mov    (%rdi),%r13
  37:	66 0f 1f 84 00 00 00 	nopw   0x0(%rax,%rax,1)
  3e:	00 00 
  40:	48 8b 44 24 28       	mov    0x28(%rsp),%rax
  45:	49 39 c6             	cmp    %rax,%r14
  48:	4c 89 f3             	mov    %r14,%rbx
  4b:	48 0f 47 d8          	cmova  %rax,%rbx
  4f:	48 89 d8             	mov    %rbx,%rax
  52:	b9 08 00 00 00       	mov    $0x8,%ecx
  57:	48 f7 e1             	mul    %rcx
  5a:	0f 80 d6 00 00 00    	jo     136 <_ZN97_$LT$core..iter..adapters..Map$LT$I$C$F$GT$$u20$as$u20$core..iter..traits..iterator..Iterator$GT$4fold17hf7b11c2580deb318E+0x136>
  60:	48 89 c5             	mov    %rax,%rbp
  63:	48 85 c0             	test   %rax,%rax
  66:	74 18                	je     80 <_ZN97_$LT$core..iter..adapters..Map$LT$I$C$F$GT$$u20$as$u20$core..iter..traits..iterator..Iterator$GT$4fold17hf7b11c2580deb318E+0x80>
  68:	be 08 00 00 00       	mov    $0x8,%esi
  6d:	48 89 ef             	mov    %rbp,%rdi
  70:	ff 15 00 00 00 00    	callq  *0x0(%rip)        # 76 <_ZN97_$LT$core..iter..adapters..Map$LT$I$C$F$GT$$u20$as$u20$core..iter..traits..iterator..Iterator$GT$4fold17hf7b11c2580deb318E+0x76>
  76:	48 85 c0             	test   %rax,%rax
  79:	75 0a                	jne    85 <_ZN97_$LT$core..iter..adapters..Map$LT$I$C$F$GT$$u20$as$u20$core..iter..traits..iterator..Iterator$GT$4fold17hf7b11c2580deb318E+0x85>
  7b:	e9 f4 00 00 00       	jmpq   174 <_ZN97_$LT$core..iter..adapters..Map$LT$I$C$F$GT$$u20$as$u20$core..iter..traits..iterator..Iterator$GT$4fold17hf7b11c2580deb318E+0x174>
  80:	b8 08 00 00 00       	mov    $0x8,%eax
  85:	48 c1 ed 03          	shr    $0x3,%rbp
  89:	48 89 44 24 08       	mov    %rax,0x8(%rsp)
  8e:	48 89 6c 24 10       	mov    %rbp,0x10(%rsp)
  93:	48 c7 44 24 18 00 00 	movq   $0x0,0x18(%rsp)
  9a:	00 00 
  9c:	48 8d 7c 24 08       	lea    0x8(%rsp),%rdi
  a1:	31 f6                	xor    %esi,%esi
  a3:	48 89 da             	mov    %rbx,%rdx
  a6:	e8 00 00 00 00       	callq  ab <_ZN97_$LT$core..iter..adapters..Map$LT$I$C$F$GT$$u20$as$u20$core..iter..traits..iterator..Iterator$GT$4fold17hf7b11c2580deb318E+0xab>
  ab:	48 8d 14 dd 00 00 00 	lea    0x0(,%rbx,8),%rdx
  b2:	00 
  b3:	48 8b 7c 24 18       	mov    0x18(%rsp),%rdi
  b8:	48 c1 e7 03          	shl    $0x3,%rdi
  bc:	48 03 7c 24 08       	add    0x8(%rsp),%rdi
  c1:	4c 89 ee             	mov    %r13,%rsi
  c4:	ff 15 00 00 00 00    	callq  *0x0(%rip)        # ca <_ZN97_$LT$core..iter..adapters..Map$LT$I$C$F$GT$$u20$as$u20$core..iter..traits..iterator..Iterator$GT$4fold17hf7b11c2580deb318E+0xca>
  ca:	48 8b 44 24 18       	mov    0x18(%rsp),%rax
  cf:	48 01 d8             	add    %rbx,%rax
  d2:	48 89 44 24 18       	mov    %rax,0x18(%rsp)
  d7:	48 8b 54 24 08       	mov    0x8(%rsp),%rdx
  dc:	48 8b 4c 24 10       	mov    0x10(%rsp),%rcx
  e1:	48 be 02 00 00 00 00 	movabs $0x80000000000002,%rsi
  e8:	00 80 00 
  eb:	48 39 f0             	cmp    %rsi,%rax
  ee:	73 4e                	jae    13e <_ZN97_$LT$core..iter..adapters..Map$LT$I$C$F$GT$$u20$as$u20$core..iter..traits..iterator..Iterator$GT$4fold17hf7b11c2580deb318E+0x13e>
  f0:	4d 8d 6c dd 00       	lea    0x0(%r13,%rbx,8),%r13
  f5:	49 29 de             	sub    %rbx,%r14
  f8:	48 c1 e0 09          	shl    $0x9,%rax
  fc:	48 83 e2 f8          	and    $0xfffffffffffffff8,%rdx
 100:	49 89 14 24          	mov    %rdx,(%r12)
 104:	49 89 44 24 08       	mov    %rax,0x8(%r12)
 109:	49 89 4c 24 10       	mov    %rcx,0x10(%r12)
 10e:	49 83 c7 01          	add    $0x1,%r15
 112:	49 83 c4 18          	add    $0x18,%r12
 116:	4d 85 f6             	test   %r14,%r14
 119:	0f 85 21 ff ff ff    	jne    40 <_ZN97_$LT$core..iter..adapters..Map$LT$I$C$F$GT$$u20$as$u20$core..iter..traits..iterator..Iterator$GT$4fold17hf7b11c2580deb318E+0x40>
 11f:	48 8b 44 24 20       	mov    0x20(%rsp),%rax
 124:	4c 89 38             	mov    %r15,(%rax)
 127:	48 83 c4 48          	add    $0x48,%rsp
 12b:	5b                   	pop    %rbx
 12c:	41 5c                	pop    %r12
 12e:	41 5d                	pop    %r13
 130:	41 5e                	pop    %r14
 132:	41 5f                	pop    %r15
 134:	5d                   	pop    %rbp
 135:	c3                   	retq   
 136:	ff 15 00 00 00 00    	callq  *0x0(%rip)        # 13c <_ZN97_$LT$core..iter..adapters..Map$LT$I$C$F$GT$$u20$as$u20$core..iter..traits..iterator..Iterator$GT$4fold17hf7b11c2580deb318E+0x13c>
 13c:	eb 34                	jmp    172 <_ZN97_$LT$core..iter..adapters..Map$LT$I$C$F$GT$$u20$as$u20$core..iter..traits..iterator..Iterator$GT$4fold17hf7b11c2580deb318E+0x172>
 13e:	48 89 54 24 30       	mov    %rdx,0x30(%rsp)
 143:	48 89 4c 24 38       	mov    %rcx,0x38(%rsp)
 148:	48 89 44 24 40       	mov    %rax,0x40(%rsp)
 14d:	48 8d 3d 00 00 00 00 	lea    0x0(%rip),%rdi        # 154 <_ZN97_$LT$core..iter..adapters..Map$LT$I$C$F$GT$$u20$as$u20$core..iter..traits..iterator..Iterator$GT$4fold17hf7b11c2580deb318E+0x154>
 154:	48 8d 0d 00 00 00 00 	lea    0x0(%rip),%rcx        # 15b <_ZN97_$LT$core..iter..adapters..Map$LT$I$C$F$GT$$u20$as$u20$core..iter..traits..iterator..Iterator$GT$4fold17hf7b11c2580deb318E+0x15b>
 15b:	4c 8d 05 00 00 00 00 	lea    0x0(%rip),%r8        # 162 <_ZN97_$LT$core..iter..adapters..Map$LT$I$C$F$GT$$u20$as$u20$core..iter..traits..iterator..Iterator$GT$4fold17hf7b11c2580deb318E+0x162>
 162:	48 8d 54 24 30       	lea    0x30(%rsp),%rdx
 167:	be 33 00 00 00       	mov    $0x33,%esi
 16c:	ff 15 00 00 00 00    	callq  *0x0(%rip)        # 172 <_ZN97_$LT$core..iter..adapters..Map$LT$I$C$F$GT$$u20$as$u20$core..iter..traits..iterator..Iterator$GT$4fold17hf7b11c2580deb318E+0x172>
 172:	0f 0b                	ud2    
 174:	be 08 00 00 00       	mov    $0x8,%esi
 179:	48 89 ef             	mov    %rbp,%rdi
 17c:	ff 15 00 00 00 00    	callq  *0x0(%rip)        # 182 <_ZN97_$LT$core..iter..adapters..Map$LT$I$C$F$GT$$u20$as$u20$core..iter..traits..iterator..Iterator$GT$4fold17hf7b11c2580deb318E+0x182>
 182:	0f 0b                	ud2    
 184:	48 89 c3             	mov    %rax,%rbx
 187:	48 8d 7c 24 30       	lea    0x30(%rsp),%rdi
 18c:	e8 00 00 00 00       	callq  191 <_ZN97_$LT$core..iter..adapters..Map$LT$I$C$F$GT$$u20$as$u20$core..iter..traits..iterator..Iterator$GT$4fold17hf7b11c2580deb318E+0x191>
 191:	eb 0f                	jmp    1a2 <_ZN97_$LT$core..iter..adapters..Map$LT$I$C$F$GT$$u20$as$u20$core..iter..traits..iterator..Iterator$GT$4fold17hf7b11c2580deb318E+0x1a2>
 193:	eb 24                	jmp    1b9 <_ZN97_$LT$core..iter..adapters..Map$LT$I$C$F$GT$$u20$as$u20$core..iter..traits..iterator..Iterator$GT$4fold17hf7b11c2580deb318E+0x1b9>
 195:	48 89 c3             	mov    %rax,%rbx
 198:	48 8d 7c 24 08       	lea    0x8(%rsp),%rdi
 19d:	e8 00 00 00 00       	callq  1a2 <_ZN97_$LT$core..iter..adapters..Map$LT$I$C$F$GT$$u20$as$u20$core..iter..traits..iterator..Iterator$GT$4fold17hf7b11c2580deb318E+0x1a2>
 1a2:	48 8b 7c 24 20       	mov    0x20(%rsp),%rdi
 1a7:	4c 89 fe             	mov    %r15,%rsi
 1aa:	e8 00 00 00 00       	callq  1af <_ZN97_$LT$core..iter..adapters..Map$LT$I$C$F$GT$$u20$as$u20$core..iter..traits..iterator..Iterator$GT$4fold17hf7b11c2580deb318E+0x1af>
 1af:	48 89 df             	mov    %rbx,%rdi
 1b2:	e8 00 00 00 00       	callq  1b7 <_ZN97_$LT$core..iter..adapters..Map$LT$I$C$F$GT$$u20$as$u20$core..iter..traits..iterator..Iterator$GT$4fold17hf7b11c2580deb318E+0x1b7>
 1b7:	0f 0b                	ud2    
 1b9:	48 89 c3             	mov    %rax,%rbx
 1bc:	eb e4                	jmp    1a2 <_ZN97_$LT$core..iter..adapters..Map$LT$I$C$F$GT$$u20$as$u20$core..iter..traits..iterator..Iterator$GT$4fold17hf7b11c2580deb318E+0x1a2>

Disassembly of section .text._ZN97_$LT$core..iter..adapters..Map$LT$I$C$F$GT$$u20$as$u20$core..iter..traits..iterator..Iterator$GT$8try_fold17hefd0ee8c3a085db2E:

0000000000000000 <_ZN97_$LT$core..iter..adapters..Map$LT$I$C$F$GT$$u20$as$u20$core..iter..traits..iterator..Iterator$GT$8try_fold17hefd0ee8c3a085db2E>:
   0:	55                   	push   %rbp
   1:	41 57                	push   %r15
   3:	41 56                	push   %r14
   5:	41 55                	push   %r13
   7:	41 54                	push   %r12
   9:	53                   	push   %rbx
   a:	48 81 ec 38 01 00 00 	sub    $0x138,%rsp
  11:	48 89 7c 24 38       	mov    %rdi,0x38(%rsp)
  16:	48 8b 42 10          	mov    0x10(%rdx),%rax
  1a:	48 89 44 24 10       	mov    %rax,0x10(%rsp)
  1f:	c5 f8 10 02          	vmovups (%rdx),%xmm0
  23:	c5 f8 29 04 24       	vmovaps %xmm0,(%rsp)
  28:	48 8b 06             	mov    (%rsi),%rax
  2b:	48 3b 46 08          	cmp    0x8(%rsi),%rax
  2f:	0f 84 f5 01 00 00    	je     22a <_ZN97_$LT$core..iter..adapters..Map$LT$I$C$F$GT$$u20$as$u20$core..iter..traits..iterator..Iterator$GT$8try_fold17hefd0ee8c3a085db2E+0x22a>
  35:	48 89 f3             	mov    %rsi,%rbx
  38:	4c 8d ac 24 18 01 00 	lea    0x118(%rsp),%r13
  3f:	00 
  40:	48 8d ac 24 b8 00 00 	lea    0xb8(%rsp),%rbp
  47:	00 
  48:	4c 8d b4 24 e8 00 00 	lea    0xe8(%rsp),%r14
  4f:	00 
  50:	4c 8d 64 24 58       	lea    0x58(%rsp),%r12
  55:	4c 8d bc 24 88 00 00 	lea    0x88(%rsp),%r15
  5c:	00 
  5d:	eb 48                	jmp    a7 <_ZN97_$LT$core..iter..adapters..Map$LT$I$C$F$GT$$u20$as$u20$core..iter..traits..iterator..Iterator$GT$8try_fold17hefd0ee8c3a085db2E+0xa7>
  5f:	90                   	nop
  60:	48 8b 44 24 40       	mov    0x40(%rsp),%rax
  65:	48 8d 0c 76          	lea    (%rsi,%rsi,2),%rcx
  69:	48 8b 94 24 80 00 00 	mov    0x80(%rsp),%rdx
  70:	00 
  71:	48 89 54 c8 10       	mov    %rdx,0x10(%rax,%rcx,8)
  76:	c5 f8 28 44 24 70    	vmovaps 0x70(%rsp),%xmm0
  7c:	c5 f8 11 04 c8       	vmovups %xmm0,(%rax,%rcx,8)
  81:	48 8b 44 24 50       	mov    0x50(%rsp),%rax
  86:	48 83 c0 01          	add    $0x1,%rax
  8a:	c5 f8 28 44 24 40    	vmovaps 0x40(%rsp),%xmm0
  90:	c5 f8 29 04 24       	vmovaps %xmm0,(%rsp)
  95:	48 89 44 24 10       	mov    %rax,0x10(%rsp)
  9a:	48 8b 03             	mov    (%rbx),%rax
  9d:	48 3b 43 08          	cmp    0x8(%rbx),%rax
  a1:	0f 84 83 01 00 00    	je     22a <_ZN97_$LT$core..iter..adapters..Map$LT$I$C$F$GT$$u20$as$u20$core..iter..traits..iterator..Iterator$GT$8try_fold17hefd0ee8c3a085db2E+0x22a>
  a7:	48 8d 48 08          	lea    0x8(%rax),%rcx
  ab:	48 89 0b             	mov    %rcx,(%rbx)
  ae:	48 8b 4c 24 10       	mov    0x10(%rsp),%rcx
  b3:	48 89 4c 24 30       	mov    %rcx,0x30(%rsp)
  b8:	c5 f8 28 04 24       	vmovaps (%rsp),%xmm0
  bd:	c5 f8 29 44 24 20    	vmovaps %xmm0,0x20(%rsp)
  c3:	48 8b 4b 10          	mov    0x10(%rbx),%rcx
  c7:	48 8b 30             	mov    (%rax),%rsi
  ca:	48 8b 01             	mov    (%rcx),%rax
  cd:	48 8b 49 08          	mov    0x8(%rcx),%rcx
  d1:	48 8b 09             	mov    (%rcx),%rcx
  d4:	48 8b 51 18          	mov    0x18(%rcx),%rdx
  d8:	48 83 c2 ff          	add    $0xffffffffffffffff,%rdx
  dc:	48 0f af 10          	imul   (%rax),%rdx
  e0:	4c 89 ff             	mov    %r15,%rdi
  e3:	ff 15 00 00 00 00    	callq  *0x0(%rip)        # e9 <_ZN97_$LT$core..iter..adapters..Map$LT$I$C$F$GT$$u20$as$u20$core..iter..traits..iterator..Iterator$GT$8try_fold17hefd0ee8c3a085db2E+0xe9>
  e9:	48 8b 44 24 30       	mov    0x30(%rsp),%rax
  ee:	48 89 84 24 10 01 00 	mov    %rax,0x110(%rsp)
  f5:	00 
  f6:	c5 f8 28 44 24 20    	vmovaps 0x20(%rsp),%xmm0
  fc:	c5 f8 29 84 24 00 01 	vmovaps %xmm0,0x100(%rsp)
 103:	00 00 
 105:	48 8b 84 24 98 00 00 	mov    0x98(%rsp),%rax
 10c:	00 
 10d:	49 89 45 10          	mov    %rax,0x10(%r13)
 111:	c5 f8 10 84 24 88 00 	vmovups 0x88(%rsp),%xmm0
 118:	00 00 
 11a:	c4 c1 78 11 45 00    	vmovups %xmm0,0x0(%r13)
 120:	48 8b 44 24 30       	mov    0x30(%rsp),%rax
 125:	48 89 84 24 b0 00 00 	mov    %rax,0xb0(%rsp)
 12c:	00 
 12d:	c5 f8 28 44 24 20    	vmovaps 0x20(%rsp),%xmm0
 133:	c5 f8 29 84 24 a0 00 	vmovaps %xmm0,0xa0(%rsp)
 13a:	00 00 
 13c:	48 8b 84 24 98 00 00 	mov    0x98(%rsp),%rax
 143:	00 
 144:	48 89 45 10          	mov    %rax,0x10(%rbp)
 148:	c5 f8 10 84 24 88 00 	vmovups 0x88(%rsp),%xmm0
 14f:	00 00 
 151:	c5 f8 11 45 00       	vmovups %xmm0,0x0(%rbp)
 156:	c5 f8 10 84 24 a0 00 	vmovups 0xa0(%rsp),%xmm0
 15d:	00 00 
 15f:	48 8b 84 24 b0 00 00 	mov    0xb0(%rsp),%rax
 166:	00 
 167:	48 8b 8c 24 b8 00 00 	mov    0xb8(%rsp),%rcx
 16e:	00 
 16f:	48 8b 94 24 b0 00 00 	mov    0xb0(%rsp),%rdx
 176:	00 
 177:	48 89 94 24 e0 00 00 	mov    %rdx,0xe0(%rsp)
 17e:	00 
 17f:	c5 f8 10 8c 24 b8 00 	vmovups 0xb8(%rsp),%xmm1
 186:	00 00 
 188:	c5 f8 11 8c 24 e8 00 	vmovups %xmm1,0xe8(%rsp)
 18f:	00 00 
 191:	48 8b 94 24 c8 00 00 	mov    0xc8(%rsp),%rdx
 198:	00 
 199:	48 89 94 24 f8 00 00 	mov    %rdx,0xf8(%rsp)
 1a0:	00 
 1a1:	c5 f8 11 84 24 d0 00 	vmovups %xmm0,0xd0(%rsp)
 1a8:	00 00 
 1aa:	48 89 84 24 e0 00 00 	mov    %rax,0xe0(%rsp)
 1b1:	00 
 1b2:	48 89 8c 24 e8 00 00 	mov    %rcx,0xe8(%rsp)
 1b9:	00 
 1ba:	48 8b 84 24 10 01 00 	mov    0x110(%rsp),%rax
 1c1:	00 
 1c2:	48 89 44 24 50       	mov    %rax,0x50(%rsp)
 1c7:	c5 f8 28 84 24 00 01 	vmovaps 0x100(%rsp),%xmm0
 1ce:	00 00 
 1d0:	c5 f8 29 44 24 40    	vmovaps %xmm0,0x40(%rsp)
 1d6:	49 8b 46 10          	mov    0x10(%r14),%rax
 1da:	49 89 44 24 10       	mov    %rax,0x10(%r12)
 1df:	c4 c1 78 10 06       	vmovups (%r14),%xmm0
 1e4:	c4 c1 78 11 04 24    	vmovups %xmm0,(%r12)
 1ea:	49 8b 46 10          	mov    0x10(%r14),%rax
 1ee:	48 89 84 24 80 00 00 	mov    %rax,0x80(%rsp)
 1f5:	00 
 1f6:	c4 c1 78 10 06       	vmovups (%r14),%xmm0
 1fb:	c5 f8 29 44 24 70    	vmovaps %xmm0,0x70(%rsp)
 201:	48 8b 74 24 50       	mov    0x50(%rsp),%rsi
 206:	48 3b 74 24 48       	cmp    0x48(%rsp),%rsi
 20b:	0f 85 4f fe ff ff    	jne    60 <_ZN97_$LT$core..iter..adapters..Map$LT$I$C$F$GT$$u20$as$u20$core..iter..traits..iterator..Iterator$GT$8try_fold17hefd0ee8c3a085db2E+0x60>
 211:	ba 01 00 00 00       	mov    $0x1,%edx
 216:	48 8d 7c 24 40       	lea    0x40(%rsp),%rdi
 21b:	e8 00 00 00 00       	callq  220 <_ZN97_$LT$core..iter..adapters..Map$LT$I$C$F$GT$$u20$as$u20$core..iter..traits..iterator..Iterator$GT$8try_fold17hefd0ee8c3a085db2E+0x220>
 220:	48 8b 74 24 50       	mov    0x50(%rsp),%rsi
 225:	e9 36 fe ff ff       	jmpq   60 <_ZN97_$LT$core..iter..adapters..Map$LT$I$C$F$GT$$u20$as$u20$core..iter..traits..iterator..Iterator$GT$8try_fold17hefd0ee8c3a085db2E+0x60>
 22a:	48 8b 4c 24 10       	mov    0x10(%rsp),%rcx
 22f:	48 8b 44 24 38       	mov    0x38(%rsp),%rax
 234:	48 89 48 18          	mov    %rcx,0x18(%rax)
 238:	c5 f8 28 04 24       	vmovaps (%rsp),%xmm0
 23d:	c5 f8 11 40 08       	vmovups %xmm0,0x8(%rax)
 242:	48 c7 00 00 00 00 00 	movq   $0x0,(%rax)
 249:	48 81 c4 38 01 00 00 	add    $0x138,%rsp
 250:	5b                   	pop    %rbx
 251:	41 5c                	pop    %r12
 253:	41 5d                	pop    %r13
 255:	41 5e                	pop    %r14
 257:	41 5f                	pop    %r15
 259:	5d                   	pop    %rbp
 25a:	c3                   	retq   
 25b:	48 89 c3             	mov    %rax,%rbx
 25e:	48 8d 7c 24 70       	lea    0x70(%rsp),%rdi
 263:	e8 00 00 00 00       	callq  268 <_ZN97_$LT$core..iter..adapters..Map$LT$I$C$F$GT$$u20$as$u20$core..iter..traits..iterator..Iterator$GT$8try_fold17hefd0ee8c3a085db2E+0x268>
 268:	48 8d 7c 24 40       	lea    0x40(%rsp),%rdi
 26d:	eb 0d                	jmp    27c <_ZN97_$LT$core..iter..adapters..Map$LT$I$C$F$GT$$u20$as$u20$core..iter..traits..iterator..Iterator$GT$8try_fold17hefd0ee8c3a085db2E+0x27c>
 26f:	48 89 c3             	mov    %rax,%rbx
 272:	eb f4                	jmp    268 <_ZN97_$LT$core..iter..adapters..Map$LT$I$C$F$GT$$u20$as$u20$core..iter..traits..iterator..Iterator$GT$8try_fold17hefd0ee8c3a085db2E+0x268>
 274:	48 89 c3             	mov    %rax,%rbx
 277:	48 8d 7c 24 20       	lea    0x20(%rsp),%rdi
 27c:	e8 00 00 00 00       	callq  281 <_ZN97_$LT$core..iter..adapters..Map$LT$I$C$F$GT$$u20$as$u20$core..iter..traits..iterator..Iterator$GT$8try_fold17hefd0ee8c3a085db2E+0x281>
 281:	48 89 df             	mov    %rbx,%rdi
 284:	e8 00 00 00 00       	callq  289 <_ZN97_$LT$core..iter..adapters..Map$LT$I$C$F$GT$$u20$as$u20$core..iter..traits..iterator..Iterator$GT$8try_fold17hefd0ee8c3a085db2E+0x289>
 289:	0f 0b                	ud2    

Disassembly of section .text._ZN7raidpir4util11rand_bitvec17hd731307c32727c8aE:

0000000000000000 <_ZN7raidpir4util11rand_bitvec17hd731307c32727c8aE>:
   0:	55                   	push   %rbp
   1:	41 57                	push   %r15
   3:	41 56                	push   %r14
   5:	41 55                	push   %r13
   7:	41 54                	push   %r12
   9:	53                   	push   %rbx
   a:	48 81 ec f8 01 00 00 	sub    $0x1f8,%rsp
  11:	49 89 d6             	mov    %rdx,%r14
  14:	48 89 7c 24 08       	mov    %rdi,0x8(%rsp)
  19:	48 b8 2d 7f 95 4c 2d 	movabs $0x5851f42d4c957f2d,%rax
  20:	f4 51 58 
  23:	48 0f af f0          	imul   %rax,%rsi
  27:	48 b9 f3 17 be 6f e4 	movabs $0xa17654e46fbe17f3,%rcx
  2e:	54 76 a1 
  31:	48 01 ce             	add    %rcx,%rsi
  34:	c4 e1 f9 6e c6       	vmovq  %rsi,%xmm0
  39:	48 0f af f0          	imul   %rax,%rsi
  3d:	48 01 ce             	add    %rcx,%rsi
  40:	c4 e1 f9 6e ce       	vmovq  %rsi,%xmm1
  45:	48 0f af f0          	imul   %rax,%rsi
  49:	48 01 ce             	add    %rcx,%rsi
  4c:	c4 e1 f9 6e d6       	vmovq  %rsi,%xmm2
  51:	48 0f af f0          	imul   %rax,%rsi
  55:	48 01 ce             	add    %rcx,%rsi
  58:	c4 e1 f9 6e de       	vmovq  %rsi,%xmm3
  5d:	48 0f af f0          	imul   %rax,%rsi
  61:	48 01 ce             	add    %rcx,%rsi
  64:	c4 e1 f9 6e e6       	vmovq  %rsi,%xmm4
  69:	48 0f af f0          	imul   %rax,%rsi
  6d:	48 01 ce             	add    %rcx,%rsi
  70:	c5 f9 6c c1          	vpunpcklqdq %xmm1,%xmm0,%xmm0
  74:	c4 e1 f9 6e ce       	vmovq  %rsi,%xmm1
  79:	48 0f af f0          	imul   %rax,%rsi
  7d:	48 01 ce             	add    %rcx,%rsi
  80:	48 0f af c6          	imul   %rsi,%rax
  84:	48 01 c8             	add    %rcx,%rax
  87:	c5 e9 6c d3          	vpunpcklqdq %xmm3,%xmm2,%xmm2
  8b:	c4 e3 7d 38 c2 01    	vinserti128 $0x1,%xmm2,%ymm0,%ymm0
  91:	c5 d9 6c c9          	vpunpcklqdq %xmm1,%xmm4,%xmm1
  95:	c4 e1 f9 6e d6       	vmovq  %rsi,%xmm2
  9a:	c4 e1 f9 6e d8       	vmovq  %rax,%xmm3
  9f:	c5 e9 6c d3          	vpunpcklqdq %xmm3,%xmm2,%xmm2
  a3:	c4 e3 75 38 ca 01    	vinserti128 $0x1,%xmm2,%ymm1,%ymm1
  a9:	c5 ed 73 d1 2d       	vpsrlq $0x2d,%ymm1,%ymm2
  ae:	c5 e5 73 d0 2d       	vpsrlq $0x2d,%ymm0,%ymm3
  b3:	c5 dd 73 d1 1b       	vpsrlq $0x1b,%ymm1,%ymm4
  b8:	c5 ed ef d4          	vpxor  %ymm4,%ymm2,%ymm2
  bc:	c5 dd 73 d0 1b       	vpsrlq $0x1b,%ymm0,%ymm4
  c1:	c5 e5 ef dc          	vpxor  %ymm4,%ymm3,%ymm3
  c5:	c4 e3 65 46 e2 31    	vperm2i128 $0x31,%ymm2,%ymm3,%ymm4
  cb:	c4 e3 65 38 d2 01    	vinserti128 $0x1,%xmm2,%ymm3,%ymm2
  d1:	c5 ec c6 d4 88       	vshufps $0x88,%ymm4,%ymm2,%ymm2
  d6:	c5 fd 73 d0 3b       	vpsrlq $0x3b,%ymm0,%ymm0
  db:	c5 f5 73 d1 3b       	vpsrlq $0x3b,%ymm1,%ymm1
  e0:	c4 e2 7d 2b c1       	vpackusdw %ymm1,%ymm0,%ymm0
  e5:	c4 e3 fd 00 c0 d8    	vpermq $0xd8,%ymm0,%ymm0
  eb:	c5 f1 ef c9          	vpxor  %xmm1,%xmm1,%xmm1
  ef:	c5 f5 fa c0          	vpsubd %ymm0,%ymm1,%ymm0
  f3:	c4 e2 7d 58 0d 00 00 	vpbroadcastd 0x0(%rip),%ymm1        # fc <_ZN7raidpir4util11rand_bitvec17hd731307c32727c8aE+0xfc>
  fa:	00 00 
  fc:	c5 fd db c1          	vpand  %ymm1,%ymm0,%ymm0
 100:	c4 e2 6d 47 c8       	vpsllvd %ymm0,%ymm2,%ymm1
 105:	c4 e2 7d 58 1d 00 00 	vpbroadcastd 0x0(%rip),%ymm3        # 10e <_ZN7raidpir4util11rand_bitvec17hd731307c32727c8aE+0x10e>
 10c:	00 00 
 10e:	c5 e5 fa c0          	vpsubd %ymm0,%ymm3,%ymm0
 112:	c4 e2 6d 45 c0       	vpsrlvd %ymm0,%ymm2,%ymm0
 117:	c5 f5 eb c0          	vpor   %ymm0,%ymm1,%ymm0
 11b:	c5 fe 7f 84 24 b0 00 	vmovdqu %ymm0,0xb0(%rsp)
 122:	00 00 
 124:	48 8d 15 00 00 00 00 	lea    0x0(%rip),%rdx        # 12b <_ZN7raidpir4util11rand_bitvec17hd731307c32727c8aE+0x12b>
 12b:	48 8d 7c 24 70       	lea    0x70(%rsp),%rdi
 130:	48 8d b4 24 b0 00 00 	lea    0xb0(%rsp),%rsi
 137:	00 
 138:	b9 08 00 00 00       	mov    $0x8,%ecx
 13d:	c5 f8 77             	vzeroupper 
 140:	ff 15 00 00 00 00    	callq  *0x0(%rip)        # 146 <_ZN7raidpir4util11rand_bitvec17hd731307c32727c8aE+0x146>
 146:	c5 fc 10 44 24 70    	vmovups 0x70(%rsp),%ymm0
 14c:	c5 fc 10 8c 24 80 00 	vmovups 0x80(%rsp),%ymm1
 153:	00 00 
 155:	c5 fc 11 4c 24 28    	vmovups %ymm1,0x28(%rsp)
 15b:	c5 fc 11 44 24 18    	vmovups %ymm0,0x18(%rsp)
 161:	48 c7 84 24 b0 00 00 	movq   $0x40,0xb0(%rsp)
 168:	00 40 00 00 00 
 16d:	c5 f8 57 c0          	vxorps %xmm0,%xmm0,%xmm0
 171:	c5 fc 11 84 24 b8 00 	vmovups %ymm0,0xb8(%rsp)
 178:	00 00 
 17a:	c5 fc 11 84 24 d8 00 	vmovups %ymm0,0xd8(%rsp)
 181:	00 00 
 183:	c5 fc 11 84 24 f8 00 	vmovups %ymm0,0xf8(%rsp)
 18a:	00 00 
 18c:	c5 fc 11 84 24 18 01 	vmovups %ymm0,0x118(%rsp)
 193:	00 00 
 195:	c5 fc 11 84 24 38 01 	vmovups %ymm0,0x138(%rsp)
 19c:	00 00 
 19e:	c5 fc 11 84 24 58 01 	vmovups %ymm0,0x158(%rsp)
 1a5:	00 00 
 1a7:	c5 fc 11 84 24 78 01 	vmovups %ymm0,0x178(%rsp)
 1ae:	00 00 
 1b0:	c5 fc 11 84 24 98 01 	vmovups %ymm0,0x198(%rsp)
 1b7:	00 00 
 1b9:	c5 fc 10 44 24 10    	vmovups 0x10(%rsp),%ymm0
 1bf:	c5 fc 10 4c 24 28    	vmovups 0x28(%rsp),%ymm1
 1c5:	c5 fc 11 84 24 b8 01 	vmovups %ymm0,0x1b8(%rsp)
 1cc:	00 00 
 1ce:	c5 fc 11 8c 24 d0 01 	vmovups %ymm1,0x1d0(%rsp)
 1d5:	00 00 
 1d7:	4c 89 74 24 60       	mov    %r14,0x60(%rsp)
 1dc:	49 c1 ee 06          	shr    $0x6,%r14
 1e0:	4a 8d 1c f5 08 00 00 	lea    0x8(,%r14,8),%rbx
 1e7:	00 
 1e8:	be 08 00 00 00       	mov    $0x8,%esi
 1ed:	48 89 df             	mov    %rbx,%rdi
 1f0:	c5 f8 77             	vzeroupper 
 1f3:	ff 15 00 00 00 00    	callq  *0x0(%rip)        # 1f9 <_ZN7raidpir4util11rand_bitvec17hd731307c32727c8aE+0x1f9>
 1f9:	48 85 c0             	test   %rax,%rax
 1fc:	0f 84 35 05 00 00    	je     737 <_ZN7raidpir4util11rand_bitvec17hd731307c32727c8aE+0x737>
 202:	49 8d 4e 01          	lea    0x1(%r14),%rcx
 206:	48 89 44 24 48       	mov    %rax,0x48(%rsp)
 20b:	48 89 4c 24 50       	mov    %rcx,0x50(%rsp)
 210:	48 c7 44 24 58 00 00 	movq   $0x0,0x58(%rsp)
 217:	00 00 
 219:	b8 40 00 00 00       	mov    $0x40,%eax
 21e:	4c 8d 6c 24 48       	lea    0x48(%rsp),%r13
 223:	4c 8b 25 00 00 00 00 	mov    0x0(%rip),%r12        # 22a <_ZN7raidpir4util11rand_bitvec17hd731307c32727c8aE+0x22a>
 22a:	48 83 f8 3f          	cmp    $0x3f,%rax
 22e:	73 30                	jae    260 <_ZN7raidpir4util11rand_bitvec17hd731307c32727c8aE+0x260>
 230:	48 8d 48 02          	lea    0x2(%rax),%rcx
 234:	48 89 8c 24 b0 00 00 	mov    %rcx,0xb0(%rsp)
 23b:	00 
 23c:	48 8b 9c 84 b8 00 00 	mov    0xb8(%rsp,%rax,4),%rbx
 243:	00 
 244:	48 8b 74 24 58       	mov    0x58(%rsp),%rsi
 249:	48 3b 74 24 50       	cmp    0x50(%rsp),%rsi
 24e:	0f 84 94 00 00 00    	je     2e8 <_ZN7raidpir4util11rand_bitvec17hd731307c32727c8aE+0x2e8>
 254:	e9 a1 00 00 00       	jmpq   2fa <_ZN7raidpir4util11rand_bitvec17hd731307c32727c8aE+0x2fa>
 259:	0f 1f 80 00 00 00 00 	nopl   0x0(%rax)
 260:	75 4e                	jne    2b0 <_ZN7raidpir4util11rand_bitvec17hd731307c32727c8aE+0x2b0>
 262:	8b ac 24 b4 01 00 00 	mov    0x1b4(%rsp),%ebp
 269:	48 8d bc 24 c0 01 00 	lea    0x1c0(%rsp),%rdi
 270:	00 
 271:	be 0a 00 00 00       	mov    $0xa,%esi
 276:	48 8d 94 24 b8 00 00 	lea    0xb8(%rsp),%rdx
 27d:	00 
 27e:	41 ff d4             	callq  *%r12
 281:	48 c7 84 24 b0 00 00 	movq   $0x1,0xb0(%rsp)
 288:	00 01 00 00 00 
 28d:	8b 9c 24 b8 00 00 00 	mov    0xb8(%rsp),%ebx
 294:	48 c1 e3 20          	shl    $0x20,%rbx
 298:	48 09 eb             	or     %rbp,%rbx
 29b:	48 8b 74 24 58       	mov    0x58(%rsp),%rsi
 2a0:	48 3b 74 24 50       	cmp    0x50(%rsp),%rsi
 2a5:	0f 84 3d 00 00 00    	je     2e8 <_ZN7raidpir4util11rand_bitvec17hd731307c32727c8aE+0x2e8>
 2ab:	e9 4a 00 00 00       	jmpq   2fa <_ZN7raidpir4util11rand_bitvec17hd731307c32727c8aE+0x2fa>
 2b0:	48 8d bc 24 c0 01 00 	lea    0x1c0(%rsp),%rdi
 2b7:	00 
 2b8:	be 0a 00 00 00       	mov    $0xa,%esi
 2bd:	48 8d 94 24 b8 00 00 	lea    0xb8(%rsp),%rdx
 2c4:	00 
 2c5:	41 ff d4             	callq  *%r12
 2c8:	48 c7 84 24 b0 00 00 	movq   $0x2,0xb0(%rsp)
 2cf:	00 02 00 00 00 
 2d4:	48 8b 9c 24 b8 00 00 	mov    0xb8(%rsp),%rbx
 2db:	00 
 2dc:	48 8b 74 24 58       	mov    0x58(%rsp),%rsi
 2e1:	48 3b 74 24 50       	cmp    0x50(%rsp),%rsi
 2e6:	75 12                	jne    2fa <_ZN7raidpir4util11rand_bitvec17hd731307c32727c8aE+0x2fa>
 2e8:	ba 01 00 00 00       	mov    $0x1,%edx
 2ed:	4c 89 ef             	mov    %r13,%rdi
 2f0:	e8 00 00 00 00       	callq  2f5 <_ZN7raidpir4util11rand_bitvec17hd731307c32727c8aE+0x2f5>
 2f5:	48 8b 74 24 58       	mov    0x58(%rsp),%rsi
 2fa:	48 8b 44 24 48       	mov    0x48(%rsp),%rax
 2ff:	48 89 1c f0          	mov    %rbx,(%rax,%rsi,8)
 303:	4c 8b 7c 24 58       	mov    0x58(%rsp),%r15
 308:	49 83 c7 01          	add    $0x1,%r15
 30c:	4c 89 7c 24 58       	mov    %r15,0x58(%rsp)
 311:	4d 85 f6             	test   %r14,%r14
 314:	74 1b                	je     331 <_ZN7raidpir4util11rand_bitvec17hd731307c32727c8aE+0x331>
 316:	48 8b 84 24 b0 00 00 	mov    0xb0(%rsp),%rax
 31d:	00 
 31e:	49 83 c6 ff          	add    $0xffffffffffffffff,%r14
 322:	48 83 f8 3f          	cmp    $0x3f,%rax
 326:	0f 83 34 ff ff ff    	jae    260 <_ZN7raidpir4util11rand_bitvec17hd731307c32727c8aE+0x260>
 32c:	e9 ff fe ff ff       	jmpq   230 <_ZN7raidpir4util11rand_bitvec17hd731307c32727c8aE+0x230>
 331:	48 8b 4c 24 48       	mov    0x48(%rsp),%rcx
 336:	48 8b 44 24 50       	mov    0x50(%rsp),%rax
 33b:	48 ba 02 00 00 00 00 	movabs $0x80000000000002,%rdx
 342:	00 80 00 
 345:	49 39 d7             	cmp    %rdx,%r15
 348:	0f 83 f9 03 00 00    	jae    747 <_ZN7raidpir4util11rand_bitvec17hd731307c32727c8aE+0x747>
 34e:	49 ba ff ff ff ff ff 	movabs $0x1fffffffffffffff,%r10
 355:	ff ff 1f 
 358:	4d 89 fd             	mov    %r15,%r13
 35b:	49 c1 e5 09          	shl    $0x9,%r13
 35f:	48 83 e1 f8          	and    $0xfffffffffffffff8,%rcx
 363:	48 8b 5c 24 08       	mov    0x8(%rsp),%rbx
 368:	48 89 0b             	mov    %rcx,(%rbx)
 36b:	4c 89 6b 08          	mov    %r13,0x8(%rbx)
 36f:	48 89 43 10          	mov    %rax,0x10(%rbx)
 373:	49 c1 e7 06          	shl    $0x6,%r15
 377:	4d 8d 72 c1          	lea    -0x3f(%r10),%r14
 37b:	4c 89 fd             	mov    %r15,%rbp
 37e:	4c 21 f5             	and    %r14,%rbp
 381:	4c 8b 64 24 60       	mov    0x60(%rsp),%r12
 386:	4c 39 e5             	cmp    %r12,%rbp
 389:	0f 83 99 02 00 00    	jae    628 <_ZN7raidpir4util11rand_bitvec17hd731307c32727c8aE+0x628>
 38f:	4c 89 e6             	mov    %r12,%rsi
 392:	48 29 ee             	sub    %rbp,%rsi
 395:	48 01 ee             	add    %rbp,%rsi
 398:	0f 82 76 04 00 00    	jb     814 <_ZN7raidpir4util11rand_bitvec17hd731307c32727c8aE+0x814>
 39e:	48 89 74 24 68       	mov    %rsi,0x68(%rsp)
 3a3:	4c 39 d6             	cmp    %r10,%rsi
 3a6:	0f 87 86 04 00 00    	ja     832 <_ZN7raidpir4util11rand_bitvec17hd731307c32727c8aE+0x832>
 3ac:	49 89 ec             	mov    %rbp,%r12
 3af:	49 c1 ec 06          	shr    $0x6,%r12
 3b3:	48 85 f6             	test   %rsi,%rsi
 3b6:	74 2f                	je     3e7 <_ZN7raidpir4util11rand_bitvec17hd731307c32727c8aE+0x3e7>
 3b8:	ba 01 00 00 00       	mov    $0x1,%edx
 3bd:	48 83 fe 41          	cmp    $0x41,%rsi
 3c1:	72 1a                	jb     3dd <_ZN7raidpir4util11rand_bitvec17hd731307c32727c8aE+0x3dd>
 3c3:	48 83 c6 c0          	add    $0xffffffffffffffc0,%rsi
 3c7:	48 89 f2             	mov    %rsi,%rdx
 3ca:	48 c1 ea 06          	shr    $0x6,%rdx
 3ce:	83 e6 3f             	and    $0x3f,%esi
 3d1:	48 83 fe 01          	cmp    $0x1,%rsi
 3d5:	48 83 da 00          	sbb    $0x0,%rdx
 3d9:	48 83 c2 02          	add    $0x2,%rdx
 3dd:	4c 29 e2             	sub    %r12,%rdx
 3e0:	73 0c                	jae    3ee <_ZN7raidpir4util11rand_bitvec17hd731307c32727c8aE+0x3ee>
 3e2:	e9 80 00 00 00       	jmpq   467 <_ZN7raidpir4util11rand_bitvec17hd731307c32727c8aE+0x467>
 3e7:	31 d2                	xor    %edx,%edx
 3e9:	4c 29 e2             	sub    %r12,%rdx
 3ec:	72 79                	jb     467 <_ZN7raidpir4util11rand_bitvec17hd731307c32727c8aE+0x467>
 3ee:	48 89 4c 24 10       	mov    %rcx,0x10(%rsp)
 3f3:	48 89 44 24 18       	mov    %rax,0x18(%rsp)
 3f8:	4c 89 64 24 20       	mov    %r12,0x20(%rsp)
 3fd:	48 8d 7c 24 10       	lea    0x10(%rsp),%rdi
 402:	4c 89 e6             	mov    %r12,%rsi
 405:	e8 00 00 00 00       	callq  40a <_ZN7raidpir4util11rand_bitvec17hd731307c32727c8aE+0x40a>
 40a:	48 8b 4c 24 10       	mov    0x10(%rsp),%rcx
 40f:	48 83 e1 f8          	and    $0xfffffffffffffff8,%rcx
 413:	48 8b 54 24 08       	mov    0x8(%rsp),%rdx
 418:	48 89 0a             	mov    %rcx,(%rdx)
 41b:	4c 89 6a 08          	mov    %r13,0x8(%rdx)
 41f:	48 8b 44 24 18       	mov    0x18(%rsp),%rax
 424:	48 89 42 10          	mov    %rax,0x10(%rdx)
 428:	ba 40 00 00 00       	mov    $0x40,%edx
 42d:	48 f7 e2             	mul    %rdx
 430:	0f 80 89 04 00 00    	jo     8bf <_ZN7raidpir4util11rand_bitvec17hd731307c32727c8aE+0x8bf>
 436:	4a 8d 0c e1          	lea    (%rcx,%r12,8),%rcx
 43a:	4c 29 f8             	sub    %r15,%rax
 43d:	4c 21 f0             	and    %r14,%rax
 440:	48 89 c2             	mov    %rax,%rdx
 443:	48 c1 ea 03          	shr    $0x3,%rdx
 447:	48 85 c0             	test   %rax,%rax
 44a:	48 8d 3d 00 00 00 00 	lea    0x0(%rip),%rdi        # 451 <_ZN7raidpir4util11rand_bitvec17hd731307c32727c8aE+0x451>
 451:	48 0f 45 f9          	cmovne %rcx,%rdi
 455:	31 f6                	xor    %esi,%esi
 457:	ff 15 00 00 00 00    	callq  *0x0(%rip)        # 45d <_ZN7raidpir4util11rand_bitvec17hd731307c32727c8aE+0x45d>
 45d:	49 ba ff ff ff ff ff 	movabs $0x1fffffffffffffff,%r10
 464:	ff ff 1f 
 467:	b8 40 00 00 00       	mov    $0x40,%eax
 46c:	48 8b 74 24 08       	mov    0x8(%rsp),%rsi
 471:	48 f7 66 10          	mulq   0x10(%rsi)
 475:	0f 80 29 04 00 00    	jo     8a4 <_ZN7raidpir4util11rand_bitvec17hd731307c32727c8aE+0x8a4>
 47b:	48 8b 0e             	mov    (%rsi),%rcx
 47e:	48 8b 56 08          	mov    0x8(%rsi),%rdx
 482:	89 ce                	mov    %ecx,%esi
 484:	83 e6 07             	and    $0x7,%esi
 487:	83 e2 07             	and    $0x7,%edx
 48a:	48 8d 34 f2          	lea    (%rdx,%rsi,8),%rsi
 48e:	31 d2                	xor    %edx,%edx
 490:	48 29 f0             	sub    %rsi,%rax
 493:	48 0f 42 c2          	cmovb  %rdx,%rax
 497:	48 09 f5             	or     %rsi,%rbp
 49a:	48 83 e1 f8          	and    $0xfffffffffffffff8,%rcx
 49e:	48 83 fd 40          	cmp    $0x40,%rbp
 4a2:	48 0f 43 ee          	cmovae %rsi,%rbp
 4a6:	4c 0f 42 e2          	cmovb  %rdx,%r12
 4aa:	4a 8d 0c e1          	lea    (%rcx,%r12,8),%rcx
 4ae:	4c 29 f8             	sub    %r15,%rax
 4b1:	49 89 e9             	mov    %rbp,%r9
 4b4:	49 c1 e9 03          	shr    $0x3,%r9
 4b8:	49 09 c9             	or     %rcx,%r9
 4bb:	83 e5 07             	and    $0x7,%ebp
 4be:	4c 21 d0             	and    %r10,%rax
 4c1:	44 89 c9             	mov    %r9d,%ecx
 4c4:	83 e1 07             	and    $0x7,%ecx
 4c7:	4c 8d 04 cd 00 00 00 	lea    0x0(,%rcx,8),%r8
 4ce:	00 
 4cf:	49 01 e8             	add    %rbp,%r8
 4d2:	49 8d 0c 00          	lea    (%r8,%rax,1),%rcx
 4d6:	48 89 cf             	mov    %rcx,%rdi
 4d9:	48 c1 ef 06          	shr    $0x6,%rdi
 4dd:	83 e1 3f             	and    $0x3f,%ecx
 4e0:	31 f6                	xor    %esi,%esi
 4e2:	48 85 c9             	test   %rcx,%rcx
 4e5:	40 0f 95 c6          	setne  %sil
 4e9:	0f 94 c3             	sete   %bl
 4ec:	c0 e3 06             	shl    $0x6,%bl
 4ef:	08 d9                	or     %bl,%cl
 4f1:	45 84 c0             	test   %r8b,%r8b
 4f4:	0f b6 c9             	movzbl %cl,%ecx
 4f7:	bd 00 00 00 00       	mov    $0x0,%ebp
 4fc:	0f 45 e9             	cmovne %ecx,%ebp
 4ff:	48 85 c0             	test   %rax,%rax
 502:	0f 45 e9             	cmovne %ecx,%ebp
 505:	48 01 fe             	add    %rdi,%rsi
 508:	74 27                	je     531 <_ZN7raidpir4util11rand_bitvec17hd731307c32727c8aE+0x531>
 50a:	49 83 e1 f8          	and    $0xfffffffffffffff8,%r9
 50e:	45 84 c0             	test   %r8b,%r8b
 511:	4c 8b 64 24 60       	mov    0x60(%rsp),%r12
 516:	75 32                	jne    54a <_ZN7raidpir4util11rand_bitvec17hd731307c32727c8aE+0x54a>
 518:	40 80 fd 40          	cmp    $0x40,%bpl
 51c:	75 2c                	jne    54a <_ZN7raidpir4util11rand_bitvec17hd731307c32727c8aE+0x54a>
 51e:	45 31 f6             	xor    %r14d,%r14d
 521:	48 89 f2             	mov    %rsi,%rdx
 524:	4c 89 cf             	mov    %r9,%rdi
 527:	48 8b 5c 24 08       	mov    0x8(%rsp),%rbx
 52c:	e9 c2 00 00 00       	jmpq   5f3 <_ZN7raidpir4util11rand_bitvec17hd731307c32727c8aE+0x5f3>
 531:	48 8d 3d 00 00 00 00 	lea    0x0(%rip),%rdi        # 538 <_ZN7raidpir4util11rand_bitvec17hd731307c32727c8aE+0x538>
 538:	45 31 f6             	xor    %r14d,%r14d
 53b:	48 8b 5c 24 08       	mov    0x8(%rsp),%rbx
 540:	4c 8b 64 24 60       	mov    0x60(%rsp),%r12
 545:	e9 a9 00 00 00       	jmpq   5f3 <_ZN7raidpir4util11rand_bitvec17hd731307c32727c8aE+0x5f3>
 54a:	40 80 fd 40          	cmp    $0x40,%bpl
 54e:	75 35                	jne    585 <_ZN7raidpir4util11rand_bitvec17hd731307c32727c8aE+0x585>
 550:	48 c7 c0 ff ff ff ff 	mov    $0xffffffffffffffff,%rax
 557:	45 31 f6             	xor    %r14d,%r14d
 55a:	48 8b 5c 24 08       	mov    0x8(%rsp),%rbx
 55f:	49 8d 79 08          	lea    0x8(%r9),%rdi
 563:	45 84 c0             	test   %r8b,%r8b
 566:	74 7f                	je     5e7 <_ZN7raidpir4util11rand_bitvec17hd731307c32727c8aE+0x5e7>
 568:	44 89 c1             	mov    %r8d,%ecx
 56b:	f6 d9                	neg    %cl
 56d:	48 c7 c2 ff ff ff ff 	mov    $0xffffffffffffffff,%rdx
 574:	48 d3 e2             	shl    %cl,%rdx
 577:	48 f7 d2             	not    %rdx
 57a:	44 89 c1             	mov    %r8d,%ecx
 57d:	48 d3 e2             	shl    %cl,%rdx
 580:	48 f7 d2             	not    %rdx
 583:	eb 64                	jmp    5e9 <_ZN7raidpir4util11rand_bitvec17hd731307c32727c8aE+0x5e9>
 585:	45 84 c0             	test   %r8b,%r8b
 588:	74 34                	je     5be <_ZN7raidpir4util11rand_bitvec17hd731307c32727c8aE+0x5be>
 58a:	48 83 fe 01          	cmp    $0x1,%rsi
 58e:	48 8b 5c 24 08       	mov    0x8(%rsp),%rbx
 593:	75 3a                	jne    5cf <_ZN7raidpir4util11rand_bitvec17hd731307c32727c8aE+0x5cf>
 595:	44 28 c5             	sub    %r8b,%bpl
 598:	40 80 fd 40          	cmp    $0x40,%bpl
 59c:	0f 85 f0 00 00 00    	jne    692 <_ZN7raidpir4util11rand_bitvec17hd731307c32727c8aE+0x692>
 5a2:	31 c0                	xor    %eax,%eax
 5a4:	f0 49 21 01          	lock and %rax,(%r9)
 5a8:	4c 89 a4 24 a8 00 00 	mov    %r12,0xa8(%rsp)
 5af:	00 
 5b0:	4d 39 d4             	cmp    %r10,%r12
 5b3:	0f 86 80 00 00 00    	jbe    639 <_ZN7raidpir4util11rand_bitvec17hd731307c32727c8aE+0x639>
 5b9:	e9 01 01 00 00       	jmpq   6bf <_ZN7raidpir4util11rand_bitvec17hd731307c32727c8aE+0x6bf>
 5be:	4d 8d 34 f1          	lea    (%r9,%rsi,8),%r14
 5c2:	49 83 c6 f8          	add    $0xfffffffffffffff8,%r14
 5c6:	48 83 c6 ff          	add    $0xffffffffffffffff,%rsi
 5ca:	e9 52 ff ff ff       	jmpq   521 <_ZN7raidpir4util11rand_bitvec17hd731307c32727c8aE+0x521>
 5cf:	4d 8d 34 f1          	lea    (%r9,%rsi,8),%r14
 5d3:	49 83 c6 f8          	add    $0xfffffffffffffff8,%r14
 5d7:	48 c7 c0 fe ff ff ff 	mov    $0xfffffffffffffffe,%rax
 5de:	49 8d 79 08          	lea    0x8(%r9),%rdi
 5e2:	45 84 c0             	test   %r8b,%r8b
 5e5:	75 81                	jne    568 <_ZN7raidpir4util11rand_bitvec17hd731307c32727c8aE+0x568>
 5e7:	31 d2                	xor    %edx,%edx
 5e9:	48 01 c6             	add    %rax,%rsi
 5ec:	f0 49 21 11          	lock and %rdx,(%r9)
 5f0:	48 89 f2             	mov    %rsi,%rdx
 5f3:	48 c1 e2 03          	shl    $0x3,%rdx
 5f7:	31 f6                	xor    %esi,%esi
 5f9:	ff 15 00 00 00 00    	callq  *0x0(%rip)        # 5ff <_ZN7raidpir4util11rand_bitvec17hd731307c32727c8aE+0x5ff>
 5ff:	4d 85 f6             	test   %r14,%r14
 602:	49 ba ff ff ff ff ff 	movabs $0x1fffffffffffffff,%r10
 609:	ff ff 1f 
 60c:	74 1a                	je     628 <_ZN7raidpir4util11rand_bitvec17hd731307c32727c8aE+0x628>
 60e:	48 c7 c0 ff ff ff ff 	mov    $0xffffffffffffffff,%rax
 615:	89 e9                	mov    %ebp,%ecx
 617:	48 d3 e0             	shl    %cl,%rax
 61a:	31 c9                	xor    %ecx,%ecx
 61c:	40 80 fd 40          	cmp    $0x40,%bpl
 620:	48 0f 45 c8          	cmovne %rax,%rcx
 624:	f0 49 21 0e          	lock and %rcx,(%r14)
 628:	4c 89 a4 24 a8 00 00 	mov    %r12,0xa8(%rsp)
 62f:	00 
 630:	4d 39 d4             	cmp    %r10,%r12
 633:	0f 87 86 00 00 00    	ja     6bf <_ZN7raidpir4util11rand_bitvec17hd731307c32727c8aE+0x6bf>
 639:	b8 40 00 00 00       	mov    $0x40,%eax
 63e:	48 f7 63 10          	mulq   0x10(%rbx)
 642:	0f 80 38 01 00 00    	jo     780 <_ZN7raidpir4util11rand_bitvec17hd731307c32727c8aE+0x780>
 648:	48 8b 0b             	mov    (%rbx),%rcx
 64b:	48 8b 53 08          	mov    0x8(%rbx),%rdx
 64f:	89 ce                	mov    %ecx,%esi
 651:	83 e6 07             	and    $0x7,%esi
 654:	83 e2 07             	and    $0x7,%edx
 657:	48 8d 34 f2          	lea    (%rdx,%rsi,8),%rsi
 65b:	31 ff                	xor    %edi,%edi
 65d:	48 29 f0             	sub    %rsi,%rax
 660:	48 0f 43 f8          	cmovae %rax,%rdi
 664:	48 89 7c 24 68       	mov    %rdi,0x68(%rsp)
 669:	4c 39 e7             	cmp    %r12,%rdi
 66c:	0f 82 2c 01 00 00    	jb     79e <_ZN7raidpir4util11rand_bitvec17hd731307c32727c8aE+0x79e>
 672:	4a 8d 04 e2          	lea    (%rdx,%r12,8),%rax
 676:	48 89 0b             	mov    %rcx,(%rbx)
 679:	48 89 43 08          	mov    %rax,0x8(%rbx)
 67d:	48 89 d8             	mov    %rbx,%rax
 680:	48 81 c4 f8 01 00 00 	add    $0x1f8,%rsp
 687:	5b                   	pop    %rbx
 688:	41 5c                	pop    %r12
 68a:	41 5d                	pop    %r13
 68c:	41 5e                	pop    %r14
 68e:	41 5f                	pop    %r15
 690:	5d                   	pop    %rbp
 691:	c3                   	retq   
 692:	48 c7 c0 ff ff ff ff 	mov    $0xffffffffffffffff,%rax
 699:	89 e9                	mov    %ebp,%ecx
 69b:	48 d3 e0             	shl    %cl,%rax
 69e:	48 f7 d0             	not    %rax
 6a1:	44 89 c1             	mov    %r8d,%ecx
 6a4:	48 d3 e0             	shl    %cl,%rax
 6a7:	48 f7 d0             	not    %rax
 6aa:	f0 49 21 01          	lock and %rax,(%r9)
 6ae:	4c 89 a4 24 a8 00 00 	mov    %r12,0xa8(%rsp)
 6b5:	00 
 6b6:	4d 39 d4             	cmp    %r10,%r12
 6b9:	0f 86 7a ff ff ff    	jbe    639 <_ZN7raidpir4util11rand_bitvec17hd731307c32727c8aE+0x639>
 6bf:	48 8d 84 24 a8 00 00 	lea    0xa8(%rsp),%rax
 6c6:	00 
 6c7:	48 89 44 24 70       	mov    %rax,0x70(%rsp)
 6cc:	48 8b 05 00 00 00 00 	mov    0x0(%rip),%rax        # 6d3 <_ZN7raidpir4util11rand_bitvec17hd731307c32727c8aE+0x6d3>
 6d3:	48 89 44 24 78       	mov    %rax,0x78(%rsp)
 6d8:	48 8d 0d 00 00 00 00 	lea    0x0(%rip),%rcx        # 6df <_ZN7raidpir4util11rand_bitvec17hd731307c32727c8aE+0x6df>
 6df:	48 89 8c 24 80 00 00 	mov    %rcx,0x80(%rsp)
 6e6:	00 
 6e7:	48 89 84 24 88 00 00 	mov    %rax,0x88(%rsp)
 6ee:	00 
 6ef:	48 8d 05 00 00 00 00 	lea    0x0(%rip),%rax        # 6f6 <_ZN7raidpir4util11rand_bitvec17hd731307c32727c8aE+0x6f6>
 6f6:	48 89 44 24 10       	mov    %rax,0x10(%rsp)
 6fb:	48 c7 44 24 18 02 00 	movq   $0x2,0x18(%rsp)
 702:	00 00 
 704:	48 c7 44 24 20 00 00 	movq   $0x0,0x20(%rsp)
 70b:	00 00 
 70d:	48 8d 44 24 70       	lea    0x70(%rsp),%rax
 712:	48 89 44 24 30       	mov    %rax,0x30(%rsp)
 717:	48 c7 44 24 38 02 00 	movq   $0x2,0x38(%rsp)
 71e:	00 00 
 720:	48 8d 35 00 00 00 00 	lea    0x0(%rip),%rsi        # 727 <_ZN7raidpir4util11rand_bitvec17hd731307c32727c8aE+0x727>
 727:	48 8d 7c 24 10       	lea    0x10(%rsp),%rdi
 72c:	ff 15 00 00 00 00    	callq  *0x0(%rip)        # 732 <_ZN7raidpir4util11rand_bitvec17hd731307c32727c8aE+0x732>
 732:	e9 a1 01 00 00       	jmpq   8d8 <_ZN7raidpir4util11rand_bitvec17hd731307c32727c8aE+0x8d8>
 737:	be 08 00 00 00       	mov    $0x8,%esi
 73c:	48 89 df             	mov    %rbx,%rdi
 73f:	ff 15 00 00 00 00    	callq  *0x0(%rip)        # 745 <_ZN7raidpir4util11rand_bitvec17hd731307c32727c8aE+0x745>
 745:	0f 0b                	ud2    
 747:	48 89 4c 24 10       	mov    %rcx,0x10(%rsp)
 74c:	48 89 44 24 18       	mov    %rax,0x18(%rsp)
 751:	4c 89 7c 24 20       	mov    %r15,0x20(%rsp)
 756:	48 8d 3d 00 00 00 00 	lea    0x0(%rip),%rdi        # 75d <_ZN7raidpir4util11rand_bitvec17hd731307c32727c8aE+0x75d>
 75d:	48 8d 0d 00 00 00 00 	lea    0x0(%rip),%rcx        # 764 <_ZN7raidpir4util11rand_bitvec17hd731307c32727c8aE+0x764>
 764:	4c 8d 05 00 00 00 00 	lea    0x0(%rip),%r8        # 76b <_ZN7raidpir4util11rand_bitvec17hd731307c32727c8aE+0x76b>
 76b:	48 8d 54 24 10       	lea    0x10(%rsp),%rdx
 770:	be 33 00 00 00       	mov    $0x33,%esi
 775:	ff 15 00 00 00 00    	callq  *0x0(%rip)        # 77b <_ZN7raidpir4util11rand_bitvec17hd731307c32727c8aE+0x77b>
 77b:	e9 58 01 00 00       	jmpq   8d8 <_ZN7raidpir4util11rand_bitvec17hd731307c32727c8aE+0x8d8>
 780:	48 8d 3d 00 00 00 00 	lea    0x0(%rip),%rdi        # 787 <_ZN7raidpir4util11rand_bitvec17hd731307c32727c8aE+0x787>
 787:	48 8d 15 00 00 00 00 	lea    0x0(%rip),%rdx        # 78e <_ZN7raidpir4util11rand_bitvec17hd731307c32727c8aE+0x78e>
 78e:	be 18 00 00 00       	mov    $0x18,%esi
 793:	ff 15 00 00 00 00    	callq  *0x0(%rip)        # 799 <_ZN7raidpir4util11rand_bitvec17hd731307c32727c8aE+0x799>
 799:	e9 3a 01 00 00       	jmpq   8d8 <_ZN7raidpir4util11rand_bitvec17hd731307c32727c8aE+0x8d8>
 79e:	48 8d 84 24 a8 00 00 	lea    0xa8(%rsp),%rax
 7a5:	00 
 7a6:	48 89 44 24 70       	mov    %rax,0x70(%rsp)
 7ab:	48 8b 05 00 00 00 00 	mov    0x0(%rip),%rax        # 7b2 <_ZN7raidpir4util11rand_bitvec17hd731307c32727c8aE+0x7b2>
 7b2:	48 89 44 24 78       	mov    %rax,0x78(%rsp)
 7b7:	48 8d 4c 24 68       	lea    0x68(%rsp),%rcx
 7bc:	48 89 8c 24 80 00 00 	mov    %rcx,0x80(%rsp)
 7c3:	00 
 7c4:	48 89 84 24 88 00 00 	mov    %rax,0x88(%rsp)
 7cb:	00 
 7cc:	48 8d 05 00 00 00 00 	lea    0x0(%rip),%rax        # 7d3 <_ZN7raidpir4util11rand_bitvec17hd731307c32727c8aE+0x7d3>
 7d3:	48 89 44 24 10       	mov    %rax,0x10(%rsp)
 7d8:	48 c7 44 24 18 02 00 	movq   $0x2,0x18(%rsp)
 7df:	00 00 
 7e1:	48 c7 44 24 20 00 00 	movq   $0x0,0x20(%rsp)
 7e8:	00 00 
 7ea:	48 8d 44 24 70       	lea    0x70(%rsp),%rax
 7ef:	48 89 44 24 30       	mov    %rax,0x30(%rsp)
 7f4:	48 c7 44 24 38 02 00 	movq   $0x2,0x38(%rsp)
 7fb:	00 00 
 7fd:	48 8d 35 00 00 00 00 	lea    0x0(%rip),%rsi        # 804 <_ZN7raidpir4util11rand_bitvec17hd731307c32727c8aE+0x804>
 804:	48 8d 7c 24 10       	lea    0x10(%rsp),%rdi
 809:	ff 15 00 00 00 00    	callq  *0x0(%rip)        # 80f <_ZN7raidpir4util11rand_bitvec17hd731307c32727c8aE+0x80f>
 80f:	e9 c4 00 00 00       	jmpq   8d8 <_ZN7raidpir4util11rand_bitvec17hd731307c32727c8aE+0x8d8>
 814:	48 8d 3d 00 00 00 00 	lea    0x0(%rip),%rdi        # 81b <_ZN7raidpir4util11rand_bitvec17hd731307c32727c8aE+0x81b>
 81b:	48 8d 15 00 00 00 00 	lea    0x0(%rip),%rdx        # 822 <_ZN7raidpir4util11rand_bitvec17hd731307c32727c8aE+0x822>
 822:	be 18 00 00 00       	mov    $0x18,%esi
 827:	ff 15 00 00 00 00    	callq  *0x0(%rip)        # 82d <_ZN7raidpir4util11rand_bitvec17hd731307c32727c8aE+0x82d>
 82d:	e9 a6 00 00 00       	jmpq   8d8 <_ZN7raidpir4util11rand_bitvec17hd731307c32727c8aE+0x8d8>
 832:	48 8d 44 24 68       	lea    0x68(%rsp),%rax
 837:	48 89 44 24 70       	mov    %rax,0x70(%rsp)
 83c:	48 8b 05 00 00 00 00 	mov    0x0(%rip),%rax        # 843 <_ZN7raidpir4util11rand_bitvec17hd731307c32727c8aE+0x843>
 843:	48 89 44 24 78       	mov    %rax,0x78(%rsp)
 848:	48 8d 0d 00 00 00 00 	lea    0x0(%rip),%rcx        # 84f <_ZN7raidpir4util11rand_bitvec17hd731307c32727c8aE+0x84f>
 84f:	48 89 8c 24 80 00 00 	mov    %rcx,0x80(%rsp)
 856:	00 
 857:	48 89 84 24 88 00 00 	mov    %rax,0x88(%rsp)
 85e:	00 
 85f:	48 8d 05 00 00 00 00 	lea    0x0(%rip),%rax        # 866 <_ZN7raidpir4util11rand_bitvec17hd731307c32727c8aE+0x866>
 866:	48 89 44 24 10       	mov    %rax,0x10(%rsp)
 86b:	48 c7 44 24 18 02 00 	movq   $0x2,0x18(%rsp)
 872:	00 00 
 874:	48 c7 44 24 20 00 00 	movq   $0x0,0x20(%rsp)
 87b:	00 00 
 87d:	48 8d 44 24 70       	lea    0x70(%rsp),%rax
 882:	48 89 44 24 30       	mov    %rax,0x30(%rsp)
 887:	48 c7 44 24 38 02 00 	movq   $0x2,0x38(%rsp)
 88e:	00 00 
 890:	48 8d 35 00 00 00 00 	lea    0x0(%rip),%rsi        # 897 <_ZN7raidpir4util11rand_bitvec17hd731307c32727c8aE+0x897>
 897:	48 8d 7c 24 10       	lea    0x10(%rsp),%rdi
 89c:	ff 15 00 00 00 00    	callq  *0x0(%rip)        # 8a2 <_ZN7raidpir4util11rand_bitvec17hd731307c32727c8aE+0x8a2>
 8a2:	eb 34                	jmp    8d8 <_ZN7raidpir4util11rand_bitvec17hd731307c32727c8aE+0x8d8>
 8a4:	48 8d 3d 00 00 00 00 	lea    0x0(%rip),%rdi        # 8ab <_ZN7raidpir4util11rand_bitvec17hd731307c32727c8aE+0x8ab>
 8ab:	48 8d 15 00 00 00 00 	lea    0x0(%rip),%rdx        # 8b2 <_ZN7raidpir4util11rand_bitvec17hd731307c32727c8aE+0x8b2>
 8b2:	be 18 00 00 00       	mov    $0x18,%esi
 8b7:	ff 15 00 00 00 00    	callq  *0x0(%rip)        # 8bd <_ZN7raidpir4util11rand_bitvec17hd731307c32727c8aE+0x8bd>
 8bd:	eb 19                	jmp    8d8 <_ZN7raidpir4util11rand_bitvec17hd731307c32727c8aE+0x8d8>
 8bf:	48 8d 3d 00 00 00 00 	lea    0x0(%rip),%rdi        # 8c6 <_ZN7raidpir4util11rand_bitvec17hd731307c32727c8aE+0x8c6>
 8c6:	48 8d 15 00 00 00 00 	lea    0x0(%rip),%rdx        # 8cd <_ZN7raidpir4util11rand_bitvec17hd731307c32727c8aE+0x8cd>
 8cd:	be 18 00 00 00       	mov    $0x18,%esi
 8d2:	ff 15 00 00 00 00    	callq  *0x0(%rip)        # 8d8 <_ZN7raidpir4util11rand_bitvec17hd731307c32727c8aE+0x8d8>
 8d8:	0f 0b                	ud2    
 8da:	48 89 c3             	mov    %rax,%rbx
 8dd:	48 8d 7c 24 10       	lea    0x10(%rsp),%rdi
 8e2:	e8 00 00 00 00       	callq  8e7 <_ZN7raidpir4util11rand_bitvec17hd731307c32727c8aE+0x8e7>
 8e7:	eb 21                	jmp    90a <_ZN7raidpir4util11rand_bitvec17hd731307c32727c8aE+0x90a>
 8e9:	48 89 c3             	mov    %rax,%rbx
 8ec:	eb 1c                	jmp    90a <_ZN7raidpir4util11rand_bitvec17hd731307c32727c8aE+0x90a>
 8ee:	48 89 c3             	mov    %rax,%rbx
 8f1:	48 8b 7c 24 08       	mov    0x8(%rsp),%rdi
 8f6:	e8 00 00 00 00       	callq  8fb <_ZN7raidpir4util11rand_bitvec17hd731307c32727c8aE+0x8fb>
 8fb:	eb 0d                	jmp    90a <_ZN7raidpir4util11rand_bitvec17hd731307c32727c8aE+0x90a>
 8fd:	48 89 c3             	mov    %rax,%rbx
 900:	48 8d 7c 24 48       	lea    0x48(%rsp),%rdi
 905:	e8 00 00 00 00       	callq  90a <_ZN7raidpir4util11rand_bitvec17hd731307c32727c8aE+0x90a>
 90a:	48 89 df             	mov    %rbx,%rdi
 90d:	e8 00 00 00 00       	callq  912 <_ZN7raidpir4util11rand_bitvec17hd731307c32727c8aE+0x912>
 912:	0f 0b                	ud2    

Disassembly of section .text._ZN7raidpir4util14xor_into_slice17ha3fa279a44b34cafE:

0000000000000000 <_ZN7raidpir4util14xor_into_slice17ha3fa279a44b34cafE>:
   0:	48 83 ec 48          	sub    $0x48,%rsp
   4:	48 39 ce             	cmp    %rcx,%rsi
   7:	48 89 7c 24 28       	mov    %rdi,0x28(%rsp)
   c:	48 89 74 24 30       	mov    %rsi,0x30(%rsp)
  11:	48 0f 47 f1          	cmova  %rcx,%rsi
  15:	48 89 54 24 38       	mov    %rdx,0x38(%rsp)
  1a:	48 89 4c 24 40       	mov    %rcx,0x40(%rsp)
  1f:	48 89 74 24 10       	mov    %rsi,0x10(%rsp)
  24:	48 8d 44 24 08       	lea    0x8(%rsp),%rax
  29:	48 89 44 24 18       	mov    %rax,0x18(%rsp)
  2e:	48 c7 44 24 20 00 00 	movq   $0x10000,0x20(%rsp)
  35:	01 00 
  37:	48 8d 7c 24 28       	lea    0x28(%rsp),%rdi
  3c:	48 8d 74 24 10       	lea    0x10(%rsp),%rsi
  41:	e8 00 00 00 00       	callq  46 <_ZN7raidpir4util14xor_into_slice17ha3fa279a44b34cafE+0x46>
  46:	48 83 c4 48          	add    $0x48,%rsp
  4a:	c3                   	retq   

raidpir-af98855fa7dd616c.raidpir.b7a4ri6o-cgu.13.rcgu.o:     file format elf64-x86-64


Disassembly of section .text._ZN4core5slice6rotate10ptr_rotate17h8cdc0fbf694a3d99E:

0000000000000000 <_ZN4core5slice6rotate10ptr_rotate17h8cdc0fbf694a3d99E>:
   0:	55                   	push   %rbp
   1:	41 57                	push   %r15
   3:	41 56                	push   %r14
   5:	41 55                	push   %r13
   7:	41 54                	push   %r12
   9:	53                   	push   %rbx
   a:	48 81 ec 18 01 00 00 	sub    $0x118,%rsp
  11:	48 85 ff             	test   %rdi,%rdi
  14:	0f 84 2f 04 00 00    	je     449 <_ZN4core5slice6rotate10ptr_rotate17h8cdc0fbf694a3d99E+0x449>
  1a:	48 89 d5             	mov    %rdx,%rbp
  1d:	48 85 d2             	test   %rdx,%rdx
  20:	0f 84 23 04 00 00    	je     449 <_ZN4core5slice6rotate10ptr_rotate17h8cdc0fbf694a3d99E+0x449>
  26:	49 89 f5             	mov    %rsi,%r13
  29:	49 89 ff             	mov    %rdi,%r15
  2c:	0f 1f 40 00          	nopl   0x0(%rax)
  30:	49 8d 04 2f          	lea    (%r15,%rbp,1),%rax
  34:	48 83 f8 18          	cmp    $0x18,%rax
  38:	0f 82 d9 02 00 00    	jb     317 <_ZN4core5slice6rotate10ptr_rotate17h8cdc0fbf694a3d99E+0x317>
  3e:	49 39 ef             	cmp    %rbp,%r15
  41:	4c 89 f8             	mov    %r15,%rax
  44:	48 0f 47 c5          	cmova  %rbp,%rax
  48:	48 83 f8 21          	cmp    $0x21,%rax
  4c:	0f 82 11 03 00 00    	jb     363 <_ZN4core5slice6rotate10ptr_rotate17h8cdc0fbf694a3d99E+0x363>
  52:	49 39 ef             	cmp    %rbp,%r15
  55:	0f 83 85 00 00 00    	jae    e0 <_ZN4core5slice6rotate10ptr_rotate17h8cdc0fbf694a3d99E+0xe0>
  5b:	4e 8d 34 fd 00 00 00 	lea    0x0(,%r15,8),%r14
  62:	00 
  63:	49 83 fe 20          	cmp    $0x20,%r14
  67:	0f 83 f3 00 00 00    	jae    160 <_ZN4core5slice6rotate10ptr_rotate17h8cdc0fbf694a3d99E+0x160>
  6d:	4d 85 f6             	test   %r14,%r14
  70:	0f 84 5a 00 00 00    	je     d0 <_ZN4core5slice6rotate10ptr_rotate17h8cdc0fbf694a3d99E+0xd0>
  76:	4c 89 f0             	mov    %r14,%rax
  79:	48 f7 d8             	neg    %rax
  7c:	48 89 04 24          	mov    %rax,(%rsp)
  80:	48 8b 04 24          	mov    (%rsp),%rax
  84:	4a 8d 1c 28          	lea    (%rax,%r13,1),%rbx
  88:	48 8d 7c 24 18       	lea    0x18(%rsp),%rdi
  8d:	48 89 de             	mov    %rbx,%rsi
  90:	4c 89 f2             	mov    %r14,%rdx
  93:	4c 8b 25 00 00 00 00 	mov    0x0(%rip),%r12        # 9a <_ZN4core5slice6rotate10ptr_rotate17h8cdc0fbf694a3d99E+0x9a>
  9a:	c5 f8 77             	vzeroupper 
  9d:	41 ff d4             	callq  *%r12
  a0:	48 89 df             	mov    %rbx,%rdi
  a3:	4c 89 ee             	mov    %r13,%rsi
  a6:	4c 89 f2             	mov    %r14,%rdx
  a9:	41 ff d4             	callq  *%r12
  ac:	4c 89 ef             	mov    %r13,%rdi
  af:	48 8d 74 24 18       	lea    0x18(%rsp),%rsi
  b4:	4c 89 f2             	mov    %r14,%rdx
  b7:	41 ff d4             	callq  *%r12
  ba:	4c 29 fd             	sub    %r15,%rbp
  bd:	4d 01 f5             	add    %r14,%r13
  c0:	4c 39 fd             	cmp    %r15,%rbp
  c3:	0f 83 b7 ff ff ff    	jae    80 <_ZN4core5slice6rotate10ptr_rotate17h8cdc0fbf694a3d99E+0x80>
  c9:	e9 32 02 00 00       	jmpq   300 <_ZN4core5slice6rotate10ptr_rotate17h8cdc0fbf694a3d99E+0x300>
  ce:	66 90                	xchg   %ax,%ax
  d0:	4c 29 fd             	sub    %r15,%rbp
  d3:	4d 01 f5             	add    %r14,%r13
  d6:	4c 39 fd             	cmp    %r15,%rbp
  d9:	73 f5                	jae    d0 <_ZN4core5slice6rotate10ptr_rotate17h8cdc0fbf694a3d99E+0xd0>
  db:	e9 20 02 00 00       	jmpq   300 <_ZN4core5slice6rotate10ptr_rotate17h8cdc0fbf694a3d99E+0x300>
  e0:	48 8d 1c ed 00 00 00 	lea    0x0(,%rbp,8),%rbx
  e7:	00 
  e8:	48 83 fb 20          	cmp    $0x20,%rbx
  ec:	0f 83 2e 01 00 00    	jae    220 <_ZN4core5slice6rotate10ptr_rotate17h8cdc0fbf694a3d99E+0x220>
  f2:	48 85 db             	test   %rbx,%rbx
  f5:	0f 84 ec 01 00 00    	je     2e7 <_ZN4core5slice6rotate10ptr_rotate17h8cdc0fbf694a3d99E+0x2e7>
  fb:	48 89 d8             	mov    %rbx,%rax
  fe:	48 f7 d8             	neg    %rax
 101:	48 89 04 24          	mov    %rax,(%rsp)
 105:	66 2e 0f 1f 84 00 00 	nopw   %cs:0x0(%rax,%rax,1)
 10c:	00 00 00 
 10f:	90                   	nop
 110:	4d 89 ec             	mov    %r13,%r12
 113:	48 8b 04 24          	mov    (%rsp),%rax
 117:	49 01 c5             	add    %rax,%r13
 11a:	48 8d 7c 24 18       	lea    0x18(%rsp),%rdi
 11f:	4c 89 ee             	mov    %r13,%rsi
 122:	48 89 da             	mov    %rbx,%rdx
 125:	4c 8b 35 00 00 00 00 	mov    0x0(%rip),%r14        # 12c <_ZN4core5slice6rotate10ptr_rotate17h8cdc0fbf694a3d99E+0x12c>
 12c:	c5 f8 77             	vzeroupper 
 12f:	41 ff d6             	callq  *%r14
 132:	4c 89 ef             	mov    %r13,%rdi
 135:	4c 89 e6             	mov    %r12,%rsi
 138:	48 89 da             	mov    %rbx,%rdx
 13b:	41 ff d6             	callq  *%r14
 13e:	4c 89 e7             	mov    %r12,%rdi
 141:	48 8d 74 24 18       	lea    0x18(%rsp),%rsi
 146:	48 89 da             	mov    %rbx,%rdx
 149:	41 ff d6             	callq  *%r14
 14c:	49 29 ef             	sub    %rbp,%r15
 14f:	49 39 ef             	cmp    %rbp,%r15
 152:	0f 83 b8 ff ff ff    	jae    110 <_ZN4core5slice6rotate10ptr_rotate17h8cdc0fbf694a3d99E+0x110>
 158:	e9 a3 01 00 00       	jmpq   300 <_ZN4core5slice6rotate10ptr_rotate17h8cdc0fbf694a3d99E+0x300>
 15d:	0f 1f 00             	nopl   (%rax)
 160:	4c 89 f8             	mov    %r15,%rax
 163:	48 f7 d8             	neg    %rax
 166:	48 8d 1c c5 00 00 00 	lea    0x0(,%rax,8),%rbx
 16d:	00 
 16e:	4c 01 eb             	add    %r13,%rbx
 171:	e9 21 00 00 00       	jmpq   197 <_ZN4core5slice6rotate10ptr_rotate17h8cdc0fbf694a3d99E+0x197>
 176:	66 2e 0f 1f 84 00 00 	nopw   %cs:0x0(%rax,%rax,1)
 17d:	00 00 00 
 180:	4d 01 f5             	add    %r14,%r13
 183:	48 8b 6c 24 08       	mov    0x8(%rsp),%rbp
 188:	4c 29 fd             	sub    %r15,%rbp
 18b:	4c 01 f3             	add    %r14,%rbx
 18e:	4c 39 fd             	cmp    %r15,%rbp
 191:	0f 82 69 01 00 00    	jb     300 <_ZN4core5slice6rotate10ptr_rotate17h8cdc0fbf694a3d99E+0x300>
 197:	48 89 6c 24 08       	mov    %rbp,0x8(%rsp)
 19c:	31 ed                	xor    %ebp,%ebp
 19e:	66 90                	xchg   %ax,%ax
 1a0:	48 89 e8             	mov    %rbp,%rax
 1a3:	c5 fc 10 04 2b       	vmovups (%rbx,%rbp,1),%ymm0
 1a8:	c4 c1 7c 10 4c 2d 00 	vmovups 0x0(%r13,%rbp,1),%ymm1
 1af:	c5 fc 11 0c 2b       	vmovups %ymm1,(%rbx,%rbp,1)
 1b4:	c4 c1 7c 11 44 2d 00 	vmovups %ymm0,0x0(%r13,%rbp,1)
 1bb:	48 83 c5 20          	add    $0x20,%rbp
 1bf:	48 83 c0 40          	add    $0x40,%rax
 1c3:	4c 39 f0             	cmp    %r14,%rax
 1c6:	0f 86 d4 ff ff ff    	jbe    1a0 <_ZN4core5slice6rotate10ptr_rotate17h8cdc0fbf694a3d99E+0x1a0>
 1cc:	4d 89 f4             	mov    %r14,%r12
 1cf:	49 29 ec             	sub    %rbp,%r12
 1d2:	0f 86 a8 ff ff ff    	jbe    180 <_ZN4core5slice6rotate10ptr_rotate17h8cdc0fbf694a3d99E+0x180>
 1d8:	48 8d 34 2b          	lea    (%rbx,%rbp,1),%rsi
 1dc:	48 89 34 24          	mov    %rsi,(%rsp)
 1e0:	4c 01 ed             	add    %r13,%rbp
 1e3:	48 8d 7c 24 18       	lea    0x18(%rsp),%rdi
 1e8:	4c 89 e2             	mov    %r12,%rdx
 1eb:	c5 f8 77             	vzeroupper 
 1ee:	ff 15 00 00 00 00    	callq  *0x0(%rip)        # 1f4 <_ZN4core5slice6rotate10ptr_rotate17h8cdc0fbf694a3d99E+0x1f4>
 1f4:	48 8b 3c 24          	mov    (%rsp),%rdi
 1f8:	48 89 ee             	mov    %rbp,%rsi
 1fb:	4c 89 e2             	mov    %r12,%rdx
 1fe:	ff 15 00 00 00 00    	callq  *0x0(%rip)        # 204 <_ZN4core5slice6rotate10ptr_rotate17h8cdc0fbf694a3d99E+0x204>
 204:	48 89 ef             	mov    %rbp,%rdi
 207:	48 8d 74 24 18       	lea    0x18(%rsp),%rsi
 20c:	4c 89 e2             	mov    %r12,%rdx
 20f:	ff 15 00 00 00 00    	callq  *0x0(%rip)        # 215 <_ZN4core5slice6rotate10ptr_rotate17h8cdc0fbf694a3d99E+0x215>
 215:	e9 66 ff ff ff       	jmpq   180 <_ZN4core5slice6rotate10ptr_rotate17h8cdc0fbf694a3d99E+0x180>
 21a:	66 0f 1f 44 00 00    	nopw   0x0(%rax,%rax,1)
 220:	48 89 e8             	mov    %rbp,%rax
 223:	48 f7 d8             	neg    %rax
 226:	4c 8d 34 c5 00 00 00 	lea    0x0(,%rax,8),%r14
 22d:	00 
 22e:	4d 01 ee             	add    %r13,%r14
 231:	48 89 da             	mov    %rbx,%rdx
 234:	48 f7 da             	neg    %rdx
 237:	48 89 6c 24 08       	mov    %rbp,0x8(%rsp)
 23c:	48 89 54 24 10       	mov    %rdx,0x10(%rsp)
 241:	e9 1e 00 00 00       	jmpq   264 <_ZN4core5slice6rotate10ptr_rotate17h8cdc0fbf694a3d99E+0x264>
 246:	66 2e 0f 1f 84 00 00 	nopw   %cs:0x0(%rax,%rax,1)
 24d:	00 00 00 
 250:	48 8b 6c 24 08       	mov    0x8(%rsp),%rbp
 255:	49 29 ef             	sub    %rbp,%r15
 258:	49 01 d6             	add    %rdx,%r14
 25b:	49 39 ef             	cmp    %rbp,%r15
 25e:	0f 82 9c 00 00 00    	jb     300 <_ZN4core5slice6rotate10ptr_rotate17h8cdc0fbf694a3d99E+0x300>
 264:	4c 89 ed             	mov    %r13,%rbp
 267:	49 01 d5             	add    %rdx,%r13
 26a:	31 c0                	xor    %eax,%eax
 26c:	0f 1f 40 00          	nopl   0x0(%rax)
 270:	48 89 c1             	mov    %rax,%rcx
 273:	c4 c1 7c 10 04 06    	vmovups (%r14,%rax,1),%ymm0
 279:	c5 fc 10 4c 05 00    	vmovups 0x0(%rbp,%rax,1),%ymm1
 27f:	c4 c1 7c 11 0c 06    	vmovups %ymm1,(%r14,%rax,1)
 285:	c5 fc 11 44 05 00    	vmovups %ymm0,0x0(%rbp,%rax,1)
 28b:	48 83 c0 20          	add    $0x20,%rax
 28f:	48 83 c1 40          	add    $0x40,%rcx
 293:	48 39 d9             	cmp    %rbx,%rcx
 296:	76 d8                	jbe    270 <_ZN4core5slice6rotate10ptr_rotate17h8cdc0fbf694a3d99E+0x270>
 298:	49 89 dc             	mov    %rbx,%r12
 29b:	49 29 c4             	sub    %rax,%r12
 29e:	76 b0                	jbe    250 <_ZN4core5slice6rotate10ptr_rotate17h8cdc0fbf694a3d99E+0x250>
 2a0:	49 8d 34 06          	lea    (%r14,%rax,1),%rsi
 2a4:	48 89 34 24          	mov    %rsi,(%rsp)
 2a8:	48 01 c5             	add    %rax,%rbp
 2ab:	48 8d 7c 24 18       	lea    0x18(%rsp),%rdi
 2b0:	4c 89 e2             	mov    %r12,%rdx
 2b3:	c5 f8 77             	vzeroupper 
 2b6:	ff 15 00 00 00 00    	callq  *0x0(%rip)        # 2bc <_ZN4core5slice6rotate10ptr_rotate17h8cdc0fbf694a3d99E+0x2bc>
 2bc:	48 8b 3c 24          	mov    (%rsp),%rdi
 2c0:	48 89 ee             	mov    %rbp,%rsi
 2c3:	4c 89 e2             	mov    %r12,%rdx
 2c6:	ff 15 00 00 00 00    	callq  *0x0(%rip)        # 2cc <_ZN4core5slice6rotate10ptr_rotate17h8cdc0fbf694a3d99E+0x2cc>
 2cc:	48 89 ef             	mov    %rbp,%rdi
 2cf:	48 8d 74 24 18       	lea    0x18(%rsp),%rsi
 2d4:	4c 89 e2             	mov    %r12,%rdx
 2d7:	ff 15 00 00 00 00    	callq  *0x0(%rip)        # 2dd <_ZN4core5slice6rotate10ptr_rotate17h8cdc0fbf694a3d99E+0x2dd>
 2dd:	48 8b 54 24 10       	mov    0x10(%rsp),%rdx
 2e2:	e9 69 ff ff ff       	jmpq   250 <_ZN4core5slice6rotate10ptr_rotate17h8cdc0fbf694a3d99E+0x250>
 2e7:	48 f7 db             	neg    %rbx
 2ea:	66 0f 1f 44 00 00    	nopw   0x0(%rax,%rax,1)
 2f0:	49 01 dd             	add    %rbx,%r13
 2f3:	49 29 ef             	sub    %rbp,%r15
 2f6:	49 39 ef             	cmp    %rbp,%r15
 2f9:	0f 83 f1 ff ff ff    	jae    2f0 <_ZN4core5slice6rotate10ptr_rotate17h8cdc0fbf694a3d99E+0x2f0>
 2ff:	90                   	nop
 300:	48 85 ed             	test   %rbp,%rbp
 303:	0f 84 40 01 00 00    	je     449 <_ZN4core5slice6rotate10ptr_rotate17h8cdc0fbf694a3d99E+0x449>
 309:	4d 85 ff             	test   %r15,%r15
 30c:	0f 85 1e fd ff ff    	jne    30 <_ZN4core5slice6rotate10ptr_rotate17h8cdc0fbf694a3d99E+0x30>
 312:	e9 32 01 00 00       	jmpq   449 <_ZN4core5slice6rotate10ptr_rotate17h8cdc0fbf694a3d99E+0x449>
 317:	4c 89 f9             	mov    %r15,%rcx
 31a:	48 f7 d9             	neg    %rcx
 31d:	4a 8d 04 fd 00 00 00 	lea    0x0(,%r15,8),%rax
 324:	00 
 325:	49 29 c5             	sub    %rax,%r13
 328:	49 8b 55 00          	mov    0x0(%r13),%rdx
 32c:	48 89 e8             	mov    %rbp,%rax
 32f:	48 89 ee             	mov    %rbp,%rsi
 332:	e9 0c 00 00 00       	jmpq   343 <_ZN4core5slice6rotate10ptr_rotate17h8cdc0fbf694a3d99E+0x343>
 337:	66 0f 1f 84 00 00 00 	nopw   0x0(%rax,%rax,1)
 33e:	00 00 
 340:	48 01 ee             	add    %rbp,%rsi
 343:	48 89 d7             	mov    %rdx,%rdi
 346:	49 8b 54 f5 00       	mov    0x0(%r13,%rsi,8),%rdx
 34b:	49 89 7c f5 00       	mov    %rdi,0x0(%r13,%rsi,8)
 350:	4c 39 fe             	cmp    %r15,%rsi
 353:	72 eb                	jb     340 <_ZN4core5slice6rotate10ptr_rotate17h8cdc0fbf694a3d99E+0x340>
 355:	48 01 ce             	add    %rcx,%rsi
 358:	74 63                	je     3bd <_ZN4core5slice6rotate10ptr_rotate17h8cdc0fbf694a3d99E+0x3bd>
 35a:	48 39 c6             	cmp    %rax,%rsi
 35d:	48 0f 42 c6          	cmovb  %rsi,%rax
 361:	eb e0                	jmp    343 <_ZN4core5slice6rotate10ptr_rotate17h8cdc0fbf694a3d99E+0x343>
 363:	4e 8d 34 fd 00 00 00 	lea    0x0(,%r15,8),%r14
 36a:	00 
 36b:	4c 89 eb             	mov    %r13,%rbx
 36e:	4c 29 f3             	sub    %r14,%rbx
 371:	4c 8d 24 eb          	lea    (%rbx,%rbp,8),%r12
 375:	49 39 ef             	cmp    %rbp,%r15
 378:	0f 86 92 00 00 00    	jbe    410 <_ZN4core5slice6rotate10ptr_rotate17h8cdc0fbf694a3d99E+0x410>
 37e:	48 c1 e5 03          	shl    $0x3,%rbp
 382:	4c 8d 7c 24 18       	lea    0x18(%rsp),%r15
 387:	4c 89 ff             	mov    %r15,%rdi
 38a:	4c 89 ee             	mov    %r13,%rsi
 38d:	48 89 ea             	mov    %rbp,%rdx
 390:	4c 8b 2d 00 00 00 00 	mov    0x0(%rip),%r13        # 397 <_ZN4core5slice6rotate10ptr_rotate17h8cdc0fbf694a3d99E+0x397>
 397:	c5 f8 77             	vzeroupper 
 39a:	41 ff d5             	callq  *%r13
 39d:	4c 89 e7             	mov    %r12,%rdi
 3a0:	48 89 de             	mov    %rbx,%rsi
 3a3:	4c 89 f2             	mov    %r14,%rdx
 3a6:	ff 15 00 00 00 00    	callq  *0x0(%rip)        # 3ac <_ZN4core5slice6rotate10ptr_rotate17h8cdc0fbf694a3d99E+0x3ac>
 3ac:	48 89 df             	mov    %rbx,%rdi
 3af:	4c 89 fe             	mov    %r15,%rsi
 3b2:	48 89 ea             	mov    %rbp,%rdx
 3b5:	41 ff d5             	callq  *%r13
 3b8:	e9 8c 00 00 00       	jmpq   449 <_ZN4core5slice6rotate10ptr_rotate17h8cdc0fbf694a3d99E+0x449>
 3bd:	49 89 55 00          	mov    %rdx,0x0(%r13)
 3c1:	48 83 f8 02          	cmp    $0x2,%rax
 3c5:	0f 82 7e 00 00 00    	jb     449 <_ZN4core5slice6rotate10ptr_rotate17h8cdc0fbf694a3d99E+0x449>
 3cb:	b9 01 00 00 00       	mov    $0x1,%ecx
 3d0:	49 8b 54 cd 00       	mov    0x0(%r13,%rcx,8),%rdx
 3d5:	48 8d 34 29          	lea    (%rcx,%rbp,1),%rsi
 3d9:	e9 05 00 00 00       	jmpq   3e3 <_ZN4core5slice6rotate10ptr_rotate17h8cdc0fbf694a3d99E+0x3e3>
 3de:	66 90                	xchg   %ax,%ax
 3e0:	48 01 ee             	add    %rbp,%rsi
 3e3:	48 89 d7             	mov    %rdx,%rdi
 3e6:	49 8b 54 f5 00       	mov    0x0(%r13,%rsi,8),%rdx
 3eb:	49 89 7c f5 00       	mov    %rdi,0x0(%r13,%rsi,8)
 3f0:	48 89 f7             	mov    %rsi,%rdi
 3f3:	4c 29 ff             	sub    %r15,%rdi
 3f6:	72 e8                	jb     3e0 <_ZN4core5slice6rotate10ptr_rotate17h8cdc0fbf694a3d99E+0x3e0>
 3f8:	48 89 fe             	mov    %rdi,%rsi
 3fb:	48 39 cf             	cmp    %rcx,%rdi
 3fe:	75 e3                	jne    3e3 <_ZN4core5slice6rotate10ptr_rotate17h8cdc0fbf694a3d99E+0x3e3>
 400:	49 89 54 cd 00       	mov    %rdx,0x0(%r13,%rcx,8)
 405:	48 83 c1 01          	add    $0x1,%rcx
 409:	48 39 c1             	cmp    %rax,%rcx
 40c:	75 c2                	jne    3d0 <_ZN4core5slice6rotate10ptr_rotate17h8cdc0fbf694a3d99E+0x3d0>
 40e:	eb 39                	jmp    449 <_ZN4core5slice6rotate10ptr_rotate17h8cdc0fbf694a3d99E+0x449>
 410:	48 8d 7c 24 18       	lea    0x18(%rsp),%rdi
 415:	48 89 de             	mov    %rbx,%rsi
 418:	4c 89 f2             	mov    %r14,%rdx
 41b:	4c 8b 3d 00 00 00 00 	mov    0x0(%rip),%r15        # 422 <_ZN4core5slice6rotate10ptr_rotate17h8cdc0fbf694a3d99E+0x422>
 422:	c5 f8 77             	vzeroupper 
 425:	41 ff d7             	callq  *%r15
 428:	48 c1 e5 03          	shl    $0x3,%rbp
 42c:	48 89 df             	mov    %rbx,%rdi
 42f:	4c 89 ee             	mov    %r13,%rsi
 432:	48 89 ea             	mov    %rbp,%rdx
 435:	ff 15 00 00 00 00    	callq  *0x0(%rip)        # 43b <_ZN4core5slice6rotate10ptr_rotate17h8cdc0fbf694a3d99E+0x43b>
 43b:	4c 89 e7             	mov    %r12,%rdi
 43e:	48 8d 74 24 18       	lea    0x18(%rsp),%rsi
 443:	4c 89 f2             	mov    %r14,%rdx
 446:	41 ff d7             	callq  *%r15
 449:	48 81 c4 18 01 00 00 	add    $0x118,%rsp
 450:	5b                   	pop    %rbx
 451:	41 5c                	pop    %r12
 453:	41 5d                	pop    %r13
 455:	41 5e                	pop    %r14
 457:	41 5f                	pop    %r15
 459:	5d                   	pop    %rbp
 45a:	c5 f8 77             	vzeroupper 
 45d:	c3                   	retq   

raidpir-af98855fa7dd616c.raidpir.b7a4ri6o-cgu.14.rcgu.o:     file format elf64-x86-64


Disassembly of section .text._ZN4core3ops8function5impls71_$LT$impl$u20$core..ops..function..FnMut$LT$A$GT$$u20$for$u20$$RF$F$GT$8call_mut17h45b6d4dad1248f4fE:

0000000000000000 <_ZN4core3ops8function5impls71_$LT$impl$u20$core..ops..function..FnMut$LT$A$GT$$u20$for$u20$$RF$F$GT$8call_mut17h45b6d4dad1248f4fE>:
   0:	53                   	push   %rbx
   1:	48 89 fb             	mov    %rdi,%rbx
   4:	48 8b 06             	mov    (%rsi),%rax
   7:	48 8b 32             	mov    (%rdx),%rsi
   a:	48 8b 08             	mov    (%rax),%rcx
   d:	48 8b 40 08          	mov    0x8(%rax),%rax
  11:	48 8b 00             	mov    (%rax),%rax
  14:	48 8b 50 18          	mov    0x18(%rax),%rdx
  18:	48 83 c2 ff          	add    $0xffffffffffffffff,%rdx
  1c:	48 0f af 11          	imul   (%rcx),%rdx
  20:	ff 15 00 00 00 00    	callq  *0x0(%rip)        # 26 <_ZN4core3ops8function5impls71_$LT$impl$u20$core..ops..function..FnMut$LT$A$GT$$u20$for$u20$$RF$F$GT$8call_mut17h45b6d4dad1248f4fE+0x26>
  26:	48 89 d8             	mov    %rbx,%rax
  29:	5b                   	pop    %rbx
  2a:	c3                   	retq   

Disassembly of section .text._ZN4core3ptr13drop_in_place17h1a00ded7c8846526E:

0000000000000000 <_ZN4core3ptr13drop_in_place17h1a00ded7c8846526E>:
   0:	41 57                	push   %r15
   2:	41 56                	push   %r14
   4:	41 54                	push   %r12
   6:	53                   	push   %rbx
   7:	50                   	push   %rax
   8:	4c 8b 77 10          	mov    0x10(%rdi),%r14
   c:	b9 40 00 00 00       	mov    $0x40,%ecx
  11:	4c 89 f0             	mov    %r14,%rax
  14:	48 f7 e1             	mul    %rcx
  17:	70 48                	jo     61 <_ZN4core3ptr13drop_in_place17h1a00ded7c8846526E+0x61>
  19:	48 89 fb             	mov    %rdi,%rbx
  1c:	4c 8b 3f             	mov    (%rdi),%r15
  1f:	4c 8b 67 08          	mov    0x8(%rdi),%r12
  23:	41 83 e4 07          	and    $0x7,%r12d
  27:	4c 89 67 08          	mov    %r12,0x8(%rdi)
  2b:	4d 85 f6             	test   %r14,%r14
  2e:	74 1a                	je     4a <_ZN4core3ptr13drop_in_place17h1a00ded7c8846526E+0x4a>
  30:	4c 89 ff             	mov    %r15,%rdi
  33:	48 83 e7 f8          	and    $0xfffffffffffffff8,%rdi
  37:	4a 8d 34 f5 00 00 00 	lea    0x0(,%r14,8),%rsi
  3e:	00 
  3f:	ba 08 00 00 00       	mov    $0x8,%edx
  44:	ff 15 00 00 00 00    	callq  *0x0(%rip)        # 4a <_ZN4core3ptr13drop_in_place17h1a00ded7c8846526E+0x4a>
  4a:	4c 89 3b             	mov    %r15,(%rbx)
  4d:	4c 89 63 08          	mov    %r12,0x8(%rbx)
  51:	4c 89 73 10          	mov    %r14,0x10(%rbx)
  55:	48 83 c4 08          	add    $0x8,%rsp
  59:	5b                   	pop    %rbx
  5a:	41 5c                	pop    %r12
  5c:	41 5e                	pop    %r14
  5e:	41 5f                	pop    %r15
  60:	c3                   	retq   
  61:	48 8d 3d 00 00 00 00 	lea    0x0(%rip),%rdi        # 68 <_ZN4core3ptr13drop_in_place17h1a00ded7c8846526E+0x68>
  68:	48 8d 15 00 00 00 00 	lea    0x0(%rip),%rdx        # 6f <_ZN4core3ptr13drop_in_place17h1a00ded7c8846526E+0x6f>
  6f:	be 18 00 00 00       	mov    $0x18,%esi
  74:	ff 15 00 00 00 00    	callq  *0x0(%rip)        # 7a <_ZN4core3ptr13drop_in_place17h1a00ded7c8846526E+0x7a>
  7a:	0f 0b                	ud2    

Disassembly of section .text._ZN4core3ptr13drop_in_place17h75727cee2904491bE:

0000000000000000 <_ZN4core3ptr13drop_in_place17h75727cee2904491bE>:
   0:	c3                   	retq   

Disassembly of section .text._ZN4core3ptr13drop_in_place17h8e6b8f26ee3bd574E:

0000000000000000 <_ZN4core3ptr13drop_in_place17h8e6b8f26ee3bd574E>:
   0:	48 8b 77 08          	mov    0x8(%rdi),%rsi
   4:	48 85 f6             	test   %rsi,%rsi
   7:	74 17                	je     20 <_ZN4core3ptr13drop_in_place17h8e6b8f26ee3bd574E+0x20>
   9:	48 c1 e6 03          	shl    $0x3,%rsi
   d:	48 85 f6             	test   %rsi,%rsi
  10:	74 0e                	je     20 <_ZN4core3ptr13drop_in_place17h8e6b8f26ee3bd574E+0x20>
  12:	48 8b 3f             	mov    (%rdi),%rdi
  15:	ba 08 00 00 00       	mov    $0x8,%edx
  1a:	ff 25 00 00 00 00    	jmpq   *0x0(%rip)        # 20 <_ZN4core3ptr13drop_in_place17h8e6b8f26ee3bd574E+0x20>
  20:	c3                   	retq   

Disassembly of section .text._ZN4core3ptr13drop_in_place17hbe3f2d627268499dE:

0000000000000000 <_ZN4core3ptr13drop_in_place17hbe3f2d627268499dE>:
   0:	48 8b 47 08          	mov    0x8(%rdi),%rax
   4:	48 85 c0             	test   %rax,%rax
   7:	74 1b                	je     24 <_ZN4core3ptr13drop_in_place17hbe3f2d627268499dE+0x24>
   9:	48 c1 e0 03          	shl    $0x3,%rax
   d:	48 8d 34 40          	lea    (%rax,%rax,2),%rsi
  11:	48 85 f6             	test   %rsi,%rsi
  14:	74 0e                	je     24 <_ZN4core3ptr13drop_in_place17hbe3f2d627268499dE+0x24>
  16:	48 8b 3f             	mov    (%rdi),%rdi
  19:	ba 08 00 00 00       	mov    $0x8,%edx
  1e:	ff 25 00 00 00 00    	jmpq   *0x0(%rip)        # 24 <_ZN4core3ptr13drop_in_place17hbe3f2d627268499dE+0x24>
  24:	c3                   	retq   

Disassembly of section .text._ZN4core3ptr13drop_in_place17hc36bd6771c099825E:

0000000000000000 <_ZN4core3ptr13drop_in_place17hc36bd6771c099825E>:
   0:	55                   	push   %rbp
   1:	41 57                	push   %r15
   3:	41 56                	push   %r14
   5:	41 55                	push   %r13
   7:	41 54                	push   %r12
   9:	53                   	push   %rbx
   a:	50                   	push   %rax
   b:	48 89 3c 24          	mov    %rdi,(%rsp)
   f:	48 8b 47 10          	mov    0x10(%rdi),%rax
  13:	48 85 c0             	test   %rax,%rax
  16:	0f 84 81 00 00 00    	je     9d <_ZN4core3ptr13drop_in_place17hc36bd6771c099825E+0x9d>
  1c:	48 8b 0c 24          	mov    (%rsp),%rcx
  20:	4c 8b 21             	mov    (%rcx),%r12
  23:	48 8d 04 40          	lea    (%rax,%rax,2),%rax
  27:	4c 8d 2c c5 e8 ff ff 	lea    -0x18(,%rax,8),%r13
  2e:	ff 
  2f:	49 83 c4 18          	add    $0x18,%r12
  33:	41 bf 40 00 00 00    	mov    $0x40,%r15d
  39:	e9 1f 00 00 00       	jmpq   5d <_ZN4core3ptr13drop_in_place17hc36bd6771c099825E+0x5d>
  3e:	66 90                	xchg   %ax,%ax
  40:	4d 89 74 24 e8       	mov    %r14,-0x18(%r12)
  45:	49 89 6c 24 f0       	mov    %rbp,-0x10(%r12)
  4a:	49 89 5c 24 f8       	mov    %rbx,-0x8(%r12)
  4f:	49 83 c5 e8          	add    $0xffffffffffffffe8,%r13
  53:	49 83 c4 18          	add    $0x18,%r12
  57:	49 83 fd e8          	cmp    $0xffffffffffffffe8,%r13
  5b:	74 40                	je     9d <_ZN4core3ptr13drop_in_place17hc36bd6771c099825E+0x9d>
  5d:	49 8b 5c 24 f8       	mov    -0x8(%r12),%rbx
  62:	48 89 d8             	mov    %rbx,%rax
  65:	49 f7 e7             	mul    %r15
  68:	70 7c                	jo     e6 <_ZN4core3ptr13drop_in_place17hc36bd6771c099825E+0xe6>
  6a:	4d 8b 74 24 e8       	mov    -0x18(%r12),%r14
  6f:	49 8b 6c 24 f0       	mov    -0x10(%r12),%rbp
  74:	83 e5 07             	and    $0x7,%ebp
  77:	49 89 6c 24 f0       	mov    %rbp,-0x10(%r12)
  7c:	48 85 db             	test   %rbx,%rbx
  7f:	74 bf                	je     40 <_ZN4core3ptr13drop_in_place17hc36bd6771c099825E+0x40>
  81:	4c 89 f7             	mov    %r14,%rdi
  84:	48 83 e7 f8          	and    $0xfffffffffffffff8,%rdi
  88:	48 8d 34 dd 00 00 00 	lea    0x0(,%rbx,8),%rsi
  8f:	00 
  90:	ba 08 00 00 00       	mov    $0x8,%edx
  95:	ff 15 00 00 00 00    	callq  *0x0(%rip)        # 9b <_ZN4core3ptr13drop_in_place17hc36bd6771c099825E+0x9b>
  9b:	eb a3                	jmp    40 <_ZN4core3ptr13drop_in_place17hc36bd6771c099825E+0x40>
  9d:	48 8b 04 24          	mov    (%rsp),%rax
  a1:	48 8b 40 08          	mov    0x8(%rax),%rax
  a5:	48 85 c0             	test   %rax,%rax
  a8:	74 2d                	je     d7 <_ZN4core3ptr13drop_in_place17hc36bd6771c099825E+0xd7>
  aa:	48 c1 e0 03          	shl    $0x3,%rax
  ae:	48 8d 34 40          	lea    (%rax,%rax,2),%rsi
  b2:	48 85 f6             	test   %rsi,%rsi
  b5:	74 20                	je     d7 <_ZN4core3ptr13drop_in_place17hc36bd6771c099825E+0xd7>
  b7:	48 8b 04 24          	mov    (%rsp),%rax
  bb:	48 8b 38             	mov    (%rax),%rdi
  be:	ba 08 00 00 00       	mov    $0x8,%edx
  c3:	48 83 c4 08          	add    $0x8,%rsp
  c7:	5b                   	pop    %rbx
  c8:	41 5c                	pop    %r12
  ca:	41 5d                	pop    %r13
  cc:	41 5e                	pop    %r14
  ce:	41 5f                	pop    %r15
  d0:	5d                   	pop    %rbp
  d1:	ff 25 00 00 00 00    	jmpq   *0x0(%rip)        # d7 <_ZN4core3ptr13drop_in_place17hc36bd6771c099825E+0xd7>
  d7:	48 83 c4 08          	add    $0x8,%rsp
  db:	5b                   	pop    %rbx
  dc:	41 5c                	pop    %r12
  de:	41 5d                	pop    %r13
  e0:	41 5e                	pop    %r14
  e2:	41 5f                	pop    %r15
  e4:	5d                   	pop    %rbp
  e5:	c3                   	retq   
  e6:	48 8d 3d 00 00 00 00 	lea    0x0(%rip),%rdi        # ed <_ZN4core3ptr13drop_in_place17hc36bd6771c099825E+0xed>
  ed:	48 8d 15 00 00 00 00 	lea    0x0(%rip),%rdx        # f4 <_ZN4core3ptr13drop_in_place17hc36bd6771c099825E+0xf4>
  f4:	be 18 00 00 00       	mov    $0x18,%esi
  f9:	ff 15 00 00 00 00    	callq  *0x0(%rip)        # ff <_ZN4core3ptr13drop_in_place17hc36bd6771c099825E+0xff>
  ff:	0f 0b                	ud2    
 101:	49 89 c7             	mov    %rax,%r15
 104:	4d 85 ed             	test   %r13,%r13
 107:	74 12                	je     11b <_ZN4core3ptr13drop_in_place17hc36bd6771c099825E+0x11b>
 109:	4c 89 e7             	mov    %r12,%rdi
 10c:	e8 00 00 00 00       	callq  111 <_ZN4core3ptr13drop_in_place17hc36bd6771c099825E+0x111>
 111:	49 83 c4 18          	add    $0x18,%r12
 115:	49 83 c5 e8          	add    $0xffffffffffffffe8,%r13
 119:	75 ee                	jne    109 <_ZN4core3ptr13drop_in_place17hc36bd6771c099825E+0x109>
 11b:	48 8b 3c 24          	mov    (%rsp),%rdi
 11f:	e8 00 00 00 00       	callq  124 <_ZN4core3ptr13drop_in_place17hc36bd6771c099825E+0x124>
 124:	4c 89 ff             	mov    %r15,%rdi
 127:	e8 00 00 00 00       	callq  12c <_ZN4core3ptr13drop_in_place17hc36bd6771c099825E+0x12c>
 12c:	0f 0b                	ud2    
 12e:	49 89 c7             	mov    %rax,%r15
 131:	eb e8                	jmp    11b <_ZN4core3ptr13drop_in_place17hc36bd6771c099825E+0x11b>

Disassembly of section .text._ZN7raidpir6client13RaidPirClient3new17h3d6431286292f17eE:

0000000000000000 <_ZN7raidpir6client13RaidPirClient3new17h3d6431286292f17eE>:
   0:	50                   	push   %rax
   1:	49 89 f9             	mov    %rdi,%r9
   4:	48 89 d7             	mov    %rdx,%rdi
   7:	48 c1 e7 06          	shl    $0x6,%rdi
   b:	0f 84 b5 00 00 00    	je     c6 <_ZN7raidpir6client13RaidPirClient3new17h3d6431286292f17eE+0xc6>
  11:	49 89 d0             	mov    %rdx,%r8
  14:	48 89 f0             	mov    %rsi,%rax
  17:	48 09 f8             	or     %rdi,%rax
  1a:	48 c1 e8 20          	shr    $0x20,%rax
  1e:	74 0a                	je     2a <_ZN7raidpir6client13RaidPirClient3new17h3d6431286292f17eE+0x2a>
  20:	48 89 f0             	mov    %rsi,%rax
  23:	31 d2                	xor    %edx,%edx
  25:	48 f7 f7             	div    %rdi
  28:	eb 06                	jmp    30 <_ZN7raidpir6client13RaidPirClient3new17h3d6431286292f17eE+0x30>
  2a:	89 f0                	mov    %esi,%eax
  2c:	31 d2                	xor    %edx,%edx
  2e:	f7 f7                	div    %edi
  30:	48 01 f7             	add    %rsi,%rdi
  33:	48 29 d7             	sub    %rdx,%rdi
  36:	48 85 d2             	test   %rdx,%rdx
  39:	48 0f 44 fe          	cmove  %rsi,%rdi
  3d:	4d 85 c0             	test   %r8,%r8
  40:	0f 84 90 00 00 00    	je     d6 <_ZN7raidpir6client13RaidPirClient3new17h3d6431286292f17eE+0xd6>
  46:	48 89 f8             	mov    %rdi,%rax
  49:	4c 09 c0             	or     %r8,%rax
  4c:	48 c1 e8 20          	shr    $0x20,%rax
  50:	74 34                	je     86 <_ZN7raidpir6client13RaidPirClient3new17h3d6431286292f17eE+0x86>
  52:	48 89 f8             	mov    %rdi,%rax
  55:	31 d2                	xor    %edx,%edx
  57:	49 f7 f0             	div    %r8
  5a:	48 85 d2             	test   %rdx,%rdx
  5d:	75 33                	jne    92 <_ZN7raidpir6client13RaidPirClient3new17h3d6431286292f17eE+0x92>
  5f:	a8 3f                	test   $0x3f,%al
  61:	0f 85 8a 00 00 00    	jne    f1 <_ZN7raidpir6client13RaidPirClient3new17h3d6431286292f17eE+0xf1>
  67:	48 83 f9 02          	cmp    $0x2,%rcx
  6b:	72 3f                	jb     ac <_ZN7raidpir6client13RaidPirClient3new17h3d6431286292f17eE+0xac>
  6d:	4c 39 c1             	cmp    %r8,%rcx
  70:	77 3a                	ja     ac <_ZN7raidpir6client13RaidPirClient3new17h3d6431286292f17eE+0xac>
  72:	49 89 31             	mov    %rsi,(%r9)
  75:	49 89 79 08          	mov    %rdi,0x8(%r9)
  79:	4d 89 41 10          	mov    %r8,0x10(%r9)
  7d:	49 89 49 18          	mov    %rcx,0x18(%r9)
  81:	4c 89 c8             	mov    %r9,%rax
  84:	59                   	pop    %rcx
  85:	c3                   	retq   
  86:	89 f8                	mov    %edi,%eax
  88:	31 d2                	xor    %edx,%edx
  8a:	41 f7 f0             	div    %r8d
  8d:	48 85 d2             	test   %rdx,%rdx
  90:	74 cd                	je     5f <_ZN7raidpir6client13RaidPirClient3new17h3d6431286292f17eE+0x5f>
  92:	48 8d 3d 00 00 00 00 	lea    0x0(%rip),%rdi        # 99 <_ZN7raidpir6client13RaidPirClient3new17h3d6431286292f17eE+0x99>
  99:	48 8d 15 00 00 00 00 	lea    0x0(%rip),%rdx        # a0 <_ZN7raidpir6client13RaidPirClient3new17h3d6431286292f17eE+0xa0>
  a0:	be 2e 00 00 00       	mov    $0x2e,%esi
  a5:	e8 00 00 00 00       	callq  aa <_ZN7raidpir6client13RaidPirClient3new17h3d6431286292f17eE+0xaa>
  aa:	0f 0b                	ud2    
  ac:	48 8d 3d 00 00 00 00 	lea    0x0(%rip),%rdi        # b3 <_ZN7raidpir6client13RaidPirClient3new17h3d6431286292f17eE+0xb3>
  b3:	48 8d 15 00 00 00 00 	lea    0x0(%rip),%rdx        # ba <_ZN7raidpir6client13RaidPirClient3new17h3d6431286292f17eE+0xba>
  ba:	be 3a 00 00 00       	mov    $0x3a,%esi
  bf:	e8 00 00 00 00       	callq  c4 <_ZN7raidpir6client13RaidPirClient3new17h3d6431286292f17eE+0xc4>
  c4:	0f 0b                	ud2    
  c6:	48 8d 3d 00 00 00 00 	lea    0x0(%rip),%rdi        # cd <_ZN7raidpir6client13RaidPirClient3new17h3d6431286292f17eE+0xcd>
  cd:	48 8d 15 00 00 00 00 	lea    0x0(%rip),%rdx        # d4 <_ZN7raidpir6client13RaidPirClient3new17h3d6431286292f17eE+0xd4>
  d4:	eb 0e                	jmp    e4 <_ZN7raidpir6client13RaidPirClient3new17h3d6431286292f17eE+0xe4>
  d6:	48 8d 3d 00 00 00 00 	lea    0x0(%rip),%rdi        # dd <_ZN7raidpir6client13RaidPirClient3new17h3d6431286292f17eE+0xdd>
  dd:	48 8d 15 00 00 00 00 	lea    0x0(%rip),%rdx        # e4 <_ZN7raidpir6client13RaidPirClient3new17h3d6431286292f17eE+0xe4>
  e4:	be 39 00 00 00       	mov    $0x39,%esi
  e9:	ff 15 00 00 00 00    	callq  *0x0(%rip)        # ef <_ZN7raidpir6client13RaidPirClient3new17h3d6431286292f17eE+0xef>
  ef:	0f 0b                	ud2    
  f1:	48 8d 3d 00 00 00 00 	lea    0x0(%rip),%rdi        # f8 <_ZN7raidpir6client13RaidPirClient3new17h3d6431286292f17eE+0xf8>
  f8:	48 8d 15 00 00 00 00 	lea    0x0(%rip),%rdx        # ff <_ZN7raidpir6client13RaidPirClient3new17h3d6431286292f17eE+0xff>
  ff:	be 56 00 00 00       	mov    $0x56,%esi
 104:	e8 00 00 00 00       	callq  109 <_ZN7raidpir6client13RaidPirClient3new17h3d6431286292f17eE+0x109>
 109:	0f 0b                	ud2    

Disassembly of section .text._ZN7raidpir6client13RaidPirClient5query17haaf4a421526fdc00E:

0000000000000000 <_ZN7raidpir6client13RaidPirClient5query17haaf4a421526fdc00E>:
   0:	55                   	push   %rbp
   1:	41 57                	push   %r15
   3:	41 56                	push   %r14
   5:	41 55                	push   %r13
   7:	41 54                	push   %r12
   9:	53                   	push   %rbx
   a:	48 81 ec e8 00 00 00 	sub    $0xe8,%rsp
  11:	48 89 b4 24 b8 00 00 	mov    %rsi,0xb8(%rsp)
  18:	00 
  19:	48 39 16             	cmp    %rdx,(%rsi)
  1c:	0f 86 1d 08 00 00    	jbe    83f <_ZN7raidpir6client13RaidPirClient5query17haaf4a421526fdc00E+0x83f>
  22:	48 89 cb             	mov    %rcx,%rbx
  25:	48 89 bc 24 b0 00 00 	mov    %rdi,0xb0(%rsp)
  2c:	00 
  2d:	48 8b 41 10          	mov    0x10(%rcx),%rax
  31:	48 3b 46 10          	cmp    0x10(%rsi),%rax
  35:	0f 85 1e 08 00 00    	jne    859 <_ZN7raidpir6client13RaidPirClient5query17haaf4a421526fdc00E+0x859>
  3b:	49 89 d5             	mov    %rdx,%r13
  3e:	48 c7 44 24 78 08 00 	movq   $0x8,0x78(%rsp)
  45:	00 00 
  47:	c5 f8 57 c0          	vxorps %xmm0,%xmm0,%xmm0
  4b:	c5 f8 11 84 24 80 00 	vmovups %xmm0,0x80(%rsp)
  52:	00 00 
  54:	4c 8b 76 08          	mov    0x8(%rsi),%r14
  58:	4d 85 f6             	test   %r14,%r14
  5b:	0f 84 08 02 00 00    	je     269 <_ZN7raidpir6client13RaidPirClient5query17haaf4a421526fdc00E+0x269>
  61:	4c 89 b4 24 98 00 00 	mov    %r14,0x98(%rsp)
  68:	00 
  69:	4c 89 f0             	mov    %r14,%rax
  6c:	48 c1 e8 3d          	shr    $0x3d,%rax
  70:	0f 85 8d 09 00 00    	jne    a03 <_ZN7raidpir6client13RaidPirClient5query17haaf4a421526fdc00E+0xa03>
  76:	ba 01 00 00 00       	mov    $0x1,%edx
  7b:	49 83 fe 41          	cmp    $0x41,%r14
  7f:	72 1a                	jb     9b <_ZN7raidpir6client13RaidPirClient5query17haaf4a421526fdc00E+0x9b>
  81:	49 8d 46 c0          	lea    -0x40(%r14),%rax
  85:	48 89 c2             	mov    %rax,%rdx
  88:	48 c1 ea 06          	shr    $0x6,%rdx
  8c:	83 e0 3f             	and    $0x3f,%eax
  8f:	48 83 f8 01          	cmp    $0x1,%rax
  93:	48 83 da 00          	sbb    $0x0,%rdx
  97:	48 83 c2 02          	add    $0x2,%rdx
  9b:	48 c7 44 24 10 08 00 	movq   $0x8,0x10(%rsp)
  a2:	00 00 
  a4:	c5 f8 57 c0          	vxorps %xmm0,%xmm0,%xmm0
  a8:	c5 f8 11 44 24 18    	vmovups %xmm0,0x18(%rsp)
  ae:	48 8d 7c 24 10       	lea    0x10(%rsp),%rdi
  b3:	31 f6                	xor    %esi,%esi
  b5:	e8 00 00 00 00       	callq  ba <_ZN7raidpir6client13RaidPirClient5query17haaf4a421526fdc00E+0xba>
  ba:	48 89 5c 24 08       	mov    %rbx,0x8(%rsp)
  bf:	48 8b 7c 24 10       	mov    0x10(%rsp),%rdi
  c4:	48 8b 44 24 18       	mov    0x18(%rsp),%rax
  c9:	48 83 e7 f8          	and    $0xfffffffffffffff8,%rdi
  cd:	48 89 7c 24 78       	mov    %rdi,0x78(%rsp)
  d2:	48 89 84 24 88 00 00 	mov    %rax,0x88(%rsp)
  d9:	00 
  da:	b9 40 00 00 00       	mov    $0x40,%ecx
  df:	48 f7 e1             	mul    %rcx
  e2:	0f 80 8d 09 00 00    	jo     a75 <_ZN7raidpir6client13RaidPirClient5query17haaf4a421526fdc00E+0xa75>
  e8:	48 bd ff ff ff ff ff 	movabs $0x1fffffffffffffff,%rbp
  ef:	ff ff 1f 
  f2:	48 8d 4d c1          	lea    -0x3f(%rbp),%rcx
  f6:	48 21 c8             	and    %rcx,%rax
  f9:	48 89 c2             	mov    %rax,%rdx
  fc:	48 c1 ea 03          	shr    $0x3,%rdx
 100:	48 85 c0             	test   %rax,%rax
 103:	4c 8d 25 00 00 00 00 	lea    0x0(%rip),%r12        # 10a <_ZN7raidpir6client13RaidPirClient5query17haaf4a421526fdc00E+0x10a>
 10a:	49 0f 44 fc          	cmove  %r12,%rdi
 10e:	31 db                	xor    %ebx,%ebx
 110:	31 f6                	xor    %esi,%esi
 112:	ff 15 00 00 00 00    	callq  *0x0(%rip)        # 118 <_ZN7raidpir6client13RaidPirClient5query17haaf4a421526fdc00E+0x118>
 118:	b8 40 00 00 00       	mov    $0x40,%eax
 11d:	48 f7 a4 24 88 00 00 	mulq   0x88(%rsp)
 124:	00 
 125:	0f 80 68 09 00 00    	jo     a93 <_ZN7raidpir6client13RaidPirClient5query17haaf4a421526fdc00E+0xa93>
 12b:	4c 8b 44 24 78       	mov    0x78(%rsp),%r8
 130:	48 8b 8c 24 80 00 00 	mov    0x80(%rsp),%rcx
 137:	00 
 138:	44 89 c2             	mov    %r8d,%edx
 13b:	83 e2 07             	and    $0x7,%edx
 13e:	83 e1 07             	and    $0x7,%ecx
 141:	4c 8d 0c d1          	lea    (%rcx,%rdx,8),%r9
 145:	4c 29 c8             	sub    %r9,%rax
 148:	48 0f 42 c3          	cmovb  %rbx,%rax
 14c:	48 21 e8             	and    %rbp,%rax
 14f:	4a 8d 0c 08          	lea    (%rax,%r9,1),%rcx
 153:	48 89 ce             	mov    %rcx,%rsi
 156:	48 c1 ee 06          	shr    $0x6,%rsi
 15a:	83 e1 3f             	and    $0x3f,%ecx
 15d:	31 ff                	xor    %edi,%edi
 15f:	48 85 c9             	test   %rcx,%rcx
 162:	40 0f 95 c7          	setne  %dil
 166:	0f 94 c2             	sete   %dl
 169:	c0 e2 06             	shl    $0x6,%dl
 16c:	08 d1                	or     %dl,%cl
 16e:	48 85 c0             	test   %rax,%rax
 171:	0f b6 c1             	movzbl %cl,%eax
 174:	bd 00 00 00 00       	mov    $0x0,%ebp
 179:	0f 45 e8             	cmovne %eax,%ebp
 17c:	45 84 c9             	test   %r9b,%r9b
 17f:	0f 45 e8             	cmovne %eax,%ebp
 182:	48 01 f7             	add    %rsi,%rdi
 185:	74 1d                	je     1a4 <_ZN7raidpir6client13RaidPirClient5query17haaf4a421526fdc00E+0x1a4>
 187:	49 83 e0 f8          	and    $0xfffffffffffffff8,%r8
 18b:	45 84 c9             	test   %r9b,%r9b
 18e:	75 1c                	jne    1ac <_ZN7raidpir6client13RaidPirClient5query17haaf4a421526fdc00E+0x1ac>
 190:	40 80 fd 40          	cmp    $0x40,%bpl
 194:	75 16                	jne    1ac <_ZN7raidpir6client13RaidPirClient5query17haaf4a421526fdc00E+0x1ac>
 196:	45 31 ff             	xor    %r15d,%r15d
 199:	48 89 fb             	mov    %rdi,%rbx
 19c:	4d 89 c4             	mov    %r8,%r12
 19f:	e9 8f 00 00 00       	jmpq   233 <_ZN7raidpir6client13RaidPirClient5query17haaf4a421526fdc00E+0x233>
 1a4:	45 31 ff             	xor    %r15d,%r15d
 1a7:	e9 87 00 00 00       	jmpq   233 <_ZN7raidpir6client13RaidPirClient5query17haaf4a421526fdc00E+0x233>
 1ac:	40 80 fd 40          	cmp    $0x40,%bpl
 1b0:	75 30                	jne    1e2 <_ZN7raidpir6client13RaidPirClient5query17haaf4a421526fdc00E+0x1e2>
 1b2:	48 c7 c0 ff ff ff ff 	mov    $0xffffffffffffffff,%rax
 1b9:	45 31 ff             	xor    %r15d,%r15d
 1bc:	4d 8d 60 08          	lea    0x8(%r8),%r12
 1c0:	45 84 c9             	test   %r9b,%r9b
 1c3:	74 62                	je     227 <_ZN7raidpir6client13RaidPirClient5query17haaf4a421526fdc00E+0x227>
 1c5:	44 89 c9             	mov    %r9d,%ecx
 1c8:	f6 d9                	neg    %cl
 1ca:	48 c7 c3 ff ff ff ff 	mov    $0xffffffffffffffff,%rbx
 1d1:	48 d3 e3             	shl    %cl,%rbx
 1d4:	48 f7 d3             	not    %rbx
 1d7:	44 89 c9             	mov    %r9d,%ecx
 1da:	48 d3 e3             	shl    %cl,%rbx
 1dd:	48 f7 d3             	not    %rbx
 1e0:	eb 47                	jmp    229 <_ZN7raidpir6client13RaidPirClient5query17haaf4a421526fdc00E+0x229>
 1e2:	45 84 c9             	test   %r9b,%r9b
 1e5:	74 1a                	je     201 <_ZN7raidpir6client13RaidPirClient5query17haaf4a421526fdc00E+0x201>
 1e7:	48 83 ff 01          	cmp    $0x1,%rdi
 1eb:	75 22                	jne    20f <_ZN7raidpir6client13RaidPirClient5query17haaf4a421526fdc00E+0x20f>
 1ed:	44 28 cd             	sub    %r9b,%bpl
 1f0:	40 80 fd 40          	cmp    $0x40,%bpl
 1f4:	0f 85 bb 05 00 00    	jne    7b5 <_ZN7raidpir6client13RaidPirClient5query17haaf4a421526fdc00E+0x7b5>
 1fa:	31 c0                	xor    %eax,%eax
 1fc:	e9 cc 05 00 00       	jmpq   7cd <_ZN7raidpir6client13RaidPirClient5query17haaf4a421526fdc00E+0x7cd>
 201:	4d 8d 3c f8          	lea    (%r8,%rdi,8),%r15
 205:	49 83 c7 f8          	add    $0xfffffffffffffff8,%r15
 209:	48 83 c7 ff          	add    $0xffffffffffffffff,%rdi
 20d:	eb 8a                	jmp    199 <_ZN7raidpir6client13RaidPirClient5query17haaf4a421526fdc00E+0x199>
 20f:	4d 8d 3c f8          	lea    (%r8,%rdi,8),%r15
 213:	49 83 c7 f8          	add    $0xfffffffffffffff8,%r15
 217:	48 c7 c0 fe ff ff ff 	mov    $0xfffffffffffffffe,%rax
 21e:	4d 8d 60 08          	lea    0x8(%r8),%r12
 222:	45 84 c9             	test   %r9b,%r9b
 225:	75 9e                	jne    1c5 <_ZN7raidpir6client13RaidPirClient5query17haaf4a421526fdc00E+0x1c5>
 227:	31 db                	xor    %ebx,%ebx
 229:	48 01 c7             	add    %rax,%rdi
 22c:	f0 49 21 18          	lock and %rbx,(%r8)
 230:	48 89 fb             	mov    %rdi,%rbx
 233:	48 c1 e3 03          	shl    $0x3,%rbx
 237:	4c 89 e7             	mov    %r12,%rdi
 23a:	31 f6                	xor    %esi,%esi
 23c:	48 89 da             	mov    %rbx,%rdx
 23f:	ff 15 00 00 00 00    	callq  *0x0(%rip)        # 245 <_ZN7raidpir6client13RaidPirClient5query17haaf4a421526fdc00E+0x245>
 245:	4d 85 ff             	test   %r15,%r15
 248:	48 8b 5c 24 08       	mov    0x8(%rsp),%rbx
 24d:	74 1a                	je     269 <_ZN7raidpir6client13RaidPirClient5query17haaf4a421526fdc00E+0x269>
 24f:	48 c7 c0 ff ff ff ff 	mov    $0xffffffffffffffff,%rax
 256:	89 e9                	mov    %ebp,%ecx
 258:	48 d3 e0             	shl    %cl,%rax
 25b:	31 c9                	xor    %ecx,%ecx
 25d:	40 80 fd 40          	cmp    $0x40,%bpl
 261:	48 0f 45 c8          	cmovne %rax,%rcx
 265:	f0 49 21 0f          	lock and %rcx,(%r15)
 269:	4c 89 74 24 60       	mov    %r14,0x60(%rsp)
 26e:	b8 40 00 00 00       	mov    $0x40,%eax
 273:	48 f7 a4 24 88 00 00 	mulq   0x88(%rsp)
 27a:	00 
 27b:	0f 80 6d 05 00 00    	jo     7ee <_ZN7raidpir6client13RaidPirClient5query17haaf4a421526fdc00E+0x7ee>
 281:	48 8b 54 24 78       	mov    0x78(%rsp),%rdx
 286:	48 8b b4 24 80 00 00 	mov    0x80(%rsp),%rsi
 28d:	00 
 28e:	89 d1                	mov    %edx,%ecx
 290:	83 e1 07             	and    $0x7,%ecx
 293:	83 e6 07             	and    $0x7,%esi
 296:	48 8d 0c ce          	lea    (%rsi,%rcx,8),%rcx
 29a:	31 ff                	xor    %edi,%edi
 29c:	48 29 c8             	sub    %rcx,%rax
 29f:	48 0f 43 f8          	cmovae %rax,%rdi
 2a3:	48 89 bc 24 98 00 00 	mov    %rdi,0x98(%rsp)
 2aa:	00 
 2ab:	4c 39 f7             	cmp    %r14,%rdi
 2ae:	0f 82 bf 05 00 00    	jb     873 <_ZN7raidpir6client13RaidPirClient5query17haaf4a421526fdc00E+0x873>
 2b4:	4a 8d 04 f6          	lea    (%rsi,%r14,8),%rax
 2b8:	48 89 54 24 78       	mov    %rdx,0x78(%rsp)
 2bd:	48 89 84 24 80 00 00 	mov    %rax,0x80(%rsp)
 2c4:	00 
 2c5:	4c 89 6c 24 60       	mov    %r13,0x60(%rsp)
 2ca:	4c 89 b4 24 98 00 00 	mov    %r14,0x98(%rsp)
 2d1:	00 
 2d2:	4d 39 ee             	cmp    %r13,%r14
 2d5:	0f 86 08 06 00 00    	jbe    8e3 <_ZN7raidpir6client13RaidPirClient5query17haaf4a421526fdc00E+0x8e3>
 2db:	49 01 cd             	add    %rcx,%r13
 2de:	71 09                	jno    2e9 <_ZN7raidpir6client13RaidPirClient5query17haaf4a421526fdc00E+0x2e9>
 2e0:	4c 89 e8             	mov    %r13,%rax
 2e3:	48 c1 e8 06          	shr    $0x6,%rax
 2e7:	eb 11                	jmp    2fa <_ZN7raidpir6client13RaidPirClient5query17haaf4a421526fdc00E+0x2fa>
 2e9:	49 83 fd 40          	cmp    $0x40,%r13
 2ed:	73 04                	jae    2f3 <_ZN7raidpir6client13RaidPirClient5query17haaf4a421526fdc00E+0x2f3>
 2ef:	31 c0                	xor    %eax,%eax
 2f1:	eb 0b                	jmp    2fe <_ZN7raidpir6client13RaidPirClient5query17haaf4a421526fdc00E+0x2fe>
 2f3:	4c 89 e8             	mov    %r13,%rax
 2f6:	48 c1 f8 06          	sar    $0x6,%rax
 2fa:	41 83 e5 3f          	and    $0x3f,%r13d
 2fe:	be 01 00 00 00       	mov    $0x1,%esi
 303:	44 89 e9             	mov    %r13d,%ecx
 306:	48 d3 e6             	shl    %cl,%rsi
 309:	48 83 e2 f8          	and    $0xfffffffffffffff8,%rdx
 30d:	48 09 34 c2          	or     %rsi,(%rdx,%rax,8)
 311:	48 8b 84 24 b8 00 00 	mov    0xb8(%rsp),%rax
 318:	00 
 319:	48 8b 48 10          	mov    0x10(%rax),%rcx
 31d:	48 85 c9             	test   %rcx,%rcx
 320:	0f 84 2d 06 00 00    	je     953 <_ZN7raidpir6client13RaidPirClient5query17haaf4a421526fdc00E+0x953>
 326:	48 8b 40 08          	mov    0x8(%rax),%rax
 32a:	48 89 c2             	mov    %rax,%rdx
 32d:	48 09 ca             	or     %rcx,%rdx
 330:	48 c1 ea 20          	shr    $0x20,%rdx
 334:	74 07                	je     33d <_ZN7raidpir6client13RaidPirClient5query17haaf4a421526fdc00E+0x33d>
 336:	31 d2                	xor    %edx,%edx
 338:	48 f7 f1             	div    %rcx
 33b:	eb 04                	jmp    341 <_ZN7raidpir6client13RaidPirClient5query17haaf4a421526fdc00E+0x341>
 33d:	31 d2                	xor    %edx,%edx
 33f:	f7 f1                	div    %ecx
 341:	48 89 84 24 90 00 00 	mov    %rax,0x90(%rsp)
 348:	00 
 349:	48 8b 03             	mov    (%rbx),%rax
 34c:	48 8b 4b 10          	mov    0x10(%rbx),%rcx
 350:	48 c7 44 24 60 08 00 	movq   $0x8,0x60(%rsp)
 357:	00 00 
 359:	c5 f8 57 c0          	vxorps %xmm0,%xmm0,%xmm0
 35d:	c5 f8 11 44 24 68    	vmovups %xmm0,0x68(%rsp)
 363:	48 89 44 24 10       	mov    %rax,0x10(%rsp)
 368:	48 89 4c 24 18       	mov    %rcx,0x18(%rsp)
 36d:	48 8d 84 24 90 00 00 	lea    0x90(%rsp),%rax
 374:	00 
 375:	48 89 44 24 20       	mov    %rax,0x20(%rsp)
 37a:	48 8d 84 24 b8 00 00 	lea    0xb8(%rsp),%rax
 381:	00 
 382:	48 89 44 24 28       	mov    %rax,0x28(%rsp)
 387:	48 8d 7c 24 60       	lea    0x60(%rsp),%rdi
 38c:	48 8d 74 24 10       	lea    0x10(%rsp),%rsi
 391:	e8 00 00 00 00       	callq  396 <_ZN7raidpir6client13RaidPirClient5query17haaf4a421526fdc00E+0x396>
 396:	48 8b 7c 24 78       	mov    0x78(%rsp),%rdi
 39b:	48 8b 8c 24 80 00 00 	mov    0x80(%rsp),%rcx
 3a2:	00 
 3a3:	89 f8                	mov    %edi,%eax
 3a5:	83 e0 07             	and    $0x7,%eax
 3a8:	89 ca                	mov    %ecx,%edx
 3aa:	83 e2 07             	and    $0x7,%edx
 3ad:	48 8d 04 c2          	lea    (%rdx,%rax,8),%rax
 3b1:	48 c1 e9 03          	shr    $0x3,%rcx
 3b5:	48 8d 14 08          	lea    (%rax,%rcx,1),%rdx
 3b9:	48 89 d6             	mov    %rdx,%rsi
 3bc:	48 c1 ee 06          	shr    $0x6,%rsi
 3c0:	31 db                	xor    %ebx,%ebx
 3c2:	48 83 e2 3f          	and    $0x3f,%rdx
 3c6:	0f 95 c3             	setne  %bl
 3c9:	48 83 e7 f8          	and    $0xfffffffffffffff8,%rdi
 3cd:	48 89 7c 24 08       	mov    %rdi,0x8(%rsp)
 3d2:	48 01 f3             	add    %rsi,%rbx
 3d5:	48 89 9c 24 c8 00 00 	mov    %rbx,0xc8(%rsp)
 3dc:	00 
 3dd:	74 36                	je     415 <_ZN7raidpir6client13RaidPirClient5query17haaf4a421526fdc00E+0x415>
 3df:	48 09 c1             	or     %rax,%rcx
 3e2:	40 0f 95 c6          	setne  %sil
 3e6:	48 85 d2             	test   %rdx,%rdx
 3e9:	0f 94 c1             	sete   %cl
 3ec:	c0 e1 06             	shl    $0x6,%cl
 3ef:	08 ca                	or     %cl,%dl
 3f1:	80 fa 40             	cmp    $0x40,%dl
 3f4:	0f 94 c1             	sete   %cl
 3f7:	40 20 f1             	and    %sil,%cl
 3fa:	48 85 c0             	test   %rax,%rax
 3fd:	75 2e                	jne    42d <_ZN7raidpir6client13RaidPirClient5query17haaf4a421526fdc00E+0x42d>
 3ff:	84 c9                	test   %cl,%cl
 401:	74 2a                	je     42d <_ZN7raidpir6client13RaidPirClient5query17haaf4a421526fdc00E+0x42d>
 403:	48 89 dd             	mov    %rbx,%rbp
 406:	48 8b 44 24 08       	mov    0x8(%rsp),%rax
 40b:	49 89 c4             	mov    %rax,%r12
 40e:	48 85 c0             	test   %rax,%rax
 411:	75 6a                	jne    47d <_ZN7raidpir6client13RaidPirClient5query17haaf4a421526fdc00E+0x47d>
 413:	eb 47                	jmp    45c <_ZN7raidpir6client13RaidPirClient5query17haaf4a421526fdc00E+0x45c>
 415:	31 ed                	xor    %ebp,%ebp
 417:	4c 8d 25 00 00 00 00 	lea    0x0(%rip),%r12        # 41e <_ZN7raidpir6client13RaidPirClient5query17haaf4a421526fdc00E+0x41e>
 41e:	48 8b 44 24 70       	mov    0x70(%rsp),%rax
 423:	48 85 c0             	test   %rax,%rax
 426:	75 63                	jne    48b <_ZN7raidpir6client13RaidPirClient5query17haaf4a421526fdc00E+0x48b>
 428:	e9 9b 01 00 00       	jmpq   5c8 <_ZN7raidpir6client13RaidPirClient5query17haaf4a421526fdc00E+0x5c8>
 42d:	84 c9                	test   %cl,%cl
 42f:	74 1c                	je     44d <_ZN7raidpir6client13RaidPirClient5query17haaf4a421526fdc00E+0x44d>
 431:	48 8b 44 24 08       	mov    0x8(%rsp),%rax
 436:	4c 8d 60 08          	lea    0x8(%rax),%r12
 43a:	48 8d 6b ff          	lea    -0x1(%rbx),%rbp
 43e:	48 8b 44 24 70       	mov    0x70(%rsp),%rax
 443:	48 85 c0             	test   %rax,%rax
 446:	75 43                	jne    48b <_ZN7raidpir6client13RaidPirClient5query17haaf4a421526fdc00E+0x48b>
 448:	e9 7b 01 00 00       	jmpq   5c8 <_ZN7raidpir6client13RaidPirClient5query17haaf4a421526fdc00E+0x5c8>
 44d:	48 85 c0             	test   %rax,%rax
 450:	74 22                	je     474 <_ZN7raidpir6client13RaidPirClient5query17haaf4a421526fdc00E+0x474>
 452:	48 83 fb 01          	cmp    $0x1,%rbx
 456:	0f 85 51 01 00 00    	jne    5ad <_ZN7raidpir6client13RaidPirClient5query17haaf4a421526fdc00E+0x5ad>
 45c:	4c 8d 25 00 00 00 00 	lea    0x0(%rip),%r12        # 463 <_ZN7raidpir6client13RaidPirClient5query17haaf4a421526fdc00E+0x463>
 463:	31 ed                	xor    %ebp,%ebp
 465:	48 8b 44 24 70       	mov    0x70(%rsp),%rax
 46a:	48 85 c0             	test   %rax,%rax
 46d:	75 1c                	jne    48b <_ZN7raidpir6client13RaidPirClient5query17haaf4a421526fdc00E+0x48b>
 46f:	e9 54 01 00 00       	jmpq   5c8 <_ZN7raidpir6client13RaidPirClient5query17haaf4a421526fdc00E+0x5c8>
 474:	48 8d 6b ff          	lea    -0x1(%rbx),%rbp
 478:	4c 8b 64 24 08       	mov    0x8(%rsp),%r12
 47d:	48 8b 44 24 70       	mov    0x70(%rsp),%rax
 482:	48 85 c0             	test   %rax,%rax
 485:	0f 84 3d 01 00 00    	je     5c8 <_ZN7raidpir6client13RaidPirClient5query17haaf4a421526fdc00E+0x5c8>
 48b:	4c 8b 7c 24 60       	mov    0x60(%rsp),%r15
 490:	48 8d 04 40          	lea    (%rax,%rax,2),%rax
 494:	4d 8d 2c c7          	lea    (%r15,%rax,8),%r13
 498:	4c 8d 74 24 40       	lea    0x40(%rsp),%r14
 49d:	0f 1f 00             	nopl   (%rax)
 4a0:	48 8b bc 24 90 00 00 	mov    0x90(%rsp),%rdi
 4a7:	00 
 4a8:	48 c1 ef 06          	shr    $0x6,%rdi
 4ac:	48 89 ea             	mov    %rbp,%rdx
 4af:	48 29 fa             	sub    %rdi,%rdx
 4b2:	0f 82 6c 03 00 00    	jb     824 <_ZN7raidpir6client13RaidPirClient5query17haaf4a421526fdc00E+0x824>
 4b8:	49 8d 34 fc          	lea    (%r12,%rdi,8),%rsi
 4bc:	e8 00 00 00 00       	callq  4c1 <_ZN7raidpir6client13RaidPirClient5query17haaf4a421526fdc00E+0x4c1>
 4c1:	49 8b 07             	mov    (%r15),%rax
 4c4:	49 8b 77 08          	mov    0x8(%r15),%rsi
 4c8:	89 c1                	mov    %eax,%ecx
 4ca:	83 e1 07             	and    $0x7,%ecx
 4cd:	89 f2                	mov    %esi,%edx
 4cf:	83 e2 07             	and    $0x7,%edx
 4d2:	48 8d 14 ca          	lea    (%rdx,%rcx,8),%rdx
 4d6:	48 c1 ee 03          	shr    $0x3,%rsi
 4da:	48 8d 3c 32          	lea    (%rdx,%rsi,1),%rdi
 4de:	48 89 fb             	mov    %rdi,%rbx
 4e1:	48 c1 eb 06          	shr    $0x6,%rbx
 4e5:	31 c9                	xor    %ecx,%ecx
 4e7:	48 83 e7 3f          	and    $0x3f,%rdi
 4eb:	0f 95 c1             	setne  %cl
 4ee:	48 01 d9             	add    %rbx,%rcx
 4f1:	74 5d                	je     550 <_ZN7raidpir6client13RaidPirClient5query17haaf4a421526fdc00E+0x550>
 4f3:	48 83 e0 f8          	and    $0xfffffffffffffff8,%rax
 4f7:	48 09 d6             	or     %rdx,%rsi
 4fa:	40 0f 95 c6          	setne  %sil
 4fe:	48 85 ff             	test   %rdi,%rdi
 501:	0f 94 c3             	sete   %bl
 504:	c0 e3 06             	shl    $0x6,%bl
 507:	40 08 df             	or     %bl,%dil
 50a:	40 80 ff 40          	cmp    $0x40,%dil
 50e:	0f 94 c3             	sete   %bl
 511:	40 20 f3             	and    %sil,%bl
 514:	48 85 d2             	test   %rdx,%rdx
 517:	75 17                	jne    530 <_ZN7raidpir6client13RaidPirClient5query17haaf4a421526fdc00E+0x530>
 519:	84 db                	test   %bl,%bl
 51b:	0f 84 0f 00 00 00    	je     530 <_ZN7raidpir6client13RaidPirClient5query17haaf4a421526fdc00E+0x530>
 521:	48 85 c0             	test   %rax,%rax
 524:	0f 85 2f 00 00 00    	jne    559 <_ZN7raidpir6client13RaidPirClient5query17haaf4a421526fdc00E+0x559>
 52a:	e9 21 00 00 00       	jmpq   550 <_ZN7raidpir6client13RaidPirClient5query17haaf4a421526fdc00E+0x550>
 52f:	90                   	nop
 530:	84 db                	test   %bl,%bl
 532:	74 0a                	je     53e <_ZN7raidpir6client13RaidPirClient5query17haaf4a421526fdc00E+0x53e>
 534:	48 83 c0 08          	add    $0x8,%rax
 538:	48 83 c1 ff          	add    $0xffffffffffffffff,%rcx
 53c:	eb 1b                	jmp    559 <_ZN7raidpir6client13RaidPirClient5query17haaf4a421526fdc00E+0x559>
 53e:	48 85 d2             	test   %rdx,%rdx
 541:	74 5a                	je     59d <_ZN7raidpir6client13RaidPirClient5query17haaf4a421526fdc00E+0x59d>
 543:	48 83 f9 01          	cmp    $0x1,%rcx
 547:	0f 85 56 00 00 00    	jne    5a3 <_ZN7raidpir6client13RaidPirClient5query17haaf4a421526fdc00E+0x5a3>
 54d:	0f 1f 00             	nopl   (%rax)
 550:	31 c9                	xor    %ecx,%ecx
 552:	48 8d 05 00 00 00 00 	lea    0x0(%rip),%rax        # 559 <_ZN7raidpir6client13RaidPirClient5query17haaf4a421526fdc00E+0x559>
 559:	48 89 ce             	mov    %rcx,%rsi
 55c:	48 39 cd             	cmp    %rcx,%rbp
 55f:	77 03                	ja     564 <_ZN7raidpir6client13RaidPirClient5query17haaf4a421526fdc00E+0x564>
 561:	48 89 ee             	mov    %rbp,%rsi
 564:	4c 89 64 24 10       	mov    %r12,0x10(%rsp)
 569:	48 89 6c 24 18       	mov    %rbp,0x18(%rsp)
 56e:	48 89 44 24 20       	mov    %rax,0x20(%rsp)
 573:	48 89 4c 24 28       	mov    %rcx,0x28(%rsp)
 578:	48 c7 44 24 30 00 00 	movq   $0x10000,0x30(%rsp)
 57f:	01 00 
 581:	48 8d 7c 24 10       	lea    0x10(%rsp),%rdi
 586:	4c 89 f2             	mov    %r14,%rdx
 589:	e8 00 00 00 00       	callq  58e <_ZN7raidpir6client13RaidPirClient5query17haaf4a421526fdc00E+0x58e>
 58e:	49 83 c7 18          	add    $0x18,%r15
 592:	4d 39 ef             	cmp    %r13,%r15
 595:	0f 85 05 ff ff ff    	jne    4a0 <_ZN7raidpir6client13RaidPirClient5query17haaf4a421526fdc00E+0x4a0>
 59b:	eb 2b                	jmp    5c8 <_ZN7raidpir6client13RaidPirClient5query17haaf4a421526fdc00E+0x5c8>
 59d:	48 83 c1 ff          	add    $0xffffffffffffffff,%rcx
 5a1:	eb b6                	jmp    559 <_ZN7raidpir6client13RaidPirClient5query17haaf4a421526fdc00E+0x559>
 5a3:	48 83 c0 08          	add    $0x8,%rax
 5a7:	48 83 c1 fe          	add    $0xfffffffffffffffe,%rcx
 5ab:	eb ac                	jmp    559 <_ZN7raidpir6client13RaidPirClient5query17haaf4a421526fdc00E+0x559>
 5ad:	48 8b 44 24 08       	mov    0x8(%rsp),%rax
 5b2:	4c 8d 60 08          	lea    0x8(%rax),%r12
 5b6:	48 8d 6b fe          	lea    -0x2(%rbx),%rbp
 5ba:	48 8b 44 24 70       	mov    0x70(%rsp),%rax
 5bf:	48 85 c0             	test   %rax,%rax
 5c2:	0f 85 c3 fe ff ff    	jne    48b <_ZN7raidpir6client13RaidPirClient5query17haaf4a421526fdc00E+0x48b>
 5c8:	48 8b b4 24 88 00 00 	mov    0x88(%rsp),%rsi
 5cf:	00 
 5d0:	48 8b 44 24 08       	mov    0x8(%rsp),%rax
 5d5:	48 89 84 24 98 00 00 	mov    %rax,0x98(%rsp)
 5dc:	00 
 5dd:	48 89 b4 24 a0 00 00 	mov    %rsi,0xa0(%rsp)
 5e4:	00 
 5e5:	4c 8b b4 24 c8 00 00 	mov    0xc8(%rsp),%r14
 5ec:	00 
 5ed:	4c 89 b4 24 a8 00 00 	mov    %r14,0xa8(%rsp)
 5f4:	00 
 5f5:	48 8b 9c 24 90 00 00 	mov    0x90(%rsp),%rbx
 5fc:	00 
 5fd:	48 c1 eb 06          	shr    $0x6,%rbx
 601:	48 89 9c 24 d0 00 00 	mov    %rbx,0xd0(%rsp)
 608:	00 
 609:	0f 84 62 03 00 00    	je     971 <_ZN7raidpir6client13RaidPirClient5query17haaf4a421526fdc00E+0x971>
 60f:	48 8b ac 24 b0 00 00 	mov    0xb0(%rsp),%rbp
 616:	00 
 617:	48 c7 45 00 08 00 00 	movq   $0x8,0x0(%rbp)
 61e:	00 
 61f:	c5 f8 57 c0          	vxorps %xmm0,%xmm0,%xmm0
 623:	c5 f8 11 45 08       	vmovups %xmm0,0x8(%rbp)
 628:	4d 85 f6             	test   %r14,%r14
 62b:	74 1c                	je     649 <_ZN7raidpir6client13RaidPirClient5query17haaf4a421526fdc00E+0x649>
 62d:	4c 89 f0             	mov    %r14,%rax
 630:	48 09 d8             	or     %rbx,%rax
 633:	48 c1 e8 20          	shr    $0x20,%rax
 637:	74 14                	je     64d <_ZN7raidpir6client13RaidPirClient5query17haaf4a421526fdc00E+0x64d>
 639:	4c 89 f0             	mov    %r14,%rax
 63c:	31 d2                	xor    %edx,%edx
 63e:	48 f7 f3             	div    %rbx
 641:	48 89 d1             	mov    %rdx,%rcx
 644:	48 89 c2             	mov    %rax,%rdx
 647:	eb 0f                	jmp    658 <_ZN7raidpir6client13RaidPirClient5query17haaf4a421526fdc00E+0x658>
 649:	31 d2                	xor    %edx,%edx
 64b:	eb 13                	jmp    660 <_ZN7raidpir6client13RaidPirClient5query17haaf4a421526fdc00E+0x660>
 64d:	44 89 f0             	mov    %r14d,%eax
 650:	31 d2                	xor    %edx,%edx
 652:	f7 f3                	div    %ebx
 654:	89 d1                	mov    %edx,%ecx
 656:	89 c2                	mov    %eax,%edx
 658:	48 83 f9 01          	cmp    $0x1,%rcx
 65c:	48 83 da ff          	sbb    $0xffffffffffffffff,%rdx
 660:	48 89 b4 24 c0 00 00 	mov    %rsi,0xc0(%rsp)
 667:	00 
 668:	48 89 ef             	mov    %rbp,%rdi
 66b:	31 f6                	xor    %esi,%esi
 66d:	e8 00 00 00 00       	callq  672 <_ZN7raidpir6client13RaidPirClient5query17haaf4a421526fdc00E+0x672>
 672:	48 8d 45 10          	lea    0x10(%rbp),%rax
 676:	48 8b 4d 10          	mov    0x10(%rbp),%rcx
 67a:	48 8d 14 49          	lea    (%rcx,%rcx,2),%rdx
 67e:	48 c1 e2 03          	shl    $0x3,%rdx
 682:	48 03 55 00          	add    0x0(%rbp),%rdx
 686:	48 8b 74 24 08       	mov    0x8(%rsp),%rsi
 68b:	48 89 74 24 40       	mov    %rsi,0x40(%rsp)
 690:	4c 89 74 24 48       	mov    %r14,0x48(%rsp)
 695:	48 89 5c 24 50       	mov    %rbx,0x50(%rsp)
 69a:	48 89 54 24 10       	mov    %rdx,0x10(%rsp)
 69f:	48 89 44 24 18       	mov    %rax,0x18(%rsp)
 6a4:	48 89 4c 24 20       	mov    %rcx,0x20(%rsp)
 6a9:	48 8d 7c 24 40       	lea    0x40(%rsp),%rdi
 6ae:	48 8d 74 24 10       	lea    0x10(%rsp),%rsi
 6b3:	e8 00 00 00 00       	callq  6b8 <_ZN7raidpir6client13RaidPirClient5query17haaf4a421526fdc00E+0x6b8>
 6b8:	48 8b 44 24 70       	mov    0x70(%rsp),%rax
 6bd:	48 85 c0             	test   %rax,%rax
 6c0:	0f 84 85 00 00 00    	je     74b <_ZN7raidpir6client13RaidPirClient5query17haaf4a421526fdc00E+0x74b>
 6c6:	48 8b 6c 24 60       	mov    0x60(%rsp),%rbp
 6cb:	48 8d 04 40          	lea    (%rax,%rax,2),%rax
 6cf:	4c 8d 34 c5 e8 ff ff 	lea    -0x18(,%rax,8),%r14
 6d6:	ff 
 6d7:	48 83 c5 18          	add    $0x18,%rbp
 6db:	41 bf 40 00 00 00    	mov    $0x40,%r15d
 6e1:	e9 24 00 00 00       	jmpq   70a <_ZN7raidpir6client13RaidPirClient5query17haaf4a421526fdc00E+0x70a>
 6e6:	66 2e 0f 1f 84 00 00 	nopw   %cs:0x0(%rax,%rax,1)
 6ed:	00 00 00 
 6f0:	4c 89 65 e8          	mov    %r12,-0x18(%rbp)
 6f4:	4c 89 6d f0          	mov    %r13,-0x10(%rbp)
 6f8:	48 89 5d f8          	mov    %rbx,-0x8(%rbp)
 6fc:	49 83 c6 e8          	add    $0xffffffffffffffe8,%r14
 700:	48 83 c5 18          	add    $0x18,%rbp
 704:	49 83 fe e8          	cmp    $0xffffffffffffffe8,%r14
 708:	74 41                	je     74b <_ZN7raidpir6client13RaidPirClient5query17haaf4a421526fdc00E+0x74b>
 70a:	48 8b 5d f8          	mov    -0x8(%rbp),%rbx
 70e:	48 89 d8             	mov    %rbx,%rax
 711:	49 f7 e7             	mul    %r15
 714:	0f 80 ef 00 00 00    	jo     809 <_ZN7raidpir6client13RaidPirClient5query17haaf4a421526fdc00E+0x809>
 71a:	4c 8b 65 e8          	mov    -0x18(%rbp),%r12
 71e:	4c 8b 6d f0          	mov    -0x10(%rbp),%r13
 722:	41 83 e5 07          	and    $0x7,%r13d
 726:	4c 89 6d f0          	mov    %r13,-0x10(%rbp)
 72a:	48 85 db             	test   %rbx,%rbx
 72d:	74 c1                	je     6f0 <_ZN7raidpir6client13RaidPirClient5query17haaf4a421526fdc00E+0x6f0>
 72f:	4c 89 e7             	mov    %r12,%rdi
 732:	48 83 e7 f8          	and    $0xfffffffffffffff8,%rdi
 736:	48 8d 34 dd 00 00 00 	lea    0x0(,%rbx,8),%rsi
 73d:	00 
 73e:	ba 08 00 00 00       	mov    $0x8,%edx
 743:	ff 15 00 00 00 00    	callq  *0x0(%rip)        # 749 <_ZN7raidpir6client13RaidPirClient5query17haaf4a421526fdc00E+0x749>
 749:	eb a5                	jmp    6f0 <_ZN7raidpir6client13RaidPirClient5query17haaf4a421526fdc00E+0x6f0>
 74b:	48 8b 44 24 68       	mov    0x68(%rsp),%rax
 750:	48 85 c0             	test   %rax,%rax
 753:	74 1d                	je     772 <_ZN7raidpir6client13RaidPirClient5query17haaf4a421526fdc00E+0x772>
 755:	48 c1 e0 03          	shl    $0x3,%rax
 759:	48 8d 34 40          	lea    (%rax,%rax,2),%rsi
 75d:	48 85 f6             	test   %rsi,%rsi
 760:	74 10                	je     772 <_ZN7raidpir6client13RaidPirClient5query17haaf4a421526fdc00E+0x772>
 762:	48 8b 7c 24 60       	mov    0x60(%rsp),%rdi
 767:	ba 08 00 00 00       	mov    $0x8,%edx
 76c:	ff 15 00 00 00 00    	callq  *0x0(%rip)        # 772 <_ZN7raidpir6client13RaidPirClient5query17haaf4a421526fdc00E+0x772>
 772:	48 8b b4 24 c0 00 00 	mov    0xc0(%rsp),%rsi
 779:	00 
 77a:	48 85 f6             	test   %rsi,%rsi
 77d:	48 8b 9c 24 b0 00 00 	mov    0xb0(%rsp),%rbx
 784:	00 
 785:	74 19                	je     7a0 <_ZN7raidpir6client13RaidPirClient5query17haaf4a421526fdc00E+0x7a0>
 787:	48 c1 e6 03          	shl    $0x3,%rsi
 78b:	48 85 f6             	test   %rsi,%rsi
 78e:	74 10                	je     7a0 <_ZN7raidpir6client13RaidPirClient5query17haaf4a421526fdc00E+0x7a0>
 790:	ba 08 00 00 00       	mov    $0x8,%edx
 795:	48 8b 7c 24 08       	mov    0x8(%rsp),%rdi
 79a:	ff 15 00 00 00 00    	callq  *0x0(%rip)        # 7a0 <_ZN7raidpir6client13RaidPirClient5query17haaf4a421526fdc00E+0x7a0>
 7a0:	48 89 d8             	mov    %rbx,%rax
 7a3:	48 81 c4 e8 00 00 00 	add    $0xe8,%rsp
 7aa:	5b                   	pop    %rbx
 7ab:	41 5c                	pop    %r12
 7ad:	41 5d                	pop    %r13
 7af:	41 5e                	pop    %r14
 7b1:	41 5f                	pop    %r15
 7b3:	5d                   	pop    %rbp
 7b4:	c3                   	retq   
 7b5:	48 c7 c0 ff ff ff ff 	mov    $0xffffffffffffffff,%rax
 7bc:	89 e9                	mov    %ebp,%ecx
 7be:	48 d3 e0             	shl    %cl,%rax
 7c1:	48 f7 d0             	not    %rax
 7c4:	44 89 c9             	mov    %r9d,%ecx
 7c7:	48 d3 e0             	shl    %cl,%rax
 7ca:	48 f7 d0             	not    %rax
 7cd:	48 8b 5c 24 08       	mov    0x8(%rsp),%rbx
 7d2:	f0 49 21 00          	lock and %rax,(%r8)
 7d6:	4c 89 74 24 60       	mov    %r14,0x60(%rsp)
 7db:	b8 40 00 00 00       	mov    $0x40,%eax
 7e0:	48 f7 a4 24 88 00 00 	mulq   0x88(%rsp)
 7e7:	00 
 7e8:	0f 81 93 fa ff ff    	jno    281 <_ZN7raidpir6client13RaidPirClient5query17haaf4a421526fdc00E+0x281>
 7ee:	48 8d 3d 00 00 00 00 	lea    0x0(%rip),%rdi        # 7f5 <_ZN7raidpir6client13RaidPirClient5query17haaf4a421526fdc00E+0x7f5>
 7f5:	48 8d 15 00 00 00 00 	lea    0x0(%rip),%rdx        # 7fc <_ZN7raidpir6client13RaidPirClient5query17haaf4a421526fdc00E+0x7fc>
 7fc:	be 18 00 00 00       	mov    $0x18,%esi
 801:	ff 15 00 00 00 00    	callq  *0x0(%rip)        # 807 <_ZN7raidpir6client13RaidPirClient5query17haaf4a421526fdc00E+0x807>
 807:	eb 34                	jmp    83d <_ZN7raidpir6client13RaidPirClient5query17haaf4a421526fdc00E+0x83d>
 809:	48 8d 3d 00 00 00 00 	lea    0x0(%rip),%rdi        # 810 <_ZN7raidpir6client13RaidPirClient5query17haaf4a421526fdc00E+0x810>
 810:	48 8d 15 00 00 00 00 	lea    0x0(%rip),%rdx        # 817 <_ZN7raidpir6client13RaidPirClient5query17haaf4a421526fdc00E+0x817>
 817:	be 18 00 00 00       	mov    $0x18,%esi
 81c:	ff 15 00 00 00 00    	callq  *0x0(%rip)        # 822 <_ZN7raidpir6client13RaidPirClient5query17haaf4a421526fdc00E+0x822>
 822:	eb 19                	jmp    83d <_ZN7raidpir6client13RaidPirClient5query17haaf4a421526fdc00E+0x83d>
 824:	48 8d 3d 00 00 00 00 	lea    0x0(%rip),%rdi        # 82b <_ZN7raidpir6client13RaidPirClient5query17haaf4a421526fdc00E+0x82b>
 82b:	48 8d 15 00 00 00 00 	lea    0x0(%rip),%rdx        # 832 <_ZN7raidpir6client13RaidPirClient5query17haaf4a421526fdc00E+0x832>
 832:	be 23 00 00 00       	mov    $0x23,%esi
 837:	ff 15 00 00 00 00    	callq  *0x0(%rip)        # 83d <_ZN7raidpir6client13RaidPirClient5query17haaf4a421526fdc00E+0x83d>
 83d:	0f 0b                	ud2    
 83f:	48 8d 3d 00 00 00 00 	lea    0x0(%rip),%rdi        # 846 <_ZN7raidpir6client13RaidPirClient5query17haaf4a421526fdc00E+0x846>
 846:	48 8d 15 00 00 00 00 	lea    0x0(%rip),%rdx        # 84d <_ZN7raidpir6client13RaidPirClient5query17haaf4a421526fdc00E+0x84d>
 84d:	be 25 00 00 00       	mov    $0x25,%esi
 852:	e8 00 00 00 00       	callq  857 <_ZN7raidpir6client13RaidPirClient5query17haaf4a421526fdc00E+0x857>
 857:	0f 0b                	ud2    
 859:	48 8d 3d 00 00 00 00 	lea    0x0(%rip),%rdi        # 860 <_ZN7raidpir6client13RaidPirClient5query17haaf4a421526fdc00E+0x860>
 860:	48 8d 15 00 00 00 00 	lea    0x0(%rip),%rdx        # 867 <_ZN7raidpir6client13RaidPirClient5query17haaf4a421526fdc00E+0x867>
 867:	be 2d 00 00 00       	mov    $0x2d,%esi
 86c:	e8 00 00 00 00       	callq  871 <_ZN7raidpir6client13RaidPirClient5query17haaf4a421526fdc00E+0x871>
 871:	0f 0b                	ud2    
 873:	48 8d 44 24 60       	lea    0x60(%rsp),%rax
 878:	48 89 44 24 40       	mov    %rax,0x40(%rsp)
 87d:	48 8b 05 00 00 00 00 	mov    0x0(%rip),%rax        # 884 <_ZN7raidpir6client13RaidPirClient5query17haaf4a421526fdc00E+0x884>
 884:	48 89 44 24 48       	mov    %rax,0x48(%rsp)
 889:	48 8d 8c 24 98 00 00 	lea    0x98(%rsp),%rcx
 890:	00 
 891:	48 89 4c 24 50       	mov    %rcx,0x50(%rsp)
 896:	48 89 44 24 58       	mov    %rax,0x58(%rsp)
 89b:	48 8d 05 00 00 00 00 	lea    0x0(%rip),%rax        # 8a2 <_ZN7raidpir6client13RaidPirClient5query17haaf4a421526fdc00E+0x8a2>
 8a2:	48 89 44 24 10       	mov    %rax,0x10(%rsp)
 8a7:	48 c7 44 24 18 02 00 	movq   $0x2,0x18(%rsp)
 8ae:	00 00 
 8b0:	48 c7 44 24 20 00 00 	movq   $0x0,0x20(%rsp)
 8b7:	00 00 
 8b9:	48 8d 44 24 40       	lea    0x40(%rsp),%rax
 8be:	48 89 44 24 30       	mov    %rax,0x30(%rsp)
 8c3:	48 c7 44 24 38 02 00 	movq   $0x2,0x38(%rsp)
 8ca:	00 00 
 8cc:	48 8d 35 00 00 00 00 	lea    0x0(%rip),%rsi        # 8d3 <_ZN7raidpir6client13RaidPirClient5query17haaf4a421526fdc00E+0x8d3>
 8d3:	48 8d 7c 24 10       	lea    0x10(%rsp),%rdi
 8d8:	ff 15 00 00 00 00    	callq  *0x0(%rip)        # 8de <_ZN7raidpir6client13RaidPirClient5query17haaf4a421526fdc00E+0x8de>
 8de:	e9 5a ff ff ff       	jmpq   83d <_ZN7raidpir6client13RaidPirClient5query17haaf4a421526fdc00E+0x83d>
 8e3:	48 8d 44 24 60       	lea    0x60(%rsp),%rax
 8e8:	48 89 44 24 40       	mov    %rax,0x40(%rsp)
 8ed:	48 8b 05 00 00 00 00 	mov    0x0(%rip),%rax        # 8f4 <_ZN7raidpir6client13RaidPirClient5query17haaf4a421526fdc00E+0x8f4>
 8f4:	48 89 44 24 48       	mov    %rax,0x48(%rsp)
 8f9:	48 8d 8c 24 98 00 00 	lea    0x98(%rsp),%rcx
 900:	00 
 901:	48 89 4c 24 50       	mov    %rcx,0x50(%rsp)
 906:	48 89 44 24 58       	mov    %rax,0x58(%rsp)
 90b:	48 8d 05 00 00 00 00 	lea    0x0(%rip),%rax        # 912 <_ZN7raidpir6client13RaidPirClient5query17haaf4a421526fdc00E+0x912>
 912:	48 89 44 24 10       	mov    %rax,0x10(%rsp)
 917:	48 c7 44 24 18 02 00 	movq   $0x2,0x18(%rsp)
 91e:	00 00 
 920:	48 c7 44 24 20 00 00 	movq   $0x0,0x20(%rsp)
 927:	00 00 
 929:	48 8d 44 24 40       	lea    0x40(%rsp),%rax
 92e:	48 89 44 24 30       	mov    %rax,0x30(%rsp)
 933:	48 c7 44 24 38 02 00 	movq   $0x2,0x38(%rsp)
 93a:	00 00 
 93c:	48 8d 35 00 00 00 00 	lea    0x0(%rip),%rsi        # 943 <_ZN7raidpir6client13RaidPirClient5query17haaf4a421526fdc00E+0x943>
 943:	48 8d 7c 24 10       	lea    0x10(%rsp),%rdi
 948:	ff 15 00 00 00 00    	callq  *0x0(%rip)        # 94e <_ZN7raidpir6client13RaidPirClient5query17haaf4a421526fdc00E+0x94e>
 94e:	e9 ea fe ff ff       	jmpq   83d <_ZN7raidpir6client13RaidPirClient5query17haaf4a421526fdc00E+0x83d>
 953:	48 8d 3d 00 00 00 00 	lea    0x0(%rip),%rdi        # 95a <_ZN7raidpir6client13RaidPirClient5query17haaf4a421526fdc00E+0x95a>
 95a:	48 8d 15 00 00 00 00 	lea    0x0(%rip),%rdx        # 961 <_ZN7raidpir6client13RaidPirClient5query17haaf4a421526fdc00E+0x961>
 961:	be 19 00 00 00       	mov    $0x19,%esi
 966:	ff 15 00 00 00 00    	callq  *0x0(%rip)        # 96c <_ZN7raidpir6client13RaidPirClient5query17haaf4a421526fdc00E+0x96c>
 96c:	e9 cc fe ff ff       	jmpq   83d <_ZN7raidpir6client13RaidPirClient5query17haaf4a421526fdc00E+0x83d>
 971:	48 8d 84 24 d0 00 00 	lea    0xd0(%rsp),%rax
 978:	00 
 979:	48 89 84 24 d8 00 00 	mov    %rax,0xd8(%rsp)
 980:	00 
 981:	48 8d 05 00 00 00 00 	lea    0x0(%rip),%rax        # 988 <_ZN7raidpir6client13RaidPirClient5query17haaf4a421526fdc00E+0x988>
 988:	48 89 84 24 e0 00 00 	mov    %rax,0xe0(%rsp)
 98f:	00 
 990:	48 8d 84 24 d8 00 00 	lea    0xd8(%rsp),%rax
 997:	00 
 998:	48 89 44 24 40       	mov    %rax,0x40(%rsp)
 99d:	48 8d 05 00 00 00 00 	lea    0x0(%rip),%rax        # 9a4 <_ZN7raidpir6client13RaidPirClient5query17haaf4a421526fdc00E+0x9a4>
 9a4:	48 89 44 24 48       	mov    %rax,0x48(%rsp)
 9a9:	48 8d 8c 24 e0 00 00 	lea    0xe0(%rsp),%rcx
 9b0:	00 
 9b1:	48 89 4c 24 50       	mov    %rcx,0x50(%rsp)
 9b6:	48 89 44 24 58       	mov    %rax,0x58(%rsp)
 9bb:	48 8d 05 00 00 00 00 	lea    0x0(%rip),%rax        # 9c2 <_ZN7raidpir6client13RaidPirClient5query17haaf4a421526fdc00E+0x9c2>
 9c2:	48 89 44 24 10       	mov    %rax,0x10(%rsp)
 9c7:	48 c7 44 24 18 03 00 	movq   $0x3,0x18(%rsp)
 9ce:	00 00 
 9d0:	48 c7 44 24 20 00 00 	movq   $0x0,0x20(%rsp)
 9d7:	00 00 
 9d9:	48 8d 44 24 40       	lea    0x40(%rsp),%rax
 9de:	48 89 44 24 30       	mov    %rax,0x30(%rsp)
 9e3:	48 c7 44 24 38 02 00 	movq   $0x2,0x38(%rsp)
 9ea:	00 00 
 9ec:	48 8d 35 00 00 00 00 	lea    0x0(%rip),%rsi        # 9f3 <_ZN7raidpir6client13RaidPirClient5query17haaf4a421526fdc00E+0x9f3>
 9f3:	48 8d 7c 24 10       	lea    0x10(%rsp),%rdi
 9f8:	ff 15 00 00 00 00    	callq  *0x0(%rip)        # 9fe <_ZN7raidpir6client13RaidPirClient5query17haaf4a421526fdc00E+0x9fe>
 9fe:	e9 3a fe ff ff       	jmpq   83d <_ZN7raidpir6client13RaidPirClient5query17haaf4a421526fdc00E+0x83d>
 a03:	48 8d 84 24 98 00 00 	lea    0x98(%rsp),%rax
 a0a:	00 
 a0b:	48 89 44 24 40       	mov    %rax,0x40(%rsp)
 a10:	48 8b 05 00 00 00 00 	mov    0x0(%rip),%rax        # a17 <_ZN7raidpir6client13RaidPirClient5query17haaf4a421526fdc00E+0xa17>
 a17:	48 89 44 24 48       	mov    %rax,0x48(%rsp)
 a1c:	48 8d 0d 00 00 00 00 	lea    0x0(%rip),%rcx        # a23 <_ZN7raidpir6client13RaidPirClient5query17haaf4a421526fdc00E+0xa23>
 a23:	48 89 4c 24 50       	mov    %rcx,0x50(%rsp)
 a28:	48 89 44 24 58       	mov    %rax,0x58(%rsp)
 a2d:	48 8d 05 00 00 00 00 	lea    0x0(%rip),%rax        # a34 <_ZN7raidpir6client13RaidPirClient5query17haaf4a421526fdc00E+0xa34>
 a34:	48 89 44 24 10       	mov    %rax,0x10(%rsp)
 a39:	48 c7 44 24 18 02 00 	movq   $0x2,0x18(%rsp)
 a40:	00 00 
 a42:	48 c7 44 24 20 00 00 	movq   $0x0,0x20(%rsp)
 a49:	00 00 
 a4b:	48 8d 44 24 40       	lea    0x40(%rsp),%rax
 a50:	48 89 44 24 30       	mov    %rax,0x30(%rsp)
 a55:	48 c7 44 24 38 02 00 	movq   $0x2,0x38(%rsp)
 a5c:	00 00 
 a5e:	48 8d 35 00 00 00 00 	lea    0x0(%rip),%rsi        # a65 <_ZN7raidpir6client13RaidPirClient5query17haaf4a421526fdc00E+0xa65>
 a65:	48 8d 7c 24 10       	lea    0x10(%rsp),%rdi
 a6a:	ff 15 00 00 00 00    	callq  *0x0(%rip)        # a70 <_ZN7raidpir6client13RaidPirClient5query17haaf4a421526fdc00E+0xa70>
 a70:	e9 c8 fd ff ff       	jmpq   83d <_ZN7raidpir6client13RaidPirClient5query17haaf4a421526fdc00E+0x83d>
 a75:	48 8d 3d 00 00 00 00 	lea    0x0(%rip),%rdi        # a7c <_ZN7raidpir6client13RaidPirClient5query17haaf4a421526fdc00E+0xa7c>
 a7c:	48 8d 15 00 00 00 00 	lea    0x0(%rip),%rdx        # a83 <_ZN7raidpir6client13RaidPirClient5query17haaf4a421526fdc00E+0xa83>
 a83:	be 18 00 00 00       	mov    $0x18,%esi
 a88:	ff 15 00 00 00 00    	callq  *0x0(%rip)        # a8e <_ZN7raidpir6client13RaidPirClient5query17haaf4a421526fdc00E+0xa8e>
 a8e:	e9 aa fd ff ff       	jmpq   83d <_ZN7raidpir6client13RaidPirClient5query17haaf4a421526fdc00E+0x83d>
 a93:	48 8d 3d 00 00 00 00 	lea    0x0(%rip),%rdi        # a9a <_ZN7raidpir6client13RaidPirClient5query17haaf4a421526fdc00E+0xa9a>
 a9a:	48 8d 15 00 00 00 00 	lea    0x0(%rip),%rdx        # aa1 <_ZN7raidpir6client13RaidPirClient5query17haaf4a421526fdc00E+0xaa1>
 aa1:	be 18 00 00 00       	mov    $0x18,%esi
 aa6:	ff 15 00 00 00 00    	callq  *0x0(%rip)        # aac <_ZN7raidpir6client13RaidPirClient5query17haaf4a421526fdc00E+0xaac>
 aac:	e9 8c fd ff ff       	jmpq   83d <_ZN7raidpir6client13RaidPirClient5query17haaf4a421526fdc00E+0x83d>
 ab1:	eb 68                	jmp    b1b <_ZN7raidpir6client13RaidPirClient5query17haaf4a421526fdc00E+0xb1b>
 ab3:	48 89 c3             	mov    %rax,%rbx
 ab6:	4d 85 f6             	test   %r14,%r14
 ab9:	74 12                	je     acd <_ZN7raidpir6client13RaidPirClient5query17haaf4a421526fdc00E+0xacd>
 abb:	48 89 ef             	mov    %rbp,%rdi
 abe:	e8 00 00 00 00       	callq  ac3 <_ZN7raidpir6client13RaidPirClient5query17haaf4a421526fdc00E+0xac3>
 ac3:	48 83 c5 18          	add    $0x18,%rbp
 ac7:	49 83 c6 e8          	add    $0xffffffffffffffe8,%r14
 acb:	75 ee                	jne    abb <_ZN7raidpir6client13RaidPirClient5query17haaf4a421526fdc00E+0xabb>
 acd:	48 8d 7c 24 60       	lea    0x60(%rsp),%rdi
 ad2:	e8 00 00 00 00       	callq  ad7 <_ZN7raidpir6client13RaidPirClient5query17haaf4a421526fdc00E+0xad7>
 ad7:	eb 2e                	jmp    b07 <_ZN7raidpir6client13RaidPirClient5query17haaf4a421526fdc00E+0xb07>
 ad9:	48 89 c3             	mov    %rax,%rbx
 adc:	eb ef                	jmp    acd <_ZN7raidpir6client13RaidPirClient5query17haaf4a421526fdc00E+0xacd>
 ade:	48 89 c3             	mov    %rax,%rbx
 ae1:	48 8d 7c 24 60       	lea    0x60(%rsp),%rdi
 ae6:	e8 00 00 00 00       	callq  aeb <_ZN7raidpir6client13RaidPirClient5query17haaf4a421526fdc00E+0xaeb>
 aeb:	eb 3b                	jmp    b28 <_ZN7raidpir6client13RaidPirClient5query17haaf4a421526fdc00E+0xb28>
 aed:	48 89 c3             	mov    %rax,%rbx
 af0:	eb 36                	jmp    b28 <_ZN7raidpir6client13RaidPirClient5query17haaf4a421526fdc00E+0xb28>
 af2:	48 89 c3             	mov    %rax,%rbx
 af5:	48 89 ef             	mov    %rbp,%rdi
 af8:	e8 00 00 00 00       	callq  afd <_ZN7raidpir6client13RaidPirClient5query17haaf4a421526fdc00E+0xafd>
 afd:	48 8d 7c 24 60       	lea    0x60(%rsp),%rdi
 b02:	e8 00 00 00 00       	callq  b07 <_ZN7raidpir6client13RaidPirClient5query17haaf4a421526fdc00E+0xb07>
 b07:	48 8d bc 24 98 00 00 	lea    0x98(%rsp),%rdi
 b0e:	00 
 b0f:	e8 00 00 00 00       	callq  b14 <_ZN7raidpir6client13RaidPirClient5query17haaf4a421526fdc00E+0xb14>
 b14:	eb 1c                	jmp    b32 <_ZN7raidpir6client13RaidPirClient5query17haaf4a421526fdc00E+0xb32>
 b16:	48 89 c3             	mov    %rax,%rbx
 b19:	eb e2                	jmp    afd <_ZN7raidpir6client13RaidPirClient5query17haaf4a421526fdc00E+0xafd>
 b1b:	48 89 c3             	mov    %rax,%rbx
 b1e:	48 8d 7c 24 60       	lea    0x60(%rsp),%rdi
 b23:	e8 00 00 00 00       	callq  b28 <_ZN7raidpir6client13RaidPirClient5query17haaf4a421526fdc00E+0xb28>
 b28:	48 8d 7c 24 78       	lea    0x78(%rsp),%rdi
 b2d:	e8 00 00 00 00       	callq  b32 <_ZN7raidpir6client13RaidPirClient5query17haaf4a421526fdc00E+0xb32>
 b32:	48 89 df             	mov    %rbx,%rdi
 b35:	e8 00 00 00 00       	callq  b3a <_ZN7raidpir6client13RaidPirClient5query17haaf4a421526fdc00E+0xb3a>
 b3a:	0f 0b                	ud2    

Disassembly of section .text._ZN67_$LT$raidpir..client..RaidPirClient$u20$as$u20$core..fmt..Debug$GT$3fmt17h912abecaefd491dbE:

0000000000000000 <_ZN67_$LT$raidpir..client..RaidPirClient$u20$as$u20$core..fmt..Debug$GT$3fmt17h912abecaefd491dbE>:
   0:	55                   	push   %rbp
   1:	41 57                	push   %r15
   3:	41 56                	push   %r14
   5:	41 55                	push   %r13
   7:	41 54                	push   %r12
   9:	53                   	push   %rbx
   a:	48 83 ec 18          	sub    $0x18,%rsp
   e:	48 89 f0             	mov    %rsi,%rax
  11:	48 89 fb             	mov    %rdi,%rbx
  14:	48 8d 6f 08          	lea    0x8(%rdi),%rbp
  18:	4c 8d 6f 10          	lea    0x10(%rdi),%r13
  1c:	4c 8d 7f 18          	lea    0x18(%rdi),%r15
  20:	48 8d 35 00 00 00 00 	lea    0x0(%rip),%rsi        # 27 <_ZN67_$LT$raidpir..client..RaidPirClient$u20$as$u20$core..fmt..Debug$GT$3fmt17h912abecaefd491dbE+0x27>
  27:	ba 0d 00 00 00       	mov    $0xd,%edx
  2c:	48 89 c7             	mov    %rax,%rdi
  2f:	ff 15 00 00 00 00    	callq  *0x0(%rip)        # 35 <_ZN67_$LT$raidpir..client..RaidPirClient$u20$as$u20$core..fmt..Debug$GT$3fmt17h912abecaefd491dbE+0x35>
  35:	48 89 54 24 10       	mov    %rdx,0x10(%rsp)
  3a:	48 89 44 24 08       	mov    %rax,0x8(%rsp)
  3f:	48 89 1c 24          	mov    %rbx,(%rsp)
  43:	48 8d 35 00 00 00 00 	lea    0x0(%rip),%rsi        # 4a <_ZN67_$LT$raidpir..client..RaidPirClient$u20$as$u20$core..fmt..Debug$GT$3fmt17h912abecaefd491dbE+0x4a>
  4a:	4c 8d 35 00 00 00 00 	lea    0x0(%rip),%r14        # 51 <_ZN67_$LT$raidpir..client..RaidPirClient$u20$as$u20$core..fmt..Debug$GT$3fmt17h912abecaefd491dbE+0x51>
  51:	4c 8b 25 00 00 00 00 	mov    0x0(%rip),%r12        # 58 <_ZN67_$LT$raidpir..client..RaidPirClient$u20$as$u20$core..fmt..Debug$GT$3fmt17h912abecaefd491dbE+0x58>
  58:	48 8d 5c 24 08       	lea    0x8(%rsp),%rbx
  5d:	48 89 e1             	mov    %rsp,%rcx
  60:	ba 06 00 00 00       	mov    $0x6,%edx
  65:	48 89 df             	mov    %rbx,%rdi
  68:	4d 89 f0             	mov    %r14,%r8
  6b:	41 ff d4             	callq  *%r12
  6e:	48 89 2c 24          	mov    %rbp,(%rsp)
  72:	48 8d 35 00 00 00 00 	lea    0x0(%rip),%rsi        # 79 <_ZN67_$LT$raidpir..client..RaidPirClient$u20$as$u20$core..fmt..Debug$GT$3fmt17h912abecaefd491dbE+0x79>
  79:	48 89 e1             	mov    %rsp,%rcx
  7c:	ba 0d 00 00 00       	mov    $0xd,%edx
  81:	48 89 df             	mov    %rbx,%rdi
  84:	4d 89 f0             	mov    %r14,%r8
  87:	41 ff d4             	callq  *%r12
  8a:	4c 89 2c 24          	mov    %r13,(%rsp)
  8e:	48 8d 35 00 00 00 00 	lea    0x0(%rip),%rsi        # 95 <_ZN67_$LT$raidpir..client..RaidPirClient$u20$as$u20$core..fmt..Debug$GT$3fmt17h912abecaefd491dbE+0x95>
  95:	48 89 e1             	mov    %rsp,%rcx
  98:	ba 07 00 00 00       	mov    $0x7,%edx
  9d:	48 89 df             	mov    %rbx,%rdi
  a0:	4d 89 f0             	mov    %r14,%r8
  a3:	41 ff d4             	callq  *%r12
  a6:	4c 89 3c 24          	mov    %r15,(%rsp)
  aa:	48 8d 35 00 00 00 00 	lea    0x0(%rip),%rsi        # b1 <_ZN67_$LT$raidpir..client..RaidPirClient$u20$as$u20$core..fmt..Debug$GT$3fmt17h912abecaefd491dbE+0xb1>
  b1:	48 89 e1             	mov    %rsp,%rcx
  b4:	ba 0a 00 00 00       	mov    $0xa,%edx
  b9:	48 89 df             	mov    %rbx,%rdi
  bc:	4d 89 f0             	mov    %r14,%r8
  bf:	41 ff d4             	callq  *%r12
  c2:	48 89 df             	mov    %rbx,%rdi
  c5:	ff 15 00 00 00 00    	callq  *0x0(%rip)        # cb <_ZN67_$LT$raidpir..client..RaidPirClient$u20$as$u20$core..fmt..Debug$GT$3fmt17h912abecaefd491dbE+0xcb>
  cb:	48 83 c4 18          	add    $0x18,%rsp
  cf:	5b                   	pop    %rbx
  d0:	41 5c                	pop    %r12
  d2:	41 5d                	pop    %r13
  d4:	41 5e                	pop    %r14
  d6:	41 5f                	pop    %r15
  d8:	5d                   	pop    %rbp
  d9:	c3                   	retq   

raidpir-af98855fa7dd616c.raidpir.b7a4ri6o-cgu.15.rcgu.o:     file format elf64-x86-64


Disassembly of section .text._ZN102_$LT$core..slice..iter..IterMut$LT$T$GT$$u20$as$u20$core..iter..adapters..zip..TrustedRandomAccess$GT$20may_have_side_effect17hf536c8b768f61faaE:

0000000000000000 <_ZN102_$LT$core..slice..iter..IterMut$LT$T$GT$$u20$as$u20$core..iter..adapters..zip..TrustedRandomAccess$GT$20may_have_side_effect17hf536c8b768f61faaE>:
   0:	31 c0                	xor    %eax,%eax
   2:	c3                   	retq   

Disassembly of section .text._ZN10rayon_core6unwind14halt_unwinding17h579de0912d23e0b8E:

0000000000000000 <_ZN10rayon_core6unwind14halt_unwinding17h579de0912d23e0b8E>:
   0:	48 83 ec 28          	sub    $0x28,%rsp
   4:	48 8b 07             	mov    (%rdi),%rax
   7:	48 8b 4f 08          	mov    0x8(%rdi),%rcx
   b:	4c 8b 4f 38          	mov    0x38(%rdi),%r9
   f:	31 f6                	xor    %esi,%esi
  11:	80 7f 40 00          	cmpb   $0x0,0x40(%rdi)
  15:	40 0f 95 c6          	setne  %sil
  19:	4c 8b 10             	mov    (%rax),%r10
  1c:	48 8b 11             	mov    (%rcx),%rdx
  1f:	48 8b 49 08          	mov    0x8(%rcx),%rcx
  23:	48 8b 47 30          	mov    0x30(%rdi),%rax
  27:	48 89 44 24 20       	mov    %rax,0x20(%rsp)
  2c:	c5 fc 10 47 10       	vmovups 0x10(%rdi),%ymm0
  31:	c5 fc 11 04 24       	vmovups %ymm0,(%rsp)
  36:	49 89 e0             	mov    %rsp,%r8
  39:	4c 89 d7             	mov    %r10,%rdi
  3c:	c5 f8 77             	vzeroupper 
  3f:	e8 00 00 00 00       	callq  44 <_ZN10rayon_core6unwind14halt_unwinding17h579de0912d23e0b8E+0x44>
  44:	31 c0                	xor    %eax,%eax
  46:	48 83 c4 28          	add    $0x28,%rsp
  4a:	c3                   	retq   
  4b:	48 89 c7             	mov    %rax,%rdi
  4e:	ff 15 00 00 00 00    	callq  *0x0(%rip)        # 54 <_ZN10rayon_core6unwind14halt_unwinding17h579de0912d23e0b8E+0x54>
  54:	48 83 c4 28          	add    $0x28,%rsp
  58:	c3                   	retq   

Disassembly of section .text._ZN10rayon_core6unwind14halt_unwinding17h5a5c0d2a73e7cb26E:

0000000000000000 <_ZN10rayon_core6unwind14halt_unwinding17h5a5c0d2a73e7cb26E>:
   0:	53                   	push   %rbx
   1:	48 81 ec 20 02 00 00 	sub    $0x220,%rsp
   8:	48 89 fb             	mov    %rdi,%rbx
   b:	c5 f8 10 06          	vmovups (%rsi),%xmm0
   f:	c5 fc 10 8e 88 00 00 	vmovups 0x88(%rsi),%ymm1
  16:	00 
  17:	c5 fc 11 8c 24 a8 00 	vmovups %ymm1,0xa8(%rsp)
  1e:	00 00 
  20:	c5 fc 10 4e 70       	vmovups 0x70(%rsi),%ymm1
  25:	c5 fc 11 8c 24 90 00 	vmovups %ymm1,0x90(%rsp)
  2c:	00 00 
  2e:	c5 fc 10 4e 50       	vmovups 0x50(%rsi),%ymm1
  33:	c5 fc 11 4c 24 70    	vmovups %ymm1,0x70(%rsp)
  39:	c5 fc 10 56 30       	vmovups 0x30(%rsi),%ymm2
  3e:	c5 fc 11 54 24 50    	vmovups %ymm2,0x50(%rsp)
  44:	c5 fc 10 5e 10       	vmovups 0x10(%rsi),%ymm3
  49:	c5 fc 11 5c 24 30    	vmovups %ymm3,0x30(%rsp)
  4f:	c5 fc 10 a4 24 90 00 	vmovups 0x90(%rsp),%ymm4
  56:	00 00 
  58:	c5 fc 10 ac 24 a8 00 	vmovups 0xa8(%rsp),%ymm5
  5f:	00 00 
  61:	c5 fc 11 ac 24 48 01 	vmovups %ymm5,0x148(%rsp)
  68:	00 00 
  6a:	c5 fc 11 a4 24 30 01 	vmovups %ymm4,0x130(%rsp)
  71:	00 00 
  73:	c5 fc 11 8c 24 10 01 	vmovups %ymm1,0x110(%rsp)
  7a:	00 00 
  7c:	c5 fc 11 94 24 f0 00 	vmovups %ymm2,0xf0(%rsp)
  83:	00 00 
  85:	c5 fc 11 9c 24 d0 00 	vmovups %ymm3,0xd0(%rsp)
  8c:	00 00 
  8e:	c5 f8 29 84 24 70 01 	vmovaps %xmm0,0x170(%rsp)
  95:	00 00 
  97:	c5 fc 10 46 10       	vmovups 0x10(%rsi),%ymm0
  9c:	c5 fc 10 4e 30       	vmovups 0x30(%rsi),%ymm1
  a1:	c5 fc 10 56 50       	vmovups 0x50(%rsi),%ymm2
  a6:	c5 fc 10 5e 70       	vmovups 0x70(%rsi),%ymm3
  ab:	c5 fc 11 84 24 80 01 	vmovups %ymm0,0x180(%rsp)
  b2:	00 00 
  b4:	c5 fc 11 8c 24 a0 01 	vmovups %ymm1,0x1a0(%rsp)
  bb:	00 00 
  bd:	c5 fc 11 94 24 c0 01 	vmovups %ymm2,0x1c0(%rsp)
  c4:	00 00 
  c6:	c5 fc 11 9c 24 e0 01 	vmovups %ymm3,0x1e0(%rsp)
  cd:	00 00 
  cf:	c5 fc 10 86 88 00 00 	vmovups 0x88(%rsi),%ymm0
  d6:	00 
  d7:	c5 fc 11 84 24 f8 01 	vmovups %ymm0,0x1f8(%rsp)
  de:	00 00 
  e0:	48 89 e7             	mov    %rsp,%rdi
  e3:	48 8d b4 24 70 01 00 	lea    0x170(%rsp),%rsi
  ea:	00 
  eb:	c5 f8 77             	vzeroupper 
  ee:	e8 00 00 00 00       	callq  f3 <_ZN10rayon_core6unwind14halt_unwinding17h5a5c0d2a73e7cb26E+0xf3>
  f3:	c5 f8 28 04 24       	vmovaps (%rsp),%xmm0
  f8:	c5 fc 10 4c 24 10    	vmovups 0x10(%rsp),%ymm1
  fe:	c5 fc 11 8c 24 d0 00 	vmovups %ymm1,0xd0(%rsp)
 105:	00 00 
 107:	c5 f8 11 43 08       	vmovups %xmm0,0x8(%rbx)
 10c:	c5 fc 10 84 24 d0 00 	vmovups 0xd0(%rsp),%ymm0
 113:	00 00 
 115:	c5 fc 11 43 18       	vmovups %ymm0,0x18(%rbx)
 11a:	31 c0                	xor    %eax,%eax
 11c:	48 89 03             	mov    %rax,(%rbx)
 11f:	48 89 d8             	mov    %rbx,%rax
 122:	48 81 c4 20 02 00 00 	add    $0x220,%rsp
 129:	5b                   	pop    %rbx
 12a:	c5 f8 77             	vzeroupper 
 12d:	c3                   	retq   
 12e:	48 89 c7             	mov    %rax,%rdi
 131:	ff 15 00 00 00 00    	callq  *0x0(%rip)        # 137 <_ZN10rayon_core6unwind14halt_unwinding17h5a5c0d2a73e7cb26E+0x137>
 137:	48 89 43 08          	mov    %rax,0x8(%rbx)
 13b:	48 89 53 10          	mov    %rdx,0x10(%rbx)
 13f:	b8 01 00 00 00       	mov    $0x1,%eax
 144:	eb d6                	jmp    11c <_ZN10rayon_core6unwind14halt_unwinding17h5a5c0d2a73e7cb26E+0x11c>

Disassembly of section .text._ZN10rayon_core6unwind14halt_unwinding17h6338fd652a6bcbc1E:

0000000000000000 <_ZN10rayon_core6unwind14halt_unwinding17h6338fd652a6bcbc1E>:
   0:	41 56                	push   %r14
   2:	53                   	push   %rbx
   3:	48 83 ec 28          	sub    $0x28,%rsp
   7:	49 89 fe             	mov    %rdi,%r14
   a:	48 8b 06             	mov    (%rsi),%rax
   d:	48 8b 4e 08          	mov    0x8(%rsi),%rcx
  11:	48 8b 5e 10          	mov    0x10(%rsi),%rbx
  15:	4c 8b 46 18          	mov    0x18(%rsi),%r8
  19:	4c 8b 4e 20          	mov    0x20(%rsi),%r9
  1d:	48 8b 38             	mov    (%rax),%rdi
  20:	48 2b 39             	sub    (%rcx),%rdi
  23:	48 8b 13             	mov    (%rbx),%rdx
  26:	48 8b 4b 08          	mov    0x8(%rbx),%rcx
  2a:	48 8b 46 38          	mov    0x38(%rsi),%rax
  2e:	48 89 44 24 20       	mov    %rax,0x20(%rsp)
  33:	c5 f8 10 46 28       	vmovups 0x28(%rsi),%xmm0
  38:	c5 f8 29 44 24 10    	vmovaps %xmm0,0x10(%rsp)
  3e:	48 8d 44 24 10       	lea    0x10(%rsp),%rax
  43:	48 89 04 24          	mov    %rax,(%rsp)
  47:	be 01 00 00 00       	mov    $0x1,%esi
  4c:	e8 00 00 00 00       	callq  51 <_ZN10rayon_core6unwind14halt_unwinding17h6338fd652a6bcbc1E+0x51>
  51:	49 89 46 08          	mov    %rax,0x8(%r14)
  55:	49 89 56 10          	mov    %rdx,0x10(%r14)
  59:	31 c0                	xor    %eax,%eax
  5b:	49 89 06             	mov    %rax,(%r14)
  5e:	4c 89 f0             	mov    %r14,%rax
  61:	48 83 c4 28          	add    $0x28,%rsp
  65:	5b                   	pop    %rbx
  66:	41 5e                	pop    %r14
  68:	c3                   	retq   
  69:	48 89 c7             	mov    %rax,%rdi
  6c:	ff 15 00 00 00 00    	callq  *0x0(%rip)        # 72 <_ZN10rayon_core6unwind14halt_unwinding17h6338fd652a6bcbc1E+0x72>
  72:	49 89 46 08          	mov    %rax,0x8(%r14)
  76:	49 89 56 10          	mov    %rdx,0x10(%r14)
  7a:	b8 01 00 00 00       	mov    $0x1,%eax
  7f:	eb da                	jmp    5b <_ZN10rayon_core6unwind14halt_unwinding17h6338fd652a6bcbc1E+0x5b>

Disassembly of section .text._ZN10rayon_core6unwind14halt_unwinding17h696fabbab7a0d525E:

0000000000000000 <_ZN10rayon_core6unwind14halt_unwinding17h696fabbab7a0d525E>:
   0:	53                   	push   %rbx
   1:	48 83 ec 50          	sub    $0x50,%rsp
   5:	48 89 fb             	mov    %rdi,%rbx
   8:	48 8b 06             	mov    (%rsi),%rax
   b:	48 8b 4e 08          	mov    0x8(%rsi),%rcx
   f:	48 8b 56 10          	mov    0x10(%rsi),%rdx
  13:	4c 8b 4e 18          	mov    0x18(%rsi),%r9
  17:	4c 8b 56 20          	mov    0x20(%rsi),%r10
  1b:	48 8b 00             	mov    (%rax),%rax
  1e:	48 2b 01             	sub    (%rcx),%rax
  21:	48 8b 0a             	mov    (%rdx),%rcx
  24:	4c 8b 42 08          	mov    0x8(%rdx),%r8
  28:	c5 fc 10 46 28       	vmovups 0x28(%rsi),%ymm0
  2d:	c5 fc 10 4e 38       	vmovups 0x38(%rsi),%ymm1
  32:	c5 fc 11 4c 24 30    	vmovups %ymm1,0x30(%rsp)
  38:	c5 fc 11 44 24 20    	vmovups %ymm0,0x20(%rsp)
  3e:	4c 8d 5c 24 20       	lea    0x20(%rsp),%r11
  43:	48 89 e7             	mov    %rsp,%rdi
  46:	48 89 c6             	mov    %rax,%rsi
  49:	ba 01 00 00 00       	mov    $0x1,%edx
  4e:	41 53                	push   %r11
  50:	41 52                	push   %r10
  52:	c5 f8 77             	vzeroupper 
  55:	e8 00 00 00 00       	callq  5a <_ZN10rayon_core6unwind14halt_unwinding17h696fabbab7a0d525E+0x5a>
  5a:	48 83 c4 10          	add    $0x10,%rsp
  5e:	c5 f8 28 04 24       	vmovaps (%rsp),%xmm0
  63:	48 8b 44 24 10       	mov    0x10(%rsp),%rax
  68:	c5 f8 11 43 08       	vmovups %xmm0,0x8(%rbx)
  6d:	48 89 43 18          	mov    %rax,0x18(%rbx)
  71:	31 c0                	xor    %eax,%eax
  73:	48 89 03             	mov    %rax,(%rbx)
  76:	48 89 d8             	mov    %rbx,%rax
  79:	48 83 c4 50          	add    $0x50,%rsp
  7d:	5b                   	pop    %rbx
  7e:	c3                   	retq   
  7f:	48 89 c7             	mov    %rax,%rdi
  82:	ff 15 00 00 00 00    	callq  *0x0(%rip)        # 88 <_ZN10rayon_core6unwind14halt_unwinding17h696fabbab7a0d525E+0x88>
  88:	48 89 43 08          	mov    %rax,0x8(%rbx)
  8c:	48 89 53 10          	mov    %rdx,0x10(%rbx)
  90:	b8 01 00 00 00       	mov    $0x1,%eax
  95:	eb dc                	jmp    73 <_ZN10rayon_core6unwind14halt_unwinding17h696fabbab7a0d525E+0x73>

Disassembly of section .text._ZN10rayon_core6unwind14halt_unwinding17h6a7bb80d248d93ddE:

