In archive target/aarch64-linux-android/release/libraidpir.rlib:

raidpir-c699d5be9177cfbe.raidpir.99fyazdk-cgu.0.rcgu.o:     file format elf64-littleaarch64


Disassembly of section .text._ZN4core3ptr13drop_in_place17hc0566755684ff41dE.llvm.2320843916410695052:

0000000000000000 <_ZN4core3ptr13drop_in_place17hc0566755684ff41dE.llvm.2320843916410695052>:
   0:	d65f03c0 	ret

Disassembly of section .text._ZN5alloc7raw_vec11finish_grow17h611f49d0c6bac2a4E.llvm.2320843916410695052:

0000000000000000 <_ZN5alloc7raw_vec11finish_grow17h611f49d0c6bac2a4E.llvm.2320843916410695052>:
   0:	f81d0ffe 	str	x30, [sp,#-48]!
   4:	a90157f6 	stp	x22, x21, [sp,#16]
   8:	a9024ff4 	stp	x20, x19, [sp,#32]
   c:	f100005f 	cmp	x2, #0x0
  10:	aa0203f4 	mov	x20, x2
  14:	aa0003f3 	mov	x19, x0
  18:	9a8103f6 	csel	x22, xzr, x1, eq
  1c:	b4000202 	cbz	x2, 5c <_ZN5alloc7raw_vec11finish_grow17h611f49d0c6bac2a4E.llvm.2320843916410695052+0x5c>
  20:	f9400060 	ldr	x0, [x3]
  24:	aa0103f5 	mov	x21, x1
  28:	b4000100 	cbz	x0, 48 <_ZN5alloc7raw_vec11finish_grow17h611f49d0c6bac2a4E.llvm.2320843916410695052+0x48>
  2c:	f9400461 	ldr	x1, [x3,#8]
  30:	b40000c1 	cbz	x1, 48 <_ZN5alloc7raw_vec11finish_grow17h611f49d0c6bac2a4E.llvm.2320843916410695052+0x48>
  34:	aa1403e2 	mov	x2, x20
  38:	aa1603e3 	mov	x3, x22
  3c:	94000000 	bl	0 <__rust_realloc>
  40:	b5000180 	cbnz	x0, 70 <_ZN5alloc7raw_vec11finish_grow17h611f49d0c6bac2a4E.llvm.2320843916410695052+0x70>
  44:	14000006 	b	5c <_ZN5alloc7raw_vec11finish_grow17h611f49d0c6bac2a4E.llvm.2320843916410695052+0x5c>
  48:	b4000116 	cbz	x22, 68 <_ZN5alloc7raw_vec11finish_grow17h611f49d0c6bac2a4E.llvm.2320843916410695052+0x68>
  4c:	aa1603e0 	mov	x0, x22
  50:	aa1403e1 	mov	x1, x20
  54:	94000000 	bl	0 <__rust_alloc>
  58:	b50000c0 	cbnz	x0, 70 <_ZN5alloc7raw_vec11finish_grow17h611f49d0c6bac2a4E.llvm.2320843916410695052+0x70>
  5c:	52800028 	mov	w8, #0x1                   	// #1
  60:	f9000676 	str	x22, [x19,#8]
  64:	14000006 	b	7c <_ZN5alloc7raw_vec11finish_grow17h611f49d0c6bac2a4E.llvm.2320843916410695052+0x7c>
  68:	aa1f03f5 	mov	x21, xzr
  6c:	aa1403e0 	mov	x0, x20
  70:	aa1f03e8 	mov	x8, xzr
  74:	f9000660 	str	x0, [x19,#8]
  78:	aa1503f4 	mov	x20, x21
  7c:	f9000a74 	str	x20, [x19,#16]
  80:	f9000268 	str	x8, [x19]
  84:	a9424ff4 	ldp	x20, x19, [sp,#32]
  88:	a94157f6 	ldp	x22, x21, [sp,#16]
  8c:	f84307fe 	ldr	x30, [sp],#48
  90:	d65f03c0 	ret

Disassembly of section .text._ZN5alloc7raw_vec19RawVec$LT$T$C$A$GT$11allocate_in17h168902e5836b23b3E:

0000000000000000 <_ZN5alloc7raw_vec19RawVec$LT$T$C$A$GT$11allocate_in17h168902e5836b23b3E>:
   0:	a9bf4ffe 	stp	x30, x19, [sp,#-16]!
   4:	aa0003f3 	mov	x19, x0
   8:	34000121 	cbz	w1, 2c <_ZN5alloc7raw_vec19RawVec$LT$T$C$A$GT$11allocate_in17h168902e5836b23b3E+0x2c>
   c:	b4000233 	cbz	x19, 50 <_ZN5alloc7raw_vec19RawVec$LT$T$C$A$GT$11allocate_in17h168902e5836b23b3E+0x50>
  10:	52800021 	mov	w1, #0x1                   	// #1
  14:	aa1303e0 	mov	x0, x19
  18:	94000000 	bl	0 <__rust_alloc_zeroed>
  1c:	b4000120 	cbz	x0, 40 <_ZN5alloc7raw_vec19RawVec$LT$T$C$A$GT$11allocate_in17h168902e5836b23b3E+0x40>
  20:	aa1303e1 	mov	x1, x19
  24:	a8c14ffe 	ldp	x30, x19, [sp],#16
  28:	d65f03c0 	ret
  2c:	b4000133 	cbz	x19, 50 <_ZN5alloc7raw_vec19RawVec$LT$T$C$A$GT$11allocate_in17h168902e5836b23b3E+0x50>
  30:	52800021 	mov	w1, #0x1                   	// #1
  34:	aa1303e0 	mov	x0, x19
  38:	94000000 	bl	0 <__rust_alloc>
  3c:	b5ffff20 	cbnz	x0, 20 <_ZN5alloc7raw_vec19RawVec$LT$T$C$A$GT$11allocate_in17h168902e5836b23b3E+0x20>
  40:	52800021 	mov	w1, #0x1                   	// #1
  44:	aa1303e0 	mov	x0, x19
  48:	94000000 	bl	0 <_ZN5alloc5alloc18handle_alloc_error17hdcf25d948d4c5cd4E>
  4c:	d4200020 	brk	#0x1
  50:	52800020 	mov	w0, #0x1                   	// #1
  54:	aa1303e1 	mov	x1, x19
  58:	a8c14ffe 	ldp	x30, x19, [sp],#16
  5c:	d65f03c0 	ret

Disassembly of section .text._ZN5alloc7raw_vec19RawVec$LT$T$C$A$GT$11allocate_in17h3cb2852e956de2deE:

0000000000000000 <_ZN5alloc7raw_vec19RawVec$LT$T$C$A$GT$11allocate_in17h3cb2852e956de2deE>:
   0:	a9bf4ffe 	stp	x30, x19, [sp,#-16]!
   4:	eb40f3ff 	negs	xzr, x0, lsr #60
   8:	54000301 	b.ne	68 <_ZN5alloc7raw_vec19RawVec$LT$T$C$A$GT$11allocate_in17h3cb2852e956de2deE+0x68>
   c:	d37cec13 	lsl	x19, x0, #4
  10:	34000121 	cbz	w1, 34 <_ZN5alloc7raw_vec19RawVec$LT$T$C$A$GT$11allocate_in17h3cb2852e956de2deE+0x34>
  14:	b4000233 	cbz	x19, 58 <_ZN5alloc7raw_vec19RawVec$LT$T$C$A$GT$11allocate_in17h3cb2852e956de2deE+0x58>
  18:	52800101 	mov	w1, #0x8                   	// #8
  1c:	aa1303e0 	mov	x0, x19
  20:	94000000 	bl	0 <__rust_alloc_zeroed>
  24:	b4000120 	cbz	x0, 48 <_ZN5alloc7raw_vec19RawVec$LT$T$C$A$GT$11allocate_in17h3cb2852e956de2deE+0x48>
  28:	d344fe61 	lsr	x1, x19, #4
  2c:	a8c14ffe 	ldp	x30, x19, [sp],#16
  30:	d65f03c0 	ret
  34:	b4000133 	cbz	x19, 58 <_ZN5alloc7raw_vec19RawVec$LT$T$C$A$GT$11allocate_in17h3cb2852e956de2deE+0x58>
  38:	52800101 	mov	w1, #0x8                   	// #8
  3c:	aa1303e0 	mov	x0, x19
  40:	94000000 	bl	0 <__rust_alloc>
  44:	b5ffff20 	cbnz	x0, 28 <_ZN5alloc7raw_vec19RawVec$LT$T$C$A$GT$11allocate_in17h3cb2852e956de2deE+0x28>
  48:	52800101 	mov	w1, #0x8                   	// #8
  4c:	aa1303e0 	mov	x0, x19
  50:	94000000 	bl	0 <_ZN5alloc5alloc18handle_alloc_error17hdcf25d948d4c5cd4E>
  54:	d4200020 	brk	#0x1
  58:	52800100 	mov	w0, #0x8                   	// #8
  5c:	d344fe61 	lsr	x1, x19, #4
  60:	a8c14ffe 	ldp	x30, x19, [sp],#16
  64:	d65f03c0 	ret
  68:	94000000 	bl	0 <_ZN5alloc7raw_vec17capacity_overflow17h1b08dc05f9b56ce9E>
  6c:	d4200020 	brk	#0x1

Disassembly of section .text._ZN5alloc7raw_vec19RawVec$LT$T$C$A$GT$11allocate_in17h9a85785e1097a8c4E:

0000000000000000 <_ZN5alloc7raw_vec19RawVec$LT$T$C$A$GT$11allocate_in17h9a85785e1097a8c4E>:
   0:	a9bf4ffe 	stp	x30, x19, [sp,#-16]!
   4:	eb40f7ff 	negs	xzr, x0, lsr #61
   8:	54000301 	b.ne	68 <_ZN5alloc7raw_vec19RawVec$LT$T$C$A$GT$11allocate_in17h9a85785e1097a8c4E+0x68>
   c:	d37df013 	lsl	x19, x0, #3
  10:	34000121 	cbz	w1, 34 <_ZN5alloc7raw_vec19RawVec$LT$T$C$A$GT$11allocate_in17h9a85785e1097a8c4E+0x34>
  14:	b4000233 	cbz	x19, 58 <_ZN5alloc7raw_vec19RawVec$LT$T$C$A$GT$11allocate_in17h9a85785e1097a8c4E+0x58>
  18:	52800101 	mov	w1, #0x8                   	// #8
  1c:	aa1303e0 	mov	x0, x19
  20:	94000000 	bl	0 <__rust_alloc_zeroed>
  24:	b4000120 	cbz	x0, 48 <_ZN5alloc7raw_vec19RawVec$LT$T$C$A$GT$11allocate_in17h9a85785e1097a8c4E+0x48>
  28:	d343fe61 	lsr	x1, x19, #3
  2c:	a8c14ffe 	ldp	x30, x19, [sp],#16
  30:	d65f03c0 	ret
  34:	b4000133 	cbz	x19, 58 <_ZN5alloc7raw_vec19RawVec$LT$T$C$A$GT$11allocate_in17h9a85785e1097a8c4E+0x58>
  38:	52800101 	mov	w1, #0x8                   	// #8
  3c:	aa1303e0 	mov	x0, x19
  40:	94000000 	bl	0 <__rust_alloc>
  44:	b5ffff20 	cbnz	x0, 28 <_ZN5alloc7raw_vec19RawVec$LT$T$C$A$GT$11allocate_in17h9a85785e1097a8c4E+0x28>
  48:	52800101 	mov	w1, #0x8                   	// #8
  4c:	aa1303e0 	mov	x0, x19
  50:	94000000 	bl	0 <_ZN5alloc5alloc18handle_alloc_error17hdcf25d948d4c5cd4E>
  54:	d4200020 	brk	#0x1
  58:	52800100 	mov	w0, #0x8                   	// #8
  5c:	d343fe61 	lsr	x1, x19, #3
  60:	a8c14ffe 	ldp	x30, x19, [sp],#16
  64:	d65f03c0 	ret
  68:	94000000 	bl	0 <_ZN5alloc7raw_vec17capacity_overflow17h1b08dc05f9b56ce9E>
  6c:	d4200020 	brk	#0x1

Disassembly of section .text._ZN5alloc7raw_vec19RawVec$LT$T$C$A$GT$3ptr17h1dcd5e230393c046E:

0000000000000000 <_ZN5alloc7raw_vec19RawVec$LT$T$C$A$GT$3ptr17h1dcd5e230393c046E>:
   0:	f9400000 	ldr	x0, [x0]
   4:	d65f03c0 	ret

Disassembly of section .text._ZN5alloc7raw_vec19RawVec$LT$T$C$A$GT$3ptr17h2031215d7d4114e7E:

0000000000000000 <_ZN5alloc7raw_vec19RawVec$LT$T$C$A$GT$3ptr17h2031215d7d4114e7E>:
   0:	f9400000 	ldr	x0, [x0]
   4:	d65f03c0 	ret

Disassembly of section .text._ZN5alloc7raw_vec19RawVec$LT$T$C$A$GT$7reserve17h18bf52dc05053be9E:

0000000000000000 <_ZN5alloc7raw_vec19RawVec$LT$T$C$A$GT$7reserve17h18bf52dc05053be9E>:
   0:	f81e0ffe 	str	x30, [sp,#-32]!
   4:	a9014ff4 	stp	x20, x19, [sp,#16]
   8:	f9400408 	ldr	x8, [x0,#8]
   c:	cb010109 	sub	x9, x8, x1
  10:	eb02013f 	cmp	x9, x2
  14:	540003a2 	b.cs	88 <_ZN5alloc7raw_vec19RawVec$LT$T$C$A$GT$7reserve17h18bf52dc05053be9E+0x88>
  18:	ab020029 	adds	x9, x1, x2
  1c:	540003c2 	b.cs	94 <_ZN5alloc7raw_vec19RawVec$LT$T$C$A$GT$7reserve17h18bf52dc05053be9E+0x94>
  20:	d37ff90a 	lsl	x10, x8, #1
  24:	f940000c 	ldr	x12, [x0]
  28:	eb09015f 	cmp	x10, x9
  2c:	9a898149 	csel	x9, x10, x9, hi
  30:	5280010b 	mov	w11, #0x8                   	// #8
  34:	f100213f 	cmp	x9, #0x8
  38:	9a8b8134 	csel	x20, x9, x11, hi
  3c:	f100011f 	cmp	x8, #0x0
  40:	aa0003f3 	mov	x19, x0
  44:	9a8c03e0 	csel	x0, xzr, x12, eq
  48:	b4000160 	cbz	x0, 74 <_ZN5alloc7raw_vec19RawVec$LT$T$C$A$GT$7reserve17h18bf52dc05053be9E+0x74>
  4c:	b4000148 	cbz	x8, 74 <_ZN5alloc7raw_vec19RawVec$LT$T$C$A$GT$7reserve17h18bf52dc05053be9E+0x74>
  50:	52800022 	mov	w2, #0x1                   	// #1
  54:	aa0803e1 	mov	x1, x8
  58:	aa1403e3 	mov	x3, x20
  5c:	94000000 	bl	0 <__rust_realloc>
  60:	b5000120 	cbnz	x0, 84 <_ZN5alloc7raw_vec19RawVec$LT$T$C$A$GT$7reserve17h18bf52dc05053be9E+0x84>
  64:	52800021 	mov	w1, #0x1                   	// #1
  68:	aa1403e0 	mov	x0, x20
  6c:	94000000 	bl	0 <_ZN5alloc5alloc18handle_alloc_error17hdcf25d948d4c5cd4E>
  70:	d4200020 	brk	#0x1
  74:	52800021 	mov	w1, #0x1                   	// #1
  78:	aa1403e0 	mov	x0, x20
  7c:	94000000 	bl	0 <__rust_alloc>
  80:	b4ffff20 	cbz	x0, 64 <_ZN5alloc7raw_vec19RawVec$LT$T$C$A$GT$7reserve17h18bf52dc05053be9E+0x64>
  84:	a9005260 	stp	x0, x20, [x19]
  88:	a9414ff4 	ldp	x20, x19, [sp,#16]
  8c:	f84207fe 	ldr	x30, [sp],#32
  90:	d65f03c0 	ret
  94:	94000000 	bl	0 <_ZN5alloc7raw_vec17capacity_overflow17h1b08dc05f9b56ce9E>
  98:	d4200020 	brk	#0x1

Disassembly of section .text._ZN5alloc7raw_vec19RawVec$LT$T$C$A$GT$7reserve17h1c5921733340d264E:

0000000000000000 <_ZN5alloc7raw_vec19RawVec$LT$T$C$A$GT$7reserve17h1c5921733340d264E>:
   0:	f81d0ffe 	str	x30, [sp,#-48]!
   4:	a90157f6 	stp	x22, x21, [sp,#16]
   8:	a9024ff4 	stp	x20, x19, [sp,#32]
   c:	f9400408 	ldr	x8, [x0,#8]
  10:	cb010109 	sub	x9, x8, x1
  14:	eb02013f 	cmp	x9, x2
  18:	54000502 	b.cs	b8 <_ZN5alloc7raw_vec19RawVec$LT$T$C$A$GT$7reserve17h1c5921733340d264E+0xb8>
  1c:	ab020029 	adds	x9, x1, x2
  20:	54000542 	b.cs	c8 <_ZN5alloc7raw_vec19RawVec$LT$T$C$A$GT$7reserve17h1c5921733340d264E+0xc8>
  24:	d37ff90a 	lsl	x10, x8, #1
  28:	eb09015f 	cmp	x10, x9
  2c:	9a898149 	csel	x9, x10, x9, hi
  30:	5280008b 	mov	w11, #0x4                   	// #4
  34:	f100113f 	cmp	x9, #0x4
  38:	9a8b8129 	csel	x9, x9, x11, hi
  3c:	5280010c 	mov	w12, #0x8                   	// #8
  40:	eb49f7ff 	negs	xzr, x9, lsr #61
  44:	d37df136 	lsl	x22, x9, #3
  48:	9a8c13f4 	csel	x20, xzr, x12, ne
  4c:	9a9613f5 	csel	x21, xzr, x22, ne
  50:	540003c1 	b.ne	c8 <_ZN5alloc7raw_vec19RawVec$LT$T$C$A$GT$7reserve17h1c5921733340d264E+0xc8>
  54:	f9400009 	ldr	x9, [x0]
  58:	f100011f 	cmp	x8, #0x0
  5c:	aa0003f3 	mov	x19, x0
  60:	9a8903e0 	csel	x0, xzr, x9, eq
  64:	b4000100 	cbz	x0, 84 <_ZN5alloc7raw_vec19RawVec$LT$T$C$A$GT$7reserve17h1c5921733340d264E+0x84>
  68:	d37df101 	lsl	x1, x8, #3
  6c:	b40000c1 	cbz	x1, 84 <_ZN5alloc7raw_vec19RawVec$LT$T$C$A$GT$7reserve17h1c5921733340d264E+0x84>
  70:	aa1403e2 	mov	x2, x20
  74:	aa1503e3 	mov	x3, x21
  78:	94000000 	bl	0 <__rust_realloc>
  7c:	b50001a0 	cbnz	x0, b0 <_ZN5alloc7raw_vec19RawVec$LT$T$C$A$GT$7reserve17h1c5921733340d264E+0xb0>
  80:	14000006 	b	98 <_ZN5alloc7raw_vec19RawVec$LT$T$C$A$GT$7reserve17h1c5921733340d264E+0x98>
  84:	b4000135 	cbz	x21, a8 <_ZN5alloc7raw_vec19RawVec$LT$T$C$A$GT$7reserve17h1c5921733340d264E+0xa8>
  88:	aa1503e0 	mov	x0, x21
  8c:	aa1403e1 	mov	x1, x20
  90:	94000000 	bl	0 <__rust_alloc>
  94:	b50000e0 	cbnz	x0, b0 <_ZN5alloc7raw_vec19RawVec$LT$T$C$A$GT$7reserve17h1c5921733340d264E+0xb0>
  98:	aa1503e0 	mov	x0, x21
  9c:	aa1403e1 	mov	x1, x20
  a0:	94000000 	bl	0 <_ZN5alloc5alloc18handle_alloc_error17hdcf25d948d4c5cd4E>
  a4:	d4200020 	brk	#0x1
  a8:	aa1f03f6 	mov	x22, xzr
  ac:	aa1403e0 	mov	x0, x20
  b0:	d343fec8 	lsr	x8, x22, #3
  b4:	a9002260 	stp	x0, x8, [x19]
  b8:	a9424ff4 	ldp	x20, x19, [sp,#32]
  bc:	a94157f6 	ldp	x22, x21, [sp,#16]
  c0:	f84307fe 	ldr	x30, [sp],#48
  c4:	d65f03c0 	ret
  c8:	94000000 	bl	0 <_ZN5alloc7raw_vec17capacity_overflow17h1b08dc05f9b56ce9E>
  cc:	d4200020 	brk	#0x1

Disassembly of section .text._ZN5alloc7raw_vec19RawVec$LT$T$C$A$GT$7reserve17h3bfc5d68dc557444E:

0000000000000000 <_ZN5alloc7raw_vec19RawVec$LT$T$C$A$GT$7reserve17h3bfc5d68dc557444E>:
   0:	f81d0ffe 	str	x30, [sp,#-48]!
   4:	a90157f6 	stp	x22, x21, [sp,#16]
   8:	a9024ff4 	stp	x20, x19, [sp,#32]
   c:	f9400408 	ldr	x8, [x0,#8]
  10:	cb010109 	sub	x9, x8, x1
  14:	eb02013f 	cmp	x9, x2
  18:	540005e2 	b.cs	d4 <_ZN5alloc7raw_vec19RawVec$LT$T$C$A$GT$7reserve17h3bfc5d68dc557444E+0xd4>
  1c:	ab02002a 	adds	x10, x1, x2
  20:	54000622 	b.cs	e4 <_ZN5alloc7raw_vec19RawVec$LT$T$C$A$GT$7reserve17h3bfc5d68dc557444E+0xe4>
  24:	d37ff909 	lsl	x9, x8, #1
  28:	eb0a013f 	cmp	x9, x10
  2c:	9a8a812a 	csel	x10, x9, x10, hi
  30:	5280008b 	mov	w11, #0x4                   	// #4
  34:	f100115f 	cmp	x10, #0x4
  38:	5280030c 	mov	w12, #0x18                  	// #24
  3c:	9a8b814a 	csel	x10, x10, x11, hi
  40:	9bcc7d4b 	umulh	x11, x10, x12
  44:	8b0a054a 	add	x10, x10, x10, lsl #1
  48:	5280010d 	mov	w13, #0x8                   	// #8
  4c:	eb0b03ff 	negs	xzr, x11
  50:	d37df156 	lsl	x22, x10, #3
  54:	9a8d13f4 	csel	x20, xzr, x13, ne
  58:	9a9613f5 	csel	x21, xzr, x22, ne
  5c:	54000441 	b.ne	e4 <_ZN5alloc7raw_vec19RawVec$LT$T$C$A$GT$7reserve17h3bfc5d68dc557444E+0xe4>
  60:	f940000a 	ldr	x10, [x0]
  64:	f100011f 	cmp	x8, #0x0
  68:	aa0003f3 	mov	x19, x0
  6c:	9a8a03e0 	csel	x0, xzr, x10, eq
  70:	b4000120 	cbz	x0, 94 <_ZN5alloc7raw_vec19RawVec$LT$T$C$A$GT$7reserve17h3bfc5d68dc557444E+0x94>
  74:	8b080128 	add	x8, x9, x8
  78:	d37df101 	lsl	x1, x8, #3
  7c:	b40000c1 	cbz	x1, 94 <_ZN5alloc7raw_vec19RawVec$LT$T$C$A$GT$7reserve17h3bfc5d68dc557444E+0x94>
  80:	aa1403e2 	mov	x2, x20
  84:	aa1503e3 	mov	x3, x21
  88:	94000000 	bl	0 <__rust_realloc>
  8c:	b50001a0 	cbnz	x0, c0 <_ZN5alloc7raw_vec19RawVec$LT$T$C$A$GT$7reserve17h3bfc5d68dc557444E+0xc0>
  90:	14000006 	b	a8 <_ZN5alloc7raw_vec19RawVec$LT$T$C$A$GT$7reserve17h3bfc5d68dc557444E+0xa8>
  94:	b4000135 	cbz	x21, b8 <_ZN5alloc7raw_vec19RawVec$LT$T$C$A$GT$7reserve17h3bfc5d68dc557444E+0xb8>
  98:	aa1503e0 	mov	x0, x21
  9c:	aa1403e1 	mov	x1, x20
  a0:	94000000 	bl	0 <__rust_alloc>
  a4:	b50000e0 	cbnz	x0, c0 <_ZN5alloc7raw_vec19RawVec$LT$T$C$A$GT$7reserve17h3bfc5d68dc557444E+0xc0>
  a8:	aa1503e0 	mov	x0, x21
  ac:	aa1403e1 	mov	x1, x20
  b0:	94000000 	bl	0 <_ZN5alloc5alloc18handle_alloc_error17hdcf25d948d4c5cd4E>
  b4:	d4200020 	brk	#0x1
  b8:	aa1f03f6 	mov	x22, xzr
  bc:	aa1403e0 	mov	x0, x20
  c0:	b201f3e8 	mov	x8, #0xaaaaaaaaaaaaaaaa    	// #-6148914691236517206
  c4:	f2955568 	movk	x8, #0xaaab
  c8:	9bc87ec8 	umulh	x8, x22, x8
  cc:	d344fd08 	lsr	x8, x8, #4
  d0:	a9002260 	stp	x0, x8, [x19]
  d4:	a9424ff4 	ldp	x20, x19, [sp,#32]
  d8:	a94157f6 	ldp	x22, x21, [sp,#16]
  dc:	f84307fe 	ldr	x30, [sp],#48
  e0:	d65f03c0 	ret
  e4:	94000000 	bl	0 <_ZN5alloc7raw_vec17capacity_overflow17h1b08dc05f9b56ce9E>
  e8:	d4200020 	brk	#0x1

Disassembly of section .text._ZN77_$LT$alloc..raw_vec..RawVec$LT$T$C$A$GT$$u20$as$u20$core..ops..drop..Drop$GT$4drop17h0ff4d8897bde674fE:

0000000000000000 <_ZN77_$LT$alloc..raw_vec..RawVec$LT$T$C$A$GT$$u20$as$u20$core..ops..drop..Drop$GT$4drop17h0ff4d8897bde674fE>:
   0:	f9400408 	ldr	x8, [x0,#8]
   4:	b40000e8 	cbz	x8, 20 <_ZN77_$LT$alloc..raw_vec..RawVec$LT$T$C$A$GT$$u20$as$u20$core..ops..drop..Drop$GT$4drop17h0ff4d8897bde674fE+0x20>
   8:	8b080508 	add	x8, x8, x8, lsl #1
   c:	d37df101 	lsl	x1, x8, #3
  10:	b4000081 	cbz	x1, 20 <_ZN77_$LT$alloc..raw_vec..RawVec$LT$T$C$A$GT$$u20$as$u20$core..ops..drop..Drop$GT$4drop17h0ff4d8897bde674fE+0x20>
  14:	f9400000 	ldr	x0, [x0]
  18:	52800102 	mov	w2, #0x8                   	// #8
  1c:	14000000 	b	0 <__rust_dealloc>
  20:	d65f03c0 	ret

Disassembly of section .text._ZN77_$LT$alloc..raw_vec..RawVec$LT$T$C$A$GT$$u20$as$u20$core..ops..drop..Drop$GT$4drop17hc059c579c6773848E:

0000000000000000 <_ZN77_$LT$alloc..raw_vec..RawVec$LT$T$C$A$GT$$u20$as$u20$core..ops..drop..Drop$GT$4drop17hc059c579c6773848E>:
   0:	f9400408 	ldr	x8, [x0,#8]
   4:	b40000c8 	cbz	x8, 1c <_ZN77_$LT$alloc..raw_vec..RawVec$LT$T$C$A$GT$$u20$as$u20$core..ops..drop..Drop$GT$4drop17hc059c579c6773848E+0x1c>
   8:	d37df101 	lsl	x1, x8, #3
   c:	b4000081 	cbz	x1, 1c <_ZN77_$LT$alloc..raw_vec..RawVec$LT$T$C$A$GT$$u20$as$u20$core..ops..drop..Drop$GT$4drop17hc059c579c6773848E+0x1c>
  10:	f9400000 	ldr	x0, [x0]
  14:	52800102 	mov	w2, #0x8                   	// #8
  18:	14000000 	b	0 <__rust_dealloc>
  1c:	d65f03c0 	ret

Disassembly of section .text._ZN77_$LT$alloc..raw_vec..RawVec$LT$T$C$A$GT$$u20$as$u20$core..ops..drop..Drop$GT$4drop17hc8c6a12854156294E:

0000000000000000 <_ZN77_$LT$alloc..raw_vec..RawVec$LT$T$C$A$GT$$u20$as$u20$core..ops..drop..Drop$GT$4drop17hc8c6a12854156294E>:
   0:	f9400401 	ldr	x1, [x0,#8]
   4:	b4000081 	cbz	x1, 14 <_ZN77_$LT$alloc..raw_vec..RawVec$LT$T$C$A$GT$$u20$as$u20$core..ops..drop..Drop$GT$4drop17hc8c6a12854156294E+0x14>
   8:	f9400000 	ldr	x0, [x0]
   c:	52800022 	mov	w2, #0x1                   	// #1
  10:	14000000 	b	0 <__rust_dealloc>
  14:	d65f03c0 	ret

Disassembly of section .text._ZN77_$LT$alloc..raw_vec..RawVec$LT$T$C$A$GT$$u20$as$u20$core..ops..drop..Drop$GT$4drop17hd5ce08f3dbd32a69E:

0000000000000000 <_ZN77_$LT$alloc..raw_vec..RawVec$LT$T$C$A$GT$$u20$as$u20$core..ops..drop..Drop$GT$4drop17hd5ce08f3dbd32a69E>:
   0:	f9400408 	ldr	x8, [x0,#8]
   4:	b40000c8 	cbz	x8, 1c <_ZN77_$LT$alloc..raw_vec..RawVec$LT$T$C$A$GT$$u20$as$u20$core..ops..drop..Drop$GT$4drop17hd5ce08f3dbd32a69E+0x1c>
   8:	d37ced01 	lsl	x1, x8, #4
   c:	b4000081 	cbz	x1, 1c <_ZN77_$LT$alloc..raw_vec..RawVec$LT$T$C$A$GT$$u20$as$u20$core..ops..drop..Drop$GT$4drop17hd5ce08f3dbd32a69E+0x1c>
  10:	f9400000 	ldr	x0, [x0]
  14:	52800102 	mov	w2, #0x8                   	// #8
  18:	14000000 	b	0 <__rust_dealloc>
  1c:	d65f03c0 	ret

Disassembly of section .text._ZN77_$LT$alloc..raw_vec..RawVec$LT$T$C$A$GT$$u20$as$u20$core..ops..drop..Drop$GT$4drop17hd600109560dc50c8E:

0000000000000000 <_ZN77_$LT$alloc..raw_vec..RawVec$LT$T$C$A$GT$$u20$as$u20$core..ops..drop..Drop$GT$4drop17hd600109560dc50c8E>:
   0:	f9400408 	ldr	x8, [x0,#8]
   4:	b40000c8 	cbz	x8, 1c <_ZN77_$LT$alloc..raw_vec..RawVec$LT$T$C$A$GT$$u20$as$u20$core..ops..drop..Drop$GT$4drop17hd600109560dc50c8E+0x1c>
   8:	d379e101 	lsl	x1, x8, #7
   c:	b4000081 	cbz	x1, 1c <_ZN77_$LT$alloc..raw_vec..RawVec$LT$T$C$A$GT$$u20$as$u20$core..ops..drop..Drop$GT$4drop17hd600109560dc50c8E+0x1c>
  10:	f9400000 	ldr	x0, [x0]
  14:	52801002 	mov	w2, #0x80                  	// #128
  18:	14000000 	b	0 <__rust_dealloc>
  1c:	d65f03c0 	ret

Disassembly of section .text._ZN77_$LT$alloc..raw_vec..RawVec$LT$T$C$A$GT$$u20$as$u20$core..ops..drop..Drop$GT$4drop17he199d2d7d21fe32eE:

0000000000000000 <_ZN77_$LT$alloc..raw_vec..RawVec$LT$T$C$A$GT$$u20$as$u20$core..ops..drop..Drop$GT$4drop17he199d2d7d21fe32eE>:
   0:	f9400408 	ldr	x8, [x0,#8]
   4:	b40000e8 	cbz	x8, 20 <_ZN77_$LT$alloc..raw_vec..RawVec$LT$T$C$A$GT$$u20$as$u20$core..ops..drop..Drop$GT$4drop17he199d2d7d21fe32eE+0x20>
   8:	8b080508 	add	x8, x8, x8, lsl #1
   c:	d37be901 	lsl	x1, x8, #5
  10:	b4000081 	cbz	x1, 20 <_ZN77_$LT$alloc..raw_vec..RawVec$LT$T$C$A$GT$$u20$as$u20$core..ops..drop..Drop$GT$4drop17he199d2d7d21fe32eE+0x20>
  14:	f9400000 	ldr	x0, [x0]
  18:	52800102 	mov	w2, #0x8                   	// #8
  1c:	14000000 	b	0 <__rust_dealloc>
  20:	d65f03c0 	ret

Disassembly of section .text._ZN4core3ptr13drop_in_place17h030b96afde751c89E.llvm.11575308234008418851:

0000000000000000 <_ZN4core3ptr13drop_in_place17h030b96afde751c89E.llvm.11575308234008418851>:
   0:	f81e0ffe 	str	x30, [sp,#-32]!
   4:	a9014ff4 	stp	x20, x19, [sp,#16]
   8:	aa0003f3 	mov	x19, x0
   c:	94000000 	bl	0 <_ZN78_$LT$std..sys_common..mutex..MovableMutex$u20$as$u20$core..ops..drop..Drop$GT$4drop17hef6108bc2c18fda9E>
  10:	f8410660 	ldr	x0, [x19],#16
  14:	52800501 	mov	w1, #0x28                  	// #40
  18:	52800082 	mov	w2, #0x4                   	// #4
  1c:	94000000 	bl	0 <__rust_dealloc>
  20:	aa1303e0 	mov	x0, x19
  24:	94000000 	bl	0 <_ZN69_$LT$std..sync..condvar..Condvar$u20$as$u20$core..ops..drop..Drop$GT$4drop17hb45a2c18b6822ad4E>
  28:	f9400260 	ldr	x0, [x19]
  2c:	a9414ff4 	ldp	x20, x19, [sp,#16]
  30:	52800601 	mov	w1, #0x30                  	// #48
  34:	52800082 	mov	w2, #0x4                   	// #4
  38:	f84207fe 	ldr	x30, [sp],#32
  3c:	14000000 	b	0 <__rust_dealloc>
  40:	aa0003f4 	mov	x20, x0
  44:	aa1303e0 	mov	x0, x19
  48:	94000000 	bl	0 <_ZN4core3ptr13drop_in_place17h030b96afde751c89E.llvm.11575308234008418851>
  4c:	14000006 	b	64 <_ZN4core3ptr13drop_in_place17h030b96afde751c89E.llvm.11575308234008418851+0x64>
  50:	aa0003f4 	mov	x20, x0
  54:	aa1303e0 	mov	x0, x19
  58:	94000000 	bl	0 <_ZN4core3ptr13drop_in_place17h030b96afde751c89E.llvm.11575308234008418851>
  5c:	91004260 	add	x0, x19, #0x10
  60:	94000000 	bl	0 <_ZN4core3ptr13drop_in_place17h030b96afde751c89E.llvm.11575308234008418851>
  64:	aa1403e0 	mov	x0, x20
  68:	94000000 	bl	0 <_Unwind_Resume>
  6c:	d4200020 	brk	#0x1

Disassembly of section .text._ZN4core3ptr13drop_in_place17h0ec2bb98f215ffddE.llvm.11575308234008418851:

0000000000000000 <_ZN4core3ptr13drop_in_place17h0ec2bb98f215ffddE.llvm.11575308234008418851>:
   0:	f9400000 	ldr	x0, [x0]
   4:	52800501 	mov	w1, #0x28                  	// #40
   8:	52800082 	mov	w2, #0x4                   	// #4
   c:	14000000 	b	0 <__rust_dealloc>

Disassembly of section .text._ZN4core3ptr13drop_in_place17h1b2246f2f2b16f38E.llvm.11575308234008418851:

0000000000000000 <_ZN4core3ptr13drop_in_place17h1b2246f2f2b16f38E.llvm.11575308234008418851>:
   0:	f9400008 	ldr	x8, [x0]
   4:	c85f7d09 	ldxr	x9, [x8]
   8:	f1000529 	subs	x9, x9, #0x1
   c:	c80afd09 	stlxr	w10, x9, [x8]
  10:	35ffffaa 	cbnz	w10, 4 <_ZN4core3ptr13drop_in_place17h1b2246f2f2b16f38E.llvm.11575308234008418851+0x4>
  14:	54000061 	b.ne	20 <_ZN4core3ptr13drop_in_place17h1b2246f2f2b16f38E.llvm.11575308234008418851+0x20>
  18:	d50339bf 	dmb	ishld
  1c:	14000000 	b	0 <_ZN5alloc4sync12Arc$LT$T$GT$9drop_slow17hd09d432ae7089d0fE>
  20:	d65f03c0 	ret

Disassembly of section .text._ZN4core3ptr13drop_in_place17h2aeede255accb106E.llvm.11575308234008418851:

0000000000000000 <_ZN4core3ptr13drop_in_place17h2aeede255accb106E.llvm.11575308234008418851>:
   0:	f9400401 	ldr	x1, [x0,#8]
   4:	b4000081 	cbz	x1, 14 <_ZN4core3ptr13drop_in_place17h2aeede255accb106E.llvm.11575308234008418851+0x14>
   8:	f9400000 	ldr	x0, [x0]
   c:	52800022 	mov	w2, #0x1                   	// #1
  10:	14000000 	b	0 <__rust_dealloc>
  14:	d65f03c0 	ret

Disassembly of section .text._ZN4core3ptr13drop_in_place17h436c9087835c9299E.llvm.11575308234008418851:

0000000000000000 <_ZN4core3ptr13drop_in_place17h436c9087835c9299E.llvm.11575308234008418851>:
   0:	f9000001 	str	x1, [x0]
   4:	d65f03c0 	ret

Disassembly of section .text._ZN4core3ptr13drop_in_place17h52626138cea8f2b9E.llvm.11575308234008418851:

0000000000000000 <_ZN4core3ptr13drop_in_place17h52626138cea8f2b9E.llvm.11575308234008418851>:
   0:	f81d0ffe 	str	x30, [sp,#-48]!
   4:	a90157f6 	stp	x22, x21, [sp,#16]
   8:	a9024ff4 	stp	x20, x19, [sp,#32]
   c:	f9400814 	ldr	x20, [x0,#16]
  10:	d37afe88 	lsr	x8, x20, #58
  14:	b5000208 	cbnz	x8, 54 <_ZN4core3ptr13drop_in_place17h52626138cea8f2b9E.llvm.11575308234008418851+0x54>
  18:	a9402016 	ldp	x22, x8, [x0]
  1c:	aa0003f3 	mov	x19, x0
  20:	92400915 	and	x21, x8, #0x7
  24:	f9000415 	str	x21, [x0,#8]
  28:	b40000b4 	cbz	x20, 3c <_ZN4core3ptr13drop_in_place17h52626138cea8f2b9E.llvm.11575308234008418851+0x3c>
  2c:	927df2c0 	and	x0, x22, #0xfffffffffffffff8
  30:	d37df281 	lsl	x1, x20, #3
  34:	52800102 	mov	w2, #0x8                   	// #8
  38:	94000000 	bl	0 <__rust_dealloc>
  3c:	a9005676 	stp	x22, x21, [x19]
  40:	f9000a74 	str	x20, [x19,#16]
  44:	a9424ff4 	ldp	x20, x19, [sp,#32]
  48:	a94157f6 	ldp	x22, x21, [sp,#16]
  4c:	f84307fe 	ldr	x30, [sp],#48
  50:	d65f03c0 	ret
  54:	90000000 	adrp	x0, 0 <_ZN4core3ptr13drop_in_place17h52626138cea8f2b9E.llvm.11575308234008418851>
  58:	90000002 	adrp	x2, 0 <_ZN4core3ptr13drop_in_place17h52626138cea8f2b9E.llvm.11575308234008418851>
  5c:	91000000 	add	x0, x0, #0x0
  60:	91000042 	add	x2, x2, #0x0
  64:	52800301 	mov	w1, #0x18                  	// #24
  68:	94000000 	bl	0 <_ZN4core6option13expect_failed17hc91abc95c5a246ebE>
  6c:	d4200020 	brk	#0x1

Disassembly of section .text._ZN4core3ptr13drop_in_place17h6e96c469d1ed0ef4E.llvm.11575308234008418851:

0000000000000000 <_ZN4core3ptr13drop_in_place17h6e96c469d1ed0ef4E.llvm.11575308234008418851>:
   0:	f81e0ffe 	str	x30, [sp,#-32]!
   4:	a9014ff4 	stp	x20, x19, [sp,#16]
   8:	aa0003f3 	mov	x19, x0
   c:	94000000 	bl	0 <_ZN78_$LT$std..sys_common..mutex..MovableMutex$u20$as$u20$core..ops..drop..Drop$GT$4drop17hef6108bc2c18fda9E>
  10:	aa1303f4 	mov	x20, x19
  14:	f8410680 	ldr	x0, [x20],#16
  18:	52800501 	mov	w1, #0x28                  	// #40
  1c:	52800082 	mov	w2, #0x4                   	// #4
  20:	94000000 	bl	0 <__rust_dealloc>
  24:	aa1403e0 	mov	x0, x20
  28:	94000000 	bl	0 <_ZN69_$LT$std..sync..condvar..Condvar$u20$as$u20$core..ops..drop..Drop$GT$4drop17hb45a2c18b6822ad4E>
  2c:	f9400a60 	ldr	x0, [x19,#16]
  30:	52800601 	mov	w1, #0x30                  	// #48
  34:	52800082 	mov	w2, #0x4                   	// #4
  38:	94000000 	bl	0 <__rust_dealloc>
  3c:	91008274 	add	x20, x19, #0x20
  40:	aa1403e0 	mov	x0, x20
  44:	94000000 	bl	0 <_ZN78_$LT$std..sys_common..mutex..MovableMutex$u20$as$u20$core..ops..drop..Drop$GT$4drop17hef6108bc2c18fda9E>
  48:	f9401260 	ldr	x0, [x19,#32]
  4c:	52800501 	mov	w1, #0x28                  	// #40
  50:	52800082 	mov	w2, #0x4                   	// #4
  54:	94000000 	bl	0 <__rust_dealloc>
  58:	9100c274 	add	x20, x19, #0x30
  5c:	aa1403e0 	mov	x0, x20
  60:	94000000 	bl	0 <_ZN69_$LT$std..sync..condvar..Condvar$u20$as$u20$core..ops..drop..Drop$GT$4drop17hb45a2c18b6822ad4E>
  64:	f9401a60 	ldr	x0, [x19,#48]
  68:	52800601 	mov	w1, #0x30                  	// #48
  6c:	52800082 	mov	w2, #0x4                   	// #4
  70:	94000000 	bl	0 <__rust_dealloc>
  74:	f8450e68 	ldr	x8, [x19,#80]!
  78:	c85f7d09 	ldxr	x9, [x8]
  7c:	f1000529 	subs	x9, x9, #0x1
  80:	c80afd09 	stlxr	w10, x9, [x8]
  84:	35ffffaa 	cbnz	w10, 78 <_ZN4core3ptr13drop_in_place17h6e96c469d1ed0ef4E.llvm.11575308234008418851+0x78>
  88:	540000c1 	b.ne	a0 <_ZN4core3ptr13drop_in_place17h6e96c469d1ed0ef4E.llvm.11575308234008418851+0xa0>
  8c:	d50339bf 	dmb	ishld
  90:	aa1303e0 	mov	x0, x19
  94:	a9414ff4 	ldp	x20, x19, [sp,#16]
  98:	f84207fe 	ldr	x30, [sp],#32
  9c:	14000000 	b	0 <_ZN5alloc4sync12Arc$LT$T$GT$9drop_slow17hd09d432ae7089d0fE>
  a0:	a9414ff4 	ldp	x20, x19, [sp,#16]
  a4:	f84207fe 	ldr	x30, [sp],#32
  a8:	d65f03c0 	ret
  ac:	aa1403e8 	mov	x8, x20
  b0:	aa0003f4 	mov	x20, x0
  b4:	aa0803e0 	mov	x0, x8
  b8:	94000000 	bl	0 <_ZN4core3ptr13drop_in_place17h6e96c469d1ed0ef4E.llvm.11575308234008418851>
  bc:	14000016 	b	114 <_ZN4core3ptr13drop_in_place17h6e96c469d1ed0ef4E.llvm.11575308234008418851+0x114>
  c0:	aa1403e8 	mov	x8, x20
  c4:	aa0003f4 	mov	x20, x0
  c8:	aa0803e0 	mov	x0, x8
  cc:	94000000 	bl	0 <_ZN4core3ptr13drop_in_place17h6e96c469d1ed0ef4E.llvm.11575308234008418851>
  d0:	9100c260 	add	x0, x19, #0x30
  d4:	94000000 	bl	0 <_ZN4core3ptr13drop_in_place17h6e96c469d1ed0ef4E.llvm.11575308234008418851>
  d8:	1400000f 	b	114 <_ZN4core3ptr13drop_in_place17h6e96c469d1ed0ef4E.llvm.11575308234008418851+0x114>
  dc:	aa0003f4 	mov	x20, x0
  e0:	1400000d 	b	114 <_ZN4core3ptr13drop_in_place17h6e96c469d1ed0ef4E.llvm.11575308234008418851+0x114>
  e4:	aa1403e8 	mov	x8, x20
  e8:	aa0003f4 	mov	x20, x0
  ec:	aa0803e0 	mov	x0, x8
  f0:	94000000 	bl	0 <_ZN4core3ptr13drop_in_place17h6e96c469d1ed0ef4E.llvm.11575308234008418851>
  f4:	14000006 	b	10c <_ZN4core3ptr13drop_in_place17h6e96c469d1ed0ef4E.llvm.11575308234008418851+0x10c>
  f8:	aa0003f4 	mov	x20, x0
  fc:	aa1303e0 	mov	x0, x19
 100:	94000000 	bl	0 <_ZN4core3ptr13drop_in_place17h6e96c469d1ed0ef4E.llvm.11575308234008418851>
 104:	91004260 	add	x0, x19, #0x10
 108:	94000000 	bl	0 <_ZN4core3ptr13drop_in_place17h6e96c469d1ed0ef4E.llvm.11575308234008418851>
 10c:	91008260 	add	x0, x19, #0x20
 110:	94000000 	bl	0 <_ZN4core3ptr13drop_in_place17h6e96c469d1ed0ef4E.llvm.11575308234008418851>
 114:	91014260 	add	x0, x19, #0x50
 118:	94000000 	bl	0 <_ZN4core3ptr13drop_in_place17h6e96c469d1ed0ef4E.llvm.11575308234008418851>
 11c:	aa1403e0 	mov	x0, x20
 120:	94000000 	bl	0 <_Unwind_Resume>
 124:	d4200020 	brk	#0x1
 128:	aa0003f4 	mov	x20, x0
 12c:	17fffff8 	b	10c <_ZN4core3ptr13drop_in_place17h6e96c469d1ed0ef4E.llvm.11575308234008418851+0x10c>

Disassembly of section .text._ZN4core3ptr13drop_in_place17h70bfbfe1fce20c61E.llvm.11575308234008418851:

0000000000000000 <_ZN4core3ptr13drop_in_place17h70bfbfe1fce20c61E.llvm.11575308234008418851>:
   0:	f9400408 	ldr	x8, [x0,#8]
   4:	b40000e8 	cbz	x8, 20 <_ZN4core3ptr13drop_in_place17h70bfbfe1fce20c61E.llvm.11575308234008418851+0x20>
   8:	8b080508 	add	x8, x8, x8, lsl #1
   c:	d37df101 	lsl	x1, x8, #3
  10:	b4000081 	cbz	x1, 20 <_ZN4core3ptr13drop_in_place17h70bfbfe1fce20c61E.llvm.11575308234008418851+0x20>
  14:	f9400000 	ldr	x0, [x0]
  18:	52800102 	mov	w2, #0x8                   	// #8
  1c:	14000000 	b	0 <__rust_dealloc>
  20:	d65f03c0 	ret

Disassembly of section .text._ZN4core3ptr13drop_in_place17h8a9e8093751d4245E:

0000000000000000 <_ZN4core3ptr13drop_in_place17h8a9e8093751d4245E>:
   0:	d10143ff 	sub	sp, sp, #0x50
   4:	a90357fe 	stp	x30, x21, [sp,#48]
   8:	a9044ff4 	stp	x20, x19, [sp,#64]
   c:	f9400015 	ldr	x21, [x0]
  10:	aa0003f3 	mov	x19, x0
  14:	a94126a8 	ldp	x8, x9, [x21,#16]
  18:	eb09011f 	cmp	x8, x9
  1c:	54000320 	b.eq	80 <_ZN4core3ptr13drop_in_place17h8a9e8093751d4245E+0x80>
  20:	910043e9 	add	x9, sp, #0x10
  24:	91004134 	add	x20, x9, #0x10
  28:	14000004 	b	38 <_ZN4core3ptr13drop_in_place17h8a9e8093751d4245E+0x38>
  2c:	a94126a8 	ldp	x8, x9, [x21,#16]
  30:	eb09011f 	cmp	x8, x9
  34:	54000260 	b.eq	80 <_ZN4core3ptr13drop_in_place17h8a9e8093751d4245E+0x80>
  38:	91006109 	add	x9, x8, #0x18
  3c:	f9000aa9 	str	x9, [x21,#16]
  40:	3dc00100 	ldr	q0, [x8]
  44:	3d8003e0 	str	q0, [sp]
  48:	f9400908 	ldr	x8, [x8,#16]
  4c:	b40001c8 	cbz	x8, 84 <_ZN4core3ptr13drop_in_place17h8a9e8093751d4245E+0x84>
  50:	3dc003e0 	ldr	q0, [sp]
  54:	f90013e8 	str	x8, [sp,#32]
  58:	3d8007e0 	str	q0, [sp,#16]
  5c:	c85f7d09 	ldxr	x9, [x8]
  60:	f1000529 	subs	x9, x9, #0x1
  64:	c80afd09 	stlxr	w10, x9, [x8]
  68:	35ffffaa 	cbnz	w10, 5c <_ZN4core3ptr13drop_in_place17h8a9e8093751d4245E+0x5c>
  6c:	54fffe01 	b.ne	2c <_ZN4core3ptr13drop_in_place17h8a9e8093751d4245E+0x2c>
  70:	d50339bf 	dmb	ishld
  74:	aa1403e0 	mov	x0, x20
  78:	94000000 	bl	0 <_ZN5alloc4sync12Arc$LT$T$GT$9drop_slow17h9697f7fa84dc4c9bE>
  7c:	17ffffec 	b	2c <_ZN4core3ptr13drop_in_place17h8a9e8093751d4245E+0x2c>
  80:	a9007fff 	stp	xzr, xzr, [sp]
  84:	f9400269 	ldr	x9, [x19]
  88:	f9400528 	ldr	x8, [x9,#8]
  8c:	b4000228 	cbz	x8, d0 <_ZN4core3ptr13drop_in_place17h8a9e8093751d4245E+0xd0>
  90:	f9401134 	ldr	x20, [x9,#32]
  94:	f9400129 	ldr	x9, [x9]
  98:	f9400a95 	ldr	x21, [x20,#16]
  9c:	eb15013f 	cmp	x9, x21
  a0:	54000140 	b.eq	c8 <_ZN4core3ptr13drop_in_place17h8a9e8093751d4245E+0xc8>
  a4:	f940028a 	ldr	x10, [x20]
  a8:	5280030b 	mov	w11, #0x18                  	// #24
  ac:	8b080508 	add	x8, x8, x8, lsl #1
  b0:	d37df102 	lsl	x2, x8, #3
  b4:	9b0b2921 	madd	x1, x9, x11, x10
  b8:	9b0b2aa0 	madd	x0, x21, x11, x10
  bc:	94000000 	bl	0 <memmove>
  c0:	f9400268 	ldr	x8, [x19]
  c4:	f9400508 	ldr	x8, [x8,#8]
  c8:	8b150108 	add	x8, x8, x21
  cc:	f9000a88 	str	x8, [x20,#16]
  d0:	a9444ff4 	ldp	x20, x19, [sp,#64]
  d4:	a94357fe 	ldp	x30, x21, [sp,#48]
  d8:	910143ff 	add	sp, sp, #0x50
  dc:	d65f03c0 	ret

Disassembly of section .text._ZN4core3ptr13drop_in_place17h94cc678c6cdd953dE.llvm.11575308234008418851:

0000000000000000 <_ZN4core3ptr13drop_in_place17h94cc678c6cdd953dE.llvm.11575308234008418851>:
   0:	f9400000 	ldr	x0, [x0]
   4:	52800601 	mov	w1, #0x30                  	// #48
   8:	52800082 	mov	w2, #0x4                   	// #4
   c:	14000000 	b	0 <__rust_dealloc>

Disassembly of section .text._ZN4core3ptr13drop_in_place17hb85df9e23f32e689E.llvm.11575308234008418851:

0000000000000000 <_ZN4core3ptr13drop_in_place17hb85df9e23f32e689E.llvm.11575308234008418851>:
   0:	f81b0ffe 	str	x30, [sp,#-80]!
   4:	a90167fa 	stp	x26, x25, [sp,#16]
   8:	a9025ff8 	stp	x24, x23, [sp,#32]
   c:	a90357f6 	stp	x22, x21, [sp,#48]
  10:	a9044ff4 	stp	x20, x19, [sp,#64]
  14:	f9400808 	ldr	x8, [x0,#16]
  18:	aa0003f3 	mov	x19, x0
  1c:	b4000308 	cbz	x8, 7c <_ZN4core3ptr13drop_in_place17hb85df9e23f32e689E.llvm.11575308234008418851+0x7c>
  20:	f9400276 	ldr	x22, [x19]
  24:	8b080508 	add	x8, x8, x8, lsl #1
  28:	aa1f03f5 	mov	x21, xzr
  2c:	d37df114 	lsl	x20, x8, #3
  30:	14000006 	b	48 <_ZN4core3ptr13drop_in_place17hb85df9e23f32e689E.llvm.11575308234008418851+0x48>
  34:	f8356ada 	str	x26, [x22,x21]
  38:	910062b5 	add	x21, x21, #0x18
  3c:	eb15029f 	cmp	x20, x21
  40:	a900e2f9 	stp	x25, x24, [x23,#8]
  44:	540001c0 	b.eq	7c <_ZN4core3ptr13drop_in_place17hb85df9e23f32e689E.llvm.11575308234008418851+0x7c>
  48:	8b1502d7 	add	x23, x22, x21
  4c:	f9400af8 	ldr	x24, [x23,#16]
  50:	d37aff08 	lsr	x8, x24, #58
  54:	b50003a8 	cbnz	x8, c8 <_ZN4core3ptr13drop_in_place17hb85df9e23f32e689E.llvm.11575308234008418851+0xc8>
  58:	a94022fa 	ldp	x26, x8, [x23]
  5c:	92400919 	and	x25, x8, #0x7
  60:	f90006f9 	str	x25, [x23,#8]
  64:	b4fffe98 	cbz	x24, 34 <_ZN4core3ptr13drop_in_place17hb85df9e23f32e689E.llvm.11575308234008418851+0x34>
  68:	927df340 	and	x0, x26, #0xfffffffffffffff8
  6c:	d37df301 	lsl	x1, x24, #3
  70:	52800102 	mov	w2, #0x8                   	// #8
  74:	94000000 	bl	0 <__rust_dealloc>
  78:	17ffffef 	b	34 <_ZN4core3ptr13drop_in_place17hb85df9e23f32e689E.llvm.11575308234008418851+0x34>
  7c:	f9400668 	ldr	x8, [x19,#8]
  80:	b4000188 	cbz	x8, b0 <_ZN4core3ptr13drop_in_place17hb85df9e23f32e689E.llvm.11575308234008418851+0xb0>
  84:	8b080508 	add	x8, x8, x8, lsl #1
  88:	d37df101 	lsl	x1, x8, #3
  8c:	b4000121 	cbz	x1, b0 <_ZN4core3ptr13drop_in_place17hb85df9e23f32e689E.llvm.11575308234008418851+0xb0>
  90:	f9400260 	ldr	x0, [x19]
  94:	a9444ff4 	ldp	x20, x19, [sp,#64]
  98:	a94357f6 	ldp	x22, x21, [sp,#48]
  9c:	a9425ff8 	ldp	x24, x23, [sp,#32]
  a0:	a94167fa 	ldp	x26, x25, [sp,#16]
  a4:	52800102 	mov	w2, #0x8                   	// #8
  a8:	f84507fe 	ldr	x30, [sp],#80
  ac:	14000000 	b	0 <__rust_dealloc>
  b0:	a9444ff4 	ldp	x20, x19, [sp,#64]
  b4:	a94357f6 	ldp	x22, x21, [sp,#48]
  b8:	a9425ff8 	ldp	x24, x23, [sp,#32]
  bc:	a94167fa 	ldp	x26, x25, [sp,#16]
  c0:	f84507fe 	ldr	x30, [sp],#80
  c4:	d65f03c0 	ret
  c8:	cb150288 	sub	x8, x20, x21
  cc:	aa1403e9 	mov	x9, x20
  d0:	910062f4 	add	x20, x23, #0x18
  d4:	d1006116 	sub	x22, x8, #0x18
  d8:	d1006137 	sub	x23, x9, #0x18
  dc:	90000000 	adrp	x0, 0 <_ZN4core3ptr13drop_in_place17hb85df9e23f32e689E.llvm.11575308234008418851>
  e0:	90000002 	adrp	x2, 0 <_ZN4core3ptr13drop_in_place17hb85df9e23f32e689E.llvm.11575308234008418851>
  e4:	91000000 	add	x0, x0, #0x0
  e8:	91000042 	add	x2, x2, #0x0
  ec:	52800301 	mov	w1, #0x18                  	// #24
  f0:	94000000 	bl	0 <_ZN4core6option13expect_failed17hc91abc95c5a246ebE>
  f4:	d4200020 	brk	#0x1
  f8:	eb1502ff 	cmp	x23, x21
  fc:	aa0003f5 	mov	x21, x0
 100:	540000c0 	b.eq	118 <_ZN4core3ptr13drop_in_place17hb85df9e23f32e689E.llvm.11575308234008418851+0x118>
 104:	aa1403e0 	mov	x0, x20
 108:	94000000 	bl	0 <_ZN4core3ptr13drop_in_place17hb85df9e23f32e689E.llvm.11575308234008418851>
 10c:	f10062d6 	subs	x22, x22, #0x18
 110:	91006294 	add	x20, x20, #0x18
 114:	54ffff81 	b.ne	104 <_ZN4core3ptr13drop_in_place17hb85df9e23f32e689E.llvm.11575308234008418851+0x104>
 118:	aa1303e0 	mov	x0, x19
 11c:	94000000 	bl	0 <_ZN4core3ptr13drop_in_place17hb85df9e23f32e689E.llvm.11575308234008418851>
 120:	aa1503e0 	mov	x0, x21
 124:	94000000 	bl	0 <_Unwind_Resume>
 128:	d4200020 	brk	#0x1
 12c:	aa0003f5 	mov	x21, x0
 130:	17fffffa 	b	118 <_ZN4core3ptr13drop_in_place17hb85df9e23f32e689E.llvm.11575308234008418851+0x118>

Disassembly of section .text._ZN4core3ptr13drop_in_place17hdfd508fe917c343aE.llvm.11575308234008418851:

0000000000000000 <_ZN4core3ptr13drop_in_place17hdfd508fe917c343aE.llvm.11575308234008418851>:
   0:	f9400401 	ldr	x1, [x0,#8]
   4:	b4000081 	cbz	x1, 14 <_ZN4core3ptr13drop_in_place17hdfd508fe917c343aE.llvm.11575308234008418851+0x14>
   8:	f9400000 	ldr	x0, [x0]
   c:	52800022 	mov	w2, #0x1                   	// #1
  10:	14000000 	b	0 <__rust_dealloc>
  14:	d65f03c0 	ret

Disassembly of section .text._ZN4core3ptr13drop_in_place17he149a74be5a8843eE.llvm.11575308234008418851:

0000000000000000 <_ZN4core3ptr13drop_in_place17he149a74be5a8843eE.llvm.11575308234008418851>:
   0:	f81e0ffe 	str	x30, [sp,#-32]!
   4:	a9014ff4 	stp	x20, x19, [sp,#16]
   8:	aa0003f3 	mov	x19, x0
   c:	94000000 	bl	0 <_ZN69_$LT$std..sync..condvar..Condvar$u20$as$u20$core..ops..drop..Drop$GT$4drop17hb45a2c18b6822ad4E>
  10:	f9400260 	ldr	x0, [x19]
  14:	a9414ff4 	ldp	x20, x19, [sp,#16]
  18:	52800601 	mov	w1, #0x30                  	// #48
  1c:	52800082 	mov	w2, #0x4                   	// #4
  20:	f84207fe 	ldr	x30, [sp],#32
  24:	14000000 	b	0 <__rust_dealloc>
  28:	aa0003f4 	mov	x20, x0
  2c:	aa1303e0 	mov	x0, x19
  30:	94000000 	bl	0 <_ZN4core3ptr13drop_in_place17he149a74be5a8843eE.llvm.11575308234008418851>
  34:	aa1403e0 	mov	x0, x20
  38:	94000000 	bl	0 <_Unwind_Resume>
  3c:	d4200020 	brk	#0x1

Disassembly of section .text._ZN4core3ptr13drop_in_place17hfcf1d3f0e80c4926E.llvm.11575308234008418851:

0000000000000000 <_ZN4core3ptr13drop_in_place17hfcf1d3f0e80c4926E.llvm.11575308234008418851>:
   0:	f8410c08 	ldr	x8, [x0,#16]!
   4:	c85f7d09 	ldxr	x9, [x8]
   8:	f1000529 	subs	x9, x9, #0x1
   c:	c80afd09 	stlxr	w10, x9, [x8]
  10:	35ffffaa 	cbnz	w10, 4 <_ZN4core3ptr13drop_in_place17hfcf1d3f0e80c4926E.llvm.11575308234008418851+0x4>
  14:	54000061 	b.ne	20 <_ZN4core3ptr13drop_in_place17hfcf1d3f0e80c4926E.llvm.11575308234008418851+0x20>
  18:	d50339bf 	dmb	ishld
  1c:	14000000 	b	0 <_ZN5alloc4sync12Arc$LT$T$GT$9drop_slow17h9697f7fa84dc4c9bE>
  20:	d65f03c0 	ret

Disassembly of section .text._ZN4core4iter8adapters3zip19TrustedRandomAccess4size17hf979f37102a135acE:

0000000000000000 <_ZN4core4iter8adapters3zip19TrustedRandomAccess4size17hf979f37102a135acE>:
   0:	a9412408 	ldp	x8, x9, [x0,#16]
   4:	cb080120 	sub	x0, x9, x8
   8:	d65f03c0 	ret

Disassembly of section .text._ZN58_$LT$I$u20$as$u20$rayon..iter..IntoParallelRefIterator$GT$8par_iter17h658228a6bca04b2cE:

0000000000000000 <_ZN58_$LT$I$u20$as$u20$rayon..iter..IntoParallelRefIterator$GT$8par_iter17h658228a6bca04b2cE>:
   0:	f9400008 	ldr	x8, [x0]
   4:	f9400801 	ldr	x1, [x0,#16]
   8:	aa0803e0 	mov	x0, x8
   c:	d65f03c0 	ret

Disassembly of section .text._ZN5alloc3vec12Vec$LT$T$GT$14from_raw_parts17h1b72114919c4eab9E:

0000000000000000 <_ZN5alloc3vec12Vec$LT$T$GT$14from_raw_parts17h1b72114919c4eab9E>:
   0:	a9000900 	stp	x0, x2, [x8]
   4:	f9000901 	str	x1, [x8,#16]
   8:	d65f03c0 	ret

Disassembly of section .text._ZN5alloc3vec12Vec$LT$T$GT$17extend_from_slice17h5929b4ff054acfa6E:

0000000000000000 <_ZN5alloc3vec12Vec$LT$T$GT$17extend_from_slice17h5929b4ff054acfa6E>:
   0:	f81d0ffe 	str	x30, [sp,#-48]!
   4:	a90157f6 	stp	x22, x21, [sp,#16]
   8:	a9024ff4 	stp	x20, x19, [sp,#32]
   c:	aa0103f4 	mov	x20, x1
  10:	f9400801 	ldr	x1, [x0,#16]
  14:	aa0203f3 	mov	x19, x2
  18:	aa0003f5 	mov	x21, x0
  1c:	d37df056 	lsl	x22, x2, #3
  20:	94000000 	bl	0 <_ZN5alloc7raw_vec19RawVec$LT$T$C$A$GT$7reserve17h1c5921733340d264E>
  24:	f9400aa8 	ldr	x8, [x21,#16]
  28:	f94002a9 	ldr	x9, [x21]
  2c:	aa1403e1 	mov	x1, x20
  30:	aa1603e2 	mov	x2, x22
  34:	8b080d20 	add	x0, x9, x8, lsl #3
  38:	94000000 	bl	0 <memcpy>
  3c:	f9400aa8 	ldr	x8, [x21,#16]
  40:	8b130108 	add	x8, x8, x19
  44:	f9000aa8 	str	x8, [x21,#16]
  48:	a9424ff4 	ldp	x20, x19, [sp,#32]
  4c:	a94157f6 	ldp	x22, x21, [sp,#16]
  50:	f84307fe 	ldr	x30, [sp],#48
  54:	d65f03c0 	ret

Disassembly of section .text._ZN5alloc3vec12Vec$LT$T$GT$5drain17hb00730346f629e96E:

0000000000000000 <_ZN5alloc3vec12Vec$LT$T$GT$5drain17hb00730346f629e96E>:
   0:	f9400809 	ldr	x9, [x0,#16]
   4:	f940000a 	ldr	x10, [x0]
   8:	5280030b 	mov	w11, #0x18                  	// #24
   c:	f900081f 	str	xzr, [x0,#16]
  10:	a9007d09 	stp	x9, xzr, [x8]
  14:	9b0b292b 	madd	x11, x9, x11, x10
  18:	a9012d0a 	stp	x10, x11, [x8,#16]
  1c:	f9001100 	str	x0, [x8,#32]
  20:	d65f03c0 	ret

Disassembly of section .text._ZN5alloc3vec12Vec$LT$T$GT$6resize17h61b566998908b509E:

0000000000000000 <_ZN5alloc3vec12Vec$LT$T$GT$6resize17h61b566998908b509E>:
   0:	a9bd5ffe 	stp	x30, x23, [sp,#-48]!
   4:	a90157f6 	stp	x22, x21, [sp,#16]
   8:	a9024ff4 	stp	x20, x19, [sp,#32]
   c:	f9400808 	ldr	x8, [x0,#16]
  10:	aa0003f3 	mov	x19, x0
  14:	aa0103f4 	mov	x20, x1
  18:	eb01011f 	cmp	x8, x1
  1c:	540002c2 	b.cs	74 <_ZN5alloc3vec12Vec$LT$T$GT$6resize17h61b566998908b509E+0x74>
  20:	cb080296 	sub	x22, x20, x8
  24:	2a0203f5 	mov	w21, w2
  28:	aa1303e0 	mov	x0, x19
  2c:	aa0803e1 	mov	x1, x8
  30:	aa1603e2 	mov	x2, x22
  34:	94000000 	bl	0 <_ZN5alloc7raw_vec19RawVec$LT$T$C$A$GT$7reserve17h18bf52dc05053be9E>
  38:	f9400277 	ldr	x23, [x19]
  3c:	f9400a74 	ldr	x20, [x19,#16]
  40:	f1000adf 	cmp	x22, #0x2
  44:	8b1402e0 	add	x0, x23, x20
  48:	54000103 	b.cc	68 <_ZN5alloc3vec12Vec$LT$T$GT$6resize17h61b566998908b509E+0x68>
  4c:	d10006d6 	sub	x22, x22, #0x1
  50:	2a1503e1 	mov	w1, w21
  54:	aa1603e2 	mov	x2, x22
  58:	94000000 	bl	0 <memset>
  5c:	8b1402d4 	add	x20, x22, x20
  60:	8b1402e0 	add	x0, x23, x20
  64:	14000002 	b	6c <_ZN5alloc3vec12Vec$LT$T$GT$6resize17h61b566998908b509E+0x6c>
  68:	b4000076 	cbz	x22, 74 <_ZN5alloc3vec12Vec$LT$T$GT$6resize17h61b566998908b509E+0x74>
  6c:	91000694 	add	x20, x20, #0x1
  70:	39000015 	strb	w21, [x0]
  74:	f9000a74 	str	x20, [x19,#16]
  78:	a9424ff4 	ldp	x20, x19, [sp,#32]
  7c:	a94157f6 	ldp	x22, x21, [sp,#16]
  80:	a8c35ffe 	ldp	x30, x23, [sp],#48
  84:	d65f03c0 	ret

Disassembly of section .text._ZN5alloc3vec12Vec$LT$T$GT$7reserve17h1f47e987e81a4aecE:

0000000000000000 <_ZN5alloc3vec12Vec$LT$T$GT$7reserve17h1f47e987e81a4aecE>:
   0:	f9400808 	ldr	x8, [x0,#16]
   4:	aa0103e2 	mov	x2, x1
   8:	aa0803e1 	mov	x1, x8
   c:	14000000 	b	0 <_ZN5alloc7raw_vec19RawVec$LT$T$C$A$GT$7reserve17h3bfc5d68dc557444E>

Disassembly of section .text._ZN5alloc3vec12Vec$LT$T$GT$7reserve17h541c507e25cb3677E:

0000000000000000 <_ZN5alloc3vec12Vec$LT$T$GT$7reserve17h541c507e25cb3677E>:
   0:	f9400808 	ldr	x8, [x0,#16]
   4:	aa0103e2 	mov	x2, x1
   8:	aa0803e1 	mov	x1, x8
   c:	14000000 	b	0 <_ZN5alloc7raw_vec19RawVec$LT$T$C$A$GT$7reserve17h1c5921733340d264E>

Disassembly of section .text._ZN5alloc3vec12Vec$LT$T$GT$8is_empty17h59899c9cf7a60ba7E:

0000000000000000 <_ZN5alloc3vec12Vec$LT$T$GT$8is_empty17h59899c9cf7a60ba7E>:
   0:	f9400808 	ldr	x8, [x0,#16]
   4:	f100011f 	cmp	x8, #0x0
   8:	1a9f17e0 	cset	w0, eq
   c:	d65f03c0 	ret

Disassembly of section .text._ZN5rayon4iter13from_par_iter97_$LT$impl$u20$rayon..iter..FromParallelIterator$LT$T$GT$$u20$for$u20$alloc..vec..Vec$LT$T$GT$$GT$13from_par_iter17hc0faa8496b134f19E:

0000000000000000 <_ZN5rayon4iter13from_par_iter97_$LT$impl$u20$rayon..iter..FromParallelIterator$LT$T$GT$$u20$for$u20$alloc..vec..Vec$LT$T$GT$$GT$13from_par_iter17hc0faa8496b134f19E>:
   0:	d10103ff 	sub	sp, sp, #0x40
   4:	f90013fe 	str	x30, [sp,#32]
   8:	a9034ff4 	stp	x20, x19, [sp,#48]
   c:	aa0803f3 	mov	x19, x8
  10:	a9400408 	ldp	x8, x1, [x0]
  14:	3dc00400 	ldr	q0, [x0,#16]
  18:	52800109 	mov	w9, #0x8                   	// #8
  1c:	a900fe7f 	stp	xzr, xzr, [x19,#8]
  20:	f9000269 	str	x9, [x19]
  24:	a90007e8 	stp	x8, x1, [sp]
  28:	3d8007e0 	str	q0, [sp,#16]
  2c:	910003e0 	mov	x0, sp
  30:	aa1303e2 	mov	x2, x19
  34:	94000000 	bl	0 <_ZN5rayon4iter7collect14special_extend17h91f590a025a2dfa4E>
  38:	a9434ff4 	ldp	x20, x19, [sp,#48]
  3c:	f94013fe 	ldr	x30, [sp,#32]
  40:	910103ff 	add	sp, sp, #0x40
  44:	d65f03c0 	ret
  48:	aa0003f4 	mov	x20, x0
  4c:	aa1303e0 	mov	x0, x19
  50:	94000000 	bl	0 <_ZN4core3ptr13drop_in_place17hb85df9e23f32e689E.llvm.8714180484861394610>
  54:	aa1403e0 	mov	x0, x20
  58:	94000000 	bl	0 <_Unwind_Resume>
  5c:	d4200020 	brk	#0x1

Disassembly of section .text._ZN5rayon4iter7collect91_$LT$impl$u20$rayon..iter..ParallelExtend$LT$T$GT$$u20$for$u20$alloc..vec..Vec$LT$T$GT$$GT$10par_extend17h63a2cfe39455370eE:

0000000000000000 <_ZN5rayon4iter7collect91_$LT$impl$u20$rayon..iter..ParallelExtend$LT$T$GT$$u20$for$u20$alloc..vec..Vec$LT$T$GT$$GT$10par_extend17h63a2cfe39455370eE>:
   0:	d100c3ff 	sub	sp, sp, #0x30
   4:	f90013fe 	str	x30, [sp,#32]
   8:	a9402029 	ldp	x9, x8, [x1]
   c:	3dc00420 	ldr	q0, [x1,#16]
  10:	aa0003e2 	mov	x2, x0
  14:	910003e0 	mov	x0, sp
  18:	aa0803e1 	mov	x1, x8
  1c:	a90023e9 	stp	x9, x8, [sp]
  20:	3d8007e0 	str	q0, [sp,#16]
  24:	94000000 	bl	0 <_ZN5rayon4iter7collect14special_extend17h91f590a025a2dfa4E>
  28:	f94013fe 	ldr	x30, [sp,#32]
  2c:	9100c3ff 	add	sp, sp, #0x30
  30:	d65f03c0 	ret

Disassembly of section .text._ZN61_$LT$alloc..vec..Vec$LT$T$GT$$u20$as$u20$core..fmt..Debug$GT$3fmt17h182a1ebf439ba2f3E:

0000000000000000 <_ZN61_$LT$alloc..vec..Vec$LT$T$GT$$u20$as$u20$core..fmt..Debug$GT$3fmt17h182a1ebf439ba2f3E>:
   0:	d10103ff 	sub	sp, sp, #0x40
   4:	a90257fe 	stp	x30, x21, [sp,#32]
   8:	a9034ff4 	stp	x20, x19, [sp,#48]
   c:	f9400014 	ldr	x20, [x0]
  10:	f9400813 	ldr	x19, [x0,#16]
  14:	aa0103e0 	mov	x0, x1
  18:	910023e8 	add	x8, sp, #0x8
  1c:	94000000 	bl	0 <_ZN4core3fmt9Formatter10debug_list17hf13a9b9df9ed7994E>
  20:	b4000193 	cbz	x19, 50 <_ZN61_$LT$alloc..vec..Vec$LT$T$GT$$u20$as$u20$core..fmt..Debug$GT$3fmt17h182a1ebf439ba2f3E+0x50>
  24:	d37df275 	lsl	x21, x19, #3
  28:	90000013 	adrp	x19, 0 <anon.db2b10df3057192c385b8a00c302314f.3.llvm.7836057303592255489>
  2c:	91000273 	add	x19, x19, #0x0
  30:	910023e0 	add	x0, sp, #0x8
  34:	910063e1 	add	x1, sp, #0x18
  38:	aa1303e2 	mov	x2, x19
  3c:	f9000ff4 	str	x20, [sp,#24]
  40:	94000000 	bl	0 <_ZN4core3fmt8builders9DebugList5entry17h984c4e2774da938aE>
  44:	f10022b5 	subs	x21, x21, #0x8
  48:	91002294 	add	x20, x20, #0x8
  4c:	54ffff21 	b.ne	30 <_ZN61_$LT$alloc..vec..Vec$LT$T$GT$$u20$as$u20$core..fmt..Debug$GT$3fmt17h182a1ebf439ba2f3E+0x30>
  50:	910023e0 	add	x0, sp, #0x8
  54:	94000000 	bl	0 <_ZN4core3fmt8builders9DebugList6finish17h5741e31896bd1fb7E>
  58:	a9434ff4 	ldp	x20, x19, [sp,#48]
  5c:	a94257fe 	ldp	x30, x21, [sp,#32]
  60:	910103ff 	add	sp, sp, #0x40
  64:	d65f03c0 	ret

Disassembly of section .text._ZN61_$LT$alloc..vec..Vec$LT$T$GT$$u20$as$u20$core..fmt..Debug$GT$3fmt17hd3b75a7e2bc9aa1eE:

0000000000000000 <_ZN61_$LT$alloc..vec..Vec$LT$T$GT$$u20$as$u20$core..fmt..Debug$GT$3fmt17hd3b75a7e2bc9aa1eE>:
   0:	d10103ff 	sub	sp, sp, #0x40
   4:	a90257fe 	stp	x30, x21, [sp,#32]
   8:	a9034ff4 	stp	x20, x19, [sp,#48]
   c:	f9400014 	ldr	x20, [x0]
  10:	f9400815 	ldr	x21, [x0,#16]
  14:	aa0103e0 	mov	x0, x1
  18:	910023e8 	add	x8, sp, #0x8
  1c:	94000000 	bl	0 <_ZN4core3fmt9Formatter10debug_list17hf13a9b9df9ed7994E>
  20:	b4000175 	cbz	x21, 4c <_ZN61_$LT$alloc..vec..Vec$LT$T$GT$$u20$as$u20$core..fmt..Debug$GT$3fmt17hd3b75a7e2bc9aa1eE+0x4c>
  24:	90000013 	adrp	x19, 0 <anon.db2b10df3057192c385b8a00c302314f.4.llvm.7836057303592255489>
  28:	91000273 	add	x19, x19, #0x0
  2c:	910023e0 	add	x0, sp, #0x8
  30:	910063e1 	add	x1, sp, #0x18
  34:	aa1303e2 	mov	x2, x19
  38:	f9000ff4 	str	x20, [sp,#24]
  3c:	94000000 	bl	0 <_ZN4core3fmt8builders9DebugList5entry17h984c4e2774da938aE>
  40:	f10006b5 	subs	x21, x21, #0x1
  44:	91000694 	add	x20, x20, #0x1
  48:	54ffff21 	b.ne	2c <_ZN61_$LT$alloc..vec..Vec$LT$T$GT$$u20$as$u20$core..fmt..Debug$GT$3fmt17hd3b75a7e2bc9aa1eE+0x2c>
  4c:	910023e0 	add	x0, sp, #0x8
  50:	94000000 	bl	0 <_ZN4core3fmt8builders9DebugList6finish17h5741e31896bd1fb7E>
  54:	a9434ff4 	ldp	x20, x19, [sp,#48]
  58:	a94257fe 	ldp	x30, x21, [sp,#32]
  5c:	910103ff 	add	sp, sp, #0x40
  60:	d65f03c0 	ret

Disassembly of section .text._ZN63_$LT$I$u20$as$u20$core..iter..traits..collect..IntoIterator$GT$9into_iter17h224dd2c63821e13cE:

0000000000000000 <_ZN63_$LT$I$u20$as$u20$core..iter..traits..collect..IntoIterator$GT$9into_iter17h224dd2c63821e13cE>:
   0:	f9401009 	ldr	x9, [x0,#32]
   4:	ad400001 	ldp	q1, q0, [x0]
   8:	f9001109 	str	x9, [x8,#32]
   c:	ad000101 	stp	q1, q0, [x8]
  10:	d65f03c0 	ret

Disassembly of section .text._ZN63_$LT$I$u20$as$u20$core..iter..traits..collect..IntoIterator$GT$9into_iter17hd0c8ecbb52ec5dd5E:

0000000000000000 <_ZN63_$LT$I$u20$as$u20$core..iter..traits..collect..IntoIterator$GT$9into_iter17hd0c8ecbb52ec5dd5E>:
   0:	ad400001 	ldp	q1, q0, [x0]
   4:	ad000101 	stp	q1, q0, [x8]
   8:	d65f03c0 	ret

Disassembly of section .text._ZN63_$LT$alloc..vec..Vec$LT$T$GT$$u20$as$u20$core..clone..Clone$GT$5clone17hd29576f2fd78beb3E:

0000000000000000 <_ZN63_$LT$alloc..vec..Vec$LT$T$GT$$u20$as$u20$core..clone..Clone$GT$5clone17hd29576f2fd78beb3E>:
   0:	f81d0ffe 	str	x30, [sp,#-48]!
   4:	a90157f6 	stp	x22, x21, [sp,#16]
   8:	a9024ff4 	stp	x20, x19, [sp,#32]
   c:	f9400813 	ldr	x19, [x0,#16]
  10:	f9400015 	ldr	x21, [x0]
  14:	aa0803f4 	mov	x20, x8
  18:	b4000133 	cbz	x19, 3c <_ZN63_$LT$alloc..vec..Vec$LT$T$GT$$u20$as$u20$core..clone..Clone$GT$5clone17hd29576f2fd78beb3E+0x3c>
  1c:	52800021 	mov	w1, #0x1                   	// #1
  20:	aa1303e0 	mov	x0, x19
  24:	94000000 	bl	0 <__rust_alloc>
  28:	b50000c0 	cbnz	x0, 40 <_ZN63_$LT$alloc..vec..Vec$LT$T$GT$$u20$as$u20$core..clone..Clone$GT$5clone17hd29576f2fd78beb3E+0x40>
  2c:	52800021 	mov	w1, #0x1                   	// #1
  30:	aa1303e0 	mov	x0, x19
  34:	94000000 	bl	0 <_ZN5alloc5alloc18handle_alloc_error17hdcf25d948d4c5cd4E>
  38:	d4200020 	brk	#0x1
  3c:	52800020 	mov	w0, #0x1                   	// #1
  40:	a9004e80 	stp	x0, x19, [x20]
  44:	f9000a9f 	str	xzr, [x20,#16]
  48:	aa1403e0 	mov	x0, x20
  4c:	aa1f03e1 	mov	x1, xzr
  50:	aa1303e2 	mov	x2, x19
  54:	94000000 	bl	0 <_ZN5alloc7raw_vec19RawVec$LT$T$C$A$GT$7reserve17h18bf52dc05053be9E>
  58:	f9400288 	ldr	x8, [x20]
  5c:	f9400a96 	ldr	x22, [x20,#16]
  60:	aa1503e1 	mov	x1, x21
  64:	aa1303e2 	mov	x2, x19
  68:	8b160100 	add	x0, x8, x22
  6c:	94000000 	bl	0 <memcpy>
  70:	8b1302c8 	add	x8, x22, x19
  74:	f9000a88 	str	x8, [x20,#16]
  78:	a9424ff4 	ldp	x20, x19, [sp,#32]
  7c:	a94157f6 	ldp	x22, x21, [sp,#16]
  80:	f84307fe 	ldr	x30, [sp],#48
  84:	d65f03c0 	ret
  88:	aa0003f3 	mov	x19, x0
  8c:	aa1403e0 	mov	x0, x20
  90:	94000000 	bl	0 <_ZN63_$LT$alloc..vec..Vec$LT$T$GT$$u20$as$u20$core..clone..Clone$GT$5clone17hd29576f2fd78beb3E>
  94:	aa1303e0 	mov	x0, x19
  98:	94000000 	bl	0 <_Unwind_Resume>
  9c:	d4200020 	brk	#0x1

Disassembly of section .text._ZN66_$LT$alloc..vec..Vec$LT$T$GT$$u20$as$u20$core..ops..drop..Drop$GT$4drop17h21cb366391b3b439E:

0000000000000000 <_ZN66_$LT$alloc..vec..Vec$LT$T$GT$$u20$as$u20$core..ops..drop..Drop$GT$4drop17h21cb366391b3b439E>:
   0:	f81d0ffe 	str	x30, [sp,#-48]!
   4:	a90157f6 	stp	x22, x21, [sp,#16]
   8:	a9024ff4 	stp	x20, x19, [sp,#32]
   c:	f9400808 	ldr	x8, [x0,#16]
  10:	b40002c8 	cbz	x8, 68 <_ZN66_$LT$alloc..vec..Vec$LT$T$GT$$u20$as$u20$core..ops..drop..Drop$GT$4drop17h21cb366391b3b439E+0x68>
  14:	f9400013 	ldr	x19, [x0]
  18:	5280030a 	mov	w10, #0x18                  	// #24
  1c:	52800309 	mov	w9, #0x18                  	// #24
  20:	9b0a7d0a 	mul	x10, x8, x10
  24:	9b094d14 	madd	x20, x8, x9, x19
  28:	d1006155 	sub	x21, x10, #0x18
  2c:	14000004 	b	3c <_ZN66_$LT$alloc..vec..Vec$LT$T$GT$$u20$as$u20$core..ops..drop..Drop$GT$4drop17h21cb366391b3b439E+0x3c>
  30:	eb14027f 	cmp	x19, x20
  34:	d10062b5 	sub	x21, x21, #0x18
  38:	54000180 	b.eq	68 <_ZN66_$LT$alloc..vec..Vec$LT$T$GT$$u20$as$u20$core..ops..drop..Drop$GT$4drop17h21cb366391b3b439E+0x68>
  3c:	aa1303e0 	mov	x0, x19
  40:	f8410c08 	ldr	x8, [x0,#16]!
  44:	91002013 	add	x19, x0, #0x8
  48:	c85f7d09 	ldxr	x9, [x8]
  4c:	f1000529 	subs	x9, x9, #0x1
  50:	c80afd09 	stlxr	w10, x9, [x8]
  54:	35ffffaa 	cbnz	w10, 48 <_ZN66_$LT$alloc..vec..Vec$LT$T$GT$$u20$as$u20$core..ops..drop..Drop$GT$4drop17h21cb366391b3b439E+0x48>
  58:	54fffec1 	b.ne	30 <_ZN66_$LT$alloc..vec..Vec$LT$T$GT$$u20$as$u20$core..ops..drop..Drop$GT$4drop17h21cb366391b3b439E+0x30>
  5c:	d50339bf 	dmb	ishld
  60:	94000000 	bl	0 <_ZN5alloc4sync12Arc$LT$T$GT$9drop_slow17h9697f7fa84dc4c9bE>
  64:	17fffff3 	b	30 <_ZN66_$LT$alloc..vec..Vec$LT$T$GT$$u20$as$u20$core..ops..drop..Drop$GT$4drop17h21cb366391b3b439E+0x30>
  68:	a9424ff4 	ldp	x20, x19, [sp,#32]
  6c:	a94157f6 	ldp	x22, x21, [sp,#16]
  70:	f84307fe 	ldr	x30, [sp],#48
  74:	d65f03c0 	ret
  78:	eb14027f 	cmp	x19, x20
  7c:	aa0003f4 	mov	x20, x0
  80:	540000e0 	b.eq	9c <_ZN66_$LT$alloc..vec..Vec$LT$T$GT$$u20$as$u20$core..ops..drop..Drop$GT$4drop17h21cb366391b3b439E+0x9c>
  84:	aa1303e0 	mov	x0, x19
  88:	91006276 	add	x22, x19, #0x18
  8c:	94000000 	bl	0 <_ZN66_$LT$alloc..vec..Vec$LT$T$GT$$u20$as$u20$core..ops..drop..Drop$GT$4drop17h21cb366391b3b439E>
  90:	f10062b5 	subs	x21, x21, #0x18
  94:	aa1603f3 	mov	x19, x22
  98:	54ffff61 	b.ne	84 <_ZN66_$LT$alloc..vec..Vec$LT$T$GT$$u20$as$u20$core..ops..drop..Drop$GT$4drop17h21cb366391b3b439E+0x84>
  9c:	aa1403e0 	mov	x0, x20
  a0:	94000000 	bl	0 <_Unwind_Resume>
  a4:	d4200020 	brk	#0x1

Disassembly of section .text._ZN66_$LT$alloc..vec..Vec$LT$T$GT$$u20$as$u20$core..ops..drop..Drop$GT$4drop17h4a4b26118a9b91fbE:

0000000000000000 <_ZN66_$LT$alloc..vec..Vec$LT$T$GT$$u20$as$u20$core..ops..drop..Drop$GT$4drop17h4a4b26118a9b91fbE>:
   0:	d65f03c0 	ret

Disassembly of section .text._ZN66_$LT$alloc..vec..Vec$LT$T$GT$$u20$as$u20$core..ops..drop..Drop$GT$4drop17h93bf6a4bcc8d1b56E:

0000000000000000 <_ZN66_$LT$alloc..vec..Vec$LT$T$GT$$u20$as$u20$core..ops..drop..Drop$GT$4drop17h93bf6a4bcc8d1b56E>:
   0:	a9bd5ffe 	stp	x30, x23, [sp,#-48]!
   4:	a90157f6 	stp	x22, x21, [sp,#16]
   8:	a9024ff4 	stp	x20, x19, [sp,#32]
   c:	f9400808 	ldr	x8, [x0,#16]
  10:	b4000648 	cbz	x8, d8 <_ZN66_$LT$alloc..vec..Vec$LT$T$GT$$u20$as$u20$core..ops..drop..Drop$GT$4drop17h93bf6a4bcc8d1b56E+0xd8>
  14:	f9400014 	ldr	x20, [x0]
  18:	52800c0a 	mov	w10, #0x60                  	// #96
  1c:	52800c09 	mov	w9, #0x60                  	// #96
  20:	9b0a7d0a 	mul	x10, x8, x10
  24:	9b095117 	madd	x23, x8, x9, x20
  28:	d1018156 	sub	x22, x10, #0x60
  2c:	14000005 	b	40 <_ZN66_$LT$alloc..vec..Vec$LT$T$GT$$u20$as$u20$core..ops..drop..Drop$GT$4drop17h93bf6a4bcc8d1b56E+0x40>
  30:	eb17027f 	cmp	x19, x23
  34:	d10182d6 	sub	x22, x22, #0x60
  38:	aa1303f4 	mov	x20, x19
  3c:	540004e0 	b.eq	d8 <_ZN66_$LT$alloc..vec..Vec$LT$T$GT$$u20$as$u20$core..ops..drop..Drop$GT$4drop17h93bf6a4bcc8d1b56E+0xd8>
  40:	91018293 	add	x19, x20, #0x60
  44:	aa1403e0 	mov	x0, x20
  48:	94000000 	bl	0 <_ZN78_$LT$std..sys_common..mutex..MovableMutex$u20$as$u20$core..ops..drop..Drop$GT$4drop17hef6108bc2c18fda9E>
  4c:	aa1403f5 	mov	x21, x20
  50:	f84106a0 	ldr	x0, [x21],#16
  54:	52800501 	mov	w1, #0x28                  	// #40
  58:	52800082 	mov	w2, #0x4                   	// #4
  5c:	94000000 	bl	0 <__rust_dealloc>
  60:	aa1503e0 	mov	x0, x21
  64:	94000000 	bl	0 <_ZN69_$LT$std..sync..condvar..Condvar$u20$as$u20$core..ops..drop..Drop$GT$4drop17hb45a2c18b6822ad4E>
  68:	f9400a80 	ldr	x0, [x20,#16]
  6c:	52800601 	mov	w1, #0x30                  	// #48
  70:	52800082 	mov	w2, #0x4                   	// #4
  74:	94000000 	bl	0 <__rust_dealloc>
  78:	91008295 	add	x21, x20, #0x20
  7c:	aa1503e0 	mov	x0, x21
  80:	94000000 	bl	0 <_ZN78_$LT$std..sys_common..mutex..MovableMutex$u20$as$u20$core..ops..drop..Drop$GT$4drop17hef6108bc2c18fda9E>
  84:	f9401280 	ldr	x0, [x20,#32]
  88:	52800501 	mov	w1, #0x28                  	// #40
  8c:	52800082 	mov	w2, #0x4                   	// #4
  90:	94000000 	bl	0 <__rust_dealloc>
  94:	9100c295 	add	x21, x20, #0x30
  98:	aa1503e0 	mov	x0, x21
  9c:	94000000 	bl	0 <_ZN69_$LT$std..sync..condvar..Condvar$u20$as$u20$core..ops..drop..Drop$GT$4drop17hb45a2c18b6822ad4E>
  a0:	f9401a80 	ldr	x0, [x20,#48]
  a4:	52800601 	mov	w1, #0x30                  	// #48
  a8:	52800082 	mov	w2, #0x4                   	// #4
  ac:	94000000 	bl	0 <__rust_dealloc>
  b0:	f8450e88 	ldr	x8, [x20,#80]!
  b4:	c85f7d09 	ldxr	x9, [x8]
  b8:	f1000529 	subs	x9, x9, #0x1
  bc:	c80afd09 	stlxr	w10, x9, [x8]
  c0:	35ffffaa 	cbnz	w10, b4 <_ZN66_$LT$alloc..vec..Vec$LT$T$GT$$u20$as$u20$core..ops..drop..Drop$GT$4drop17h93bf6a4bcc8d1b56E+0xb4>
  c4:	54fffb61 	b.ne	30 <_ZN66_$LT$alloc..vec..Vec$LT$T$GT$$u20$as$u20$core..ops..drop..Drop$GT$4drop17h93bf6a4bcc8d1b56E+0x30>
  c8:	d50339bf 	dmb	ishld
  cc:	aa1403e0 	mov	x0, x20
  d0:	94000000 	bl	0 <_ZN5alloc4sync12Arc$LT$T$GT$9drop_slow17hd09d432ae7089d0fE>
  d4:	17ffffd7 	b	30 <_ZN66_$LT$alloc..vec..Vec$LT$T$GT$$u20$as$u20$core..ops..drop..Drop$GT$4drop17h93bf6a4bcc8d1b56E+0x30>
  d8:	a9424ff4 	ldp	x20, x19, [sp,#32]
  dc:	a94157f6 	ldp	x22, x21, [sp,#16]
  e0:	a8c35ffe 	ldp	x30, x23, [sp],#48
  e4:	d65f03c0 	ret
  e8:	aa0003f5 	mov	x21, x0
  ec:	1400001d 	b	160 <_ZN66_$LT$alloc..vec..Vec$LT$T$GT$$u20$as$u20$core..ops..drop..Drop$GT$4drop17h93bf6a4bcc8d1b56E+0x160>
  f0:	aa1503e8 	mov	x8, x21
  f4:	aa0003f5 	mov	x21, x0
  f8:	aa0803e0 	mov	x0, x8
  fc:	94000000 	bl	0 <_ZN66_$LT$alloc..vec..Vec$LT$T$GT$$u20$as$u20$core..ops..drop..Drop$GT$4drop17h93bf6a4bcc8d1b56E>
 100:	14000016 	b	158 <_ZN66_$LT$alloc..vec..Vec$LT$T$GT$$u20$as$u20$core..ops..drop..Drop$GT$4drop17h93bf6a4bcc8d1b56E+0x158>
 104:	aa1503e8 	mov	x8, x21
 108:	aa0003f5 	mov	x21, x0
 10c:	aa0803e0 	mov	x0, x8
 110:	94000000 	bl	0 <_ZN66_$LT$alloc..vec..Vec$LT$T$GT$$u20$as$u20$core..ops..drop..Drop$GT$4drop17h93bf6a4bcc8d1b56E>
 114:	9100c280 	add	x0, x20, #0x30
 118:	94000000 	bl	0 <_ZN66_$LT$alloc..vec..Vec$LT$T$GT$$u20$as$u20$core..ops..drop..Drop$GT$4drop17h93bf6a4bcc8d1b56E>
 11c:	1400000f 	b	158 <_ZN66_$LT$alloc..vec..Vec$LT$T$GT$$u20$as$u20$core..ops..drop..Drop$GT$4drop17h93bf6a4bcc8d1b56E+0x158>
 120:	aa0003f5 	mov	x21, x0
 124:	1400000d 	b	158 <_ZN66_$LT$alloc..vec..Vec$LT$T$GT$$u20$as$u20$core..ops..drop..Drop$GT$4drop17h93bf6a4bcc8d1b56E+0x158>
 128:	aa1503e8 	mov	x8, x21
 12c:	aa0003f5 	mov	x21, x0
 130:	aa0803e0 	mov	x0, x8
 134:	94000000 	bl	0 <_ZN66_$LT$alloc..vec..Vec$LT$T$GT$$u20$as$u20$core..ops..drop..Drop$GT$4drop17h93bf6a4bcc8d1b56E>
 138:	14000006 	b	150 <_ZN66_$LT$alloc..vec..Vec$LT$T$GT$$u20$as$u20$core..ops..drop..Drop$GT$4drop17h93bf6a4bcc8d1b56E+0x150>
 13c:	aa0003f5 	mov	x21, x0
 140:	aa1403e0 	mov	x0, x20
 144:	94000000 	bl	0 <_ZN66_$LT$alloc..vec..Vec$LT$T$GT$$u20$as$u20$core..ops..drop..Drop$GT$4drop17h93bf6a4bcc8d1b56E>
 148:	91004280 	add	x0, x20, #0x10
 14c:	94000000 	bl	0 <_ZN66_$LT$alloc..vec..Vec$LT$T$GT$$u20$as$u20$core..ops..drop..Drop$GT$4drop17h93bf6a4bcc8d1b56E>
 150:	91008280 	add	x0, x20, #0x20
 154:	94000000 	bl	0 <_ZN66_$LT$alloc..vec..Vec$LT$T$GT$$u20$as$u20$core..ops..drop..Drop$GT$4drop17h93bf6a4bcc8d1b56E>
 158:	91014280 	add	x0, x20, #0x50
 15c:	94000000 	bl	0 <_ZN66_$LT$alloc..vec..Vec$LT$T$GT$$u20$as$u20$core..ops..drop..Drop$GT$4drop17h93bf6a4bcc8d1b56E>
 160:	eb17027f 	cmp	x19, x23
 164:	540000e0 	b.eq	180 <_ZN66_$LT$alloc..vec..Vec$LT$T$GT$$u20$as$u20$core..ops..drop..Drop$GT$4drop17h93bf6a4bcc8d1b56E+0x180>
 168:	aa1303e0 	mov	x0, x19
 16c:	91018274 	add	x20, x19, #0x60
 170:	94000000 	bl	0 <_ZN66_$LT$alloc..vec..Vec$LT$T$GT$$u20$as$u20$core..ops..drop..Drop$GT$4drop17h93bf6a4bcc8d1b56E>
 174:	f10182d6 	subs	x22, x22, #0x60
 178:	aa1403f3 	mov	x19, x20
 17c:	54ffff61 	b.ne	168 <_ZN66_$LT$alloc..vec..Vec$LT$T$GT$$u20$as$u20$core..ops..drop..Drop$GT$4drop17h93bf6a4bcc8d1b56E+0x168>
 180:	aa1503e0 	mov	x0, x21
 184:	94000000 	bl	0 <_Unwind_Resume>
 188:	d4200020 	brk	#0x1
 18c:	aa0003f5 	mov	x21, x0
 190:	17fffff0 	b	150 <_ZN66_$LT$alloc..vec..Vec$LT$T$GT$$u20$as$u20$core..ops..drop..Drop$GT$4drop17h93bf6a4bcc8d1b56E+0x150>
 194:	17ffffd5 	b	e8 <_ZN66_$LT$alloc..vec..Vec$LT$T$GT$$u20$as$u20$core..ops..drop..Drop$GT$4drop17h93bf6a4bcc8d1b56E+0xe8>

Disassembly of section .text._ZN66_$LT$alloc..vec..Vec$LT$T$GT$$u20$as$u20$core..ops..drop..Drop$GT$4drop17h9e66c4110cca8780E:

0000000000000000 <_ZN66_$LT$alloc..vec..Vec$LT$T$GT$$u20$as$u20$core..ops..drop..Drop$GT$4drop17h9e66c4110cca8780E>:
   0:	f81d0ffe 	str	x30, [sp,#-48]!
   4:	a90157f6 	stp	x22, x21, [sp,#16]
   8:	a9024ff4 	stp	x20, x19, [sp,#32]
   c:	f9400808 	ldr	x8, [x0,#16]
  10:	b40002c8 	cbz	x8, 68 <_ZN66_$LT$alloc..vec..Vec$LT$T$GT$$u20$as$u20$core..ops..drop..Drop$GT$4drop17h9e66c4110cca8780E+0x68>
  14:	f9400013 	ldr	x19, [x0]
  18:	d379e109 	lsl	x9, x8, #7
  1c:	d1020135 	sub	x21, x9, #0x80
  20:	8b081e76 	add	x22, x19, x8, lsl #7
  24:	aa1303e0 	mov	x0, x19
  28:	94000000 	bl	0 <_ZN78_$LT$std..sys_common..mutex..MovableMutex$u20$as$u20$core..ops..drop..Drop$GT$4drop17hef6108bc2c18fda9E>
  2c:	aa1303f4 	mov	x20, x19
  30:	f8410680 	ldr	x0, [x20],#16
  34:	52800501 	mov	w1, #0x28                  	// #40
  38:	52800082 	mov	w2, #0x4                   	// #4
  3c:	94000000 	bl	0 <__rust_dealloc>
  40:	aa1403e0 	mov	x0, x20
  44:	94000000 	bl	0 <_ZN69_$LT$std..sync..condvar..Condvar$u20$as$u20$core..ops..drop..Drop$GT$4drop17hb45a2c18b6822ad4E>
  48:	f8470680 	ldr	x0, [x20],#112
  4c:	52800601 	mov	w1, #0x30                  	// #48
  50:	52800082 	mov	w2, #0x4                   	// #4
  54:	94000000 	bl	0 <__rust_dealloc>
  58:	eb16029f 	cmp	x20, x22
  5c:	d10202b5 	sub	x21, x21, #0x80
  60:	aa1403f3 	mov	x19, x20
  64:	54fffe01 	b.ne	24 <_ZN66_$LT$alloc..vec..Vec$LT$T$GT$$u20$as$u20$core..ops..drop..Drop$GT$4drop17h9e66c4110cca8780E+0x24>
  68:	a9424ff4 	ldp	x20, x19, [sp,#32]
  6c:	a94157f6 	ldp	x22, x21, [sp,#16]
  70:	f84307fe 	ldr	x30, [sp],#48
  74:	d65f03c0 	ret
  78:	aa0003f4 	mov	x20, x0
  7c:	91004260 	add	x0, x19, #0x10
  80:	94000000 	bl	0 <_ZN66_$LT$alloc..vec..Vec$LT$T$GT$$u20$as$u20$core..ops..drop..Drop$GT$4drop17h9e66c4110cca8780E>
  84:	b5000115 	cbnz	x21, a4 <_ZN66_$LT$alloc..vec..Vec$LT$T$GT$$u20$as$u20$core..ops..drop..Drop$GT$4drop17h9e66c4110cca8780E+0xa4>
  88:	1400000d 	b	bc <_ZN66_$LT$alloc..vec..Vec$LT$T$GT$$u20$as$u20$core..ops..drop..Drop$GT$4drop17h9e66c4110cca8780E+0xbc>
  8c:	aa0003f4 	mov	x20, x0
  90:	aa1303e0 	mov	x0, x19
  94:	94000000 	bl	0 <_ZN66_$LT$alloc..vec..Vec$LT$T$GT$$u20$as$u20$core..ops..drop..Drop$GT$4drop17h9e66c4110cca8780E>
  98:	91004260 	add	x0, x19, #0x10
  9c:	94000000 	bl	0 <_ZN66_$LT$alloc..vec..Vec$LT$T$GT$$u20$as$u20$core..ops..drop..Drop$GT$4drop17h9e66c4110cca8780E>
  a0:	b40000f5 	cbz	x21, bc <_ZN66_$LT$alloc..vec..Vec$LT$T$GT$$u20$as$u20$core..ops..drop..Drop$GT$4drop17h9e66c4110cca8780E+0xbc>
  a4:	91020260 	add	x0, x19, #0x80
  a8:	91020013 	add	x19, x0, #0x80
  ac:	94000000 	bl	0 <_ZN66_$LT$alloc..vec..Vec$LT$T$GT$$u20$as$u20$core..ops..drop..Drop$GT$4drop17h9e66c4110cca8780E>
  b0:	f10202b5 	subs	x21, x21, #0x80
  b4:	aa1303e0 	mov	x0, x19
  b8:	54ffff81 	b.ne	a8 <_ZN66_$LT$alloc..vec..Vec$LT$T$GT$$u20$as$u20$core..ops..drop..Drop$GT$4drop17h9e66c4110cca8780E+0xa8>
  bc:	aa1403e0 	mov	x0, x20
  c0:	94000000 	bl	0 <_Unwind_Resume>
  c4:	d4200020 	brk	#0x1
  c8:	aa0003f4 	mov	x20, x0
  cc:	b5fffed5 	cbnz	x21, a4 <_ZN66_$LT$alloc..vec..Vec$LT$T$GT$$u20$as$u20$core..ops..drop..Drop$GT$4drop17h9e66c4110cca8780E+0xa4>
  d0:	17fffffb 	b	bc <_ZN66_$LT$alloc..vec..Vec$LT$T$GT$$u20$as$u20$core..ops..drop..Drop$GT$4drop17h9e66c4110cca8780E+0xbc>

Disassembly of section .text._ZN66_$LT$alloc..vec..Vec$LT$T$GT$$u20$as$u20$core..ops..drop..Drop$GT$4drop17hbcc4a31e4378f8d7E:

0000000000000000 <_ZN66_$LT$alloc..vec..Vec$LT$T$GT$$u20$as$u20$core..ops..drop..Drop$GT$4drop17hbcc4a31e4378f8d7E>:
   0:	a9bc67fe 	stp	x30, x25, [sp,#-64]!
   4:	a9015ff8 	stp	x24, x23, [sp,#16]
   8:	a90257f6 	stp	x22, x21, [sp,#32]
   c:	a9034ff4 	stp	x20, x19, [sp,#48]
  10:	f9400808 	ldr	x8, [x0,#16]
  14:	b4000308 	cbz	x8, 74 <_ZN66_$LT$alloc..vec..Vec$LT$T$GT$$u20$as$u20$core..ops..drop..Drop$GT$4drop17hbcc4a31e4378f8d7E+0x74>
  18:	f9400015 	ldr	x21, [x0]
  1c:	8b080508 	add	x8, x8, x8, lsl #1
  20:	aa1f03f4 	mov	x20, xzr
  24:	d37df113 	lsl	x19, x8, #3
  28:	14000006 	b	40 <_ZN66_$LT$alloc..vec..Vec$LT$T$GT$$u20$as$u20$core..ops..drop..Drop$GT$4drop17hbcc4a31e4378f8d7E+0x40>
  2c:	f8346ab9 	str	x25, [x21,x20]
  30:	91006294 	add	x20, x20, #0x18
  34:	eb14027f 	cmp	x19, x20
  38:	a900ded8 	stp	x24, x23, [x22,#8]
  3c:	540001c0 	b.eq	74 <_ZN66_$LT$alloc..vec..Vec$LT$T$GT$$u20$as$u20$core..ops..drop..Drop$GT$4drop17hbcc4a31e4378f8d7E+0x74>
  40:	8b1402b6 	add	x22, x21, x20
  44:	f9400ad7 	ldr	x23, [x22,#16]
  48:	d37afee8 	lsr	x8, x23, #58
  4c:	b50001e8 	cbnz	x8, 88 <_ZN66_$LT$alloc..vec..Vec$LT$T$GT$$u20$as$u20$core..ops..drop..Drop$GT$4drop17hbcc4a31e4378f8d7E+0x88>
  50:	a94022d9 	ldp	x25, x8, [x22]
  54:	92400918 	and	x24, x8, #0x7
  58:	f90006d8 	str	x24, [x22,#8]
  5c:	b4fffe97 	cbz	x23, 2c <_ZN66_$LT$alloc..vec..Vec$LT$T$GT$$u20$as$u20$core..ops..drop..Drop$GT$4drop17hbcc4a31e4378f8d7E+0x2c>
  60:	927df320 	and	x0, x25, #0xfffffffffffffff8
  64:	d37df2e1 	lsl	x1, x23, #3
  68:	52800102 	mov	w2, #0x8                   	// #8
  6c:	94000000 	bl	0 <__rust_dealloc>
  70:	17ffffef 	b	2c <_ZN66_$LT$alloc..vec..Vec$LT$T$GT$$u20$as$u20$core..ops..drop..Drop$GT$4drop17hbcc4a31e4378f8d7E+0x2c>
  74:	a9434ff4 	ldp	x20, x19, [sp,#48]
  78:	a94257f6 	ldp	x22, x21, [sp,#32]
  7c:	a9415ff8 	ldp	x24, x23, [sp,#16]
  80:	a8c467fe 	ldp	x30, x25, [sp],#64
  84:	d65f03c0 	ret
  88:	cb140268 	sub	x8, x19, x20
  8c:	aa1303e9 	mov	x9, x19
  90:	910062d3 	add	x19, x22, #0x18
  94:	d1006115 	sub	x21, x8, #0x18
  98:	d1006136 	sub	x22, x9, #0x18
  9c:	90000000 	adrp	x0, 0 <_ZN66_$LT$alloc..vec..Vec$LT$T$GT$$u20$as$u20$core..ops..drop..Drop$GT$4drop17hbcc4a31e4378f8d7E>
  a0:	90000002 	adrp	x2, 0 <_ZN66_$LT$alloc..vec..Vec$LT$T$GT$$u20$as$u20$core..ops..drop..Drop$GT$4drop17hbcc4a31e4378f8d7E>
  a4:	91000000 	add	x0, x0, #0x0
  a8:	91000042 	add	x2, x2, #0x0
  ac:	52800301 	mov	w1, #0x18                  	// #24
  b0:	94000000 	bl	0 <_ZN4core6option13expect_failed17hc91abc95c5a246ebE>
  b4:	d4200020 	brk	#0x1
  b8:	eb1402df 	cmp	x22, x20
  bc:	aa0003f4 	mov	x20, x0
  c0:	540000e0 	b.eq	dc <_ZN66_$LT$alloc..vec..Vec$LT$T$GT$$u20$as$u20$core..ops..drop..Drop$GT$4drop17hbcc4a31e4378f8d7E+0xdc>
  c4:	aa1303e0 	mov	x0, x19
  c8:	91006276 	add	x22, x19, #0x18
  cc:	94000000 	bl	0 <_ZN66_$LT$alloc..vec..Vec$LT$T$GT$$u20$as$u20$core..ops..drop..Drop$GT$4drop17hbcc4a31e4378f8d7E>
  d0:	f10062b5 	subs	x21, x21, #0x18
  d4:	aa1603f3 	mov	x19, x22
  d8:	54ffff61 	b.ne	c4 <_ZN66_$LT$alloc..vec..Vec$LT$T$GT$$u20$as$u20$core..ops..drop..Drop$GT$4drop17hbcc4a31e4378f8d7E+0xc4>
  dc:	aa1403e0 	mov	x0, x20
  e0:	94000000 	bl	0 <_Unwind_Resume>
  e4:	d4200020 	brk	#0x1

Disassembly of section .text._ZN67_$LT$alloc..vec..Vec$LT$T$GT$$u20$as$u20$core..default..Default$GT$7default17h0df346f772ab8d13E:

0000000000000000 <_ZN67_$LT$alloc..vec..Vec$LT$T$GT$$u20$as$u20$core..default..Default$GT$7default17h0df346f772ab8d13E>:
   0:	52800109 	mov	w9, #0x8                   	// #8
   4:	a900fd1f 	stp	xzr, xzr, [x8,#8]
   8:	f9000109 	str	x9, [x8]
   c:	d65f03c0 	ret

Disassembly of section .text._ZN68_$LT$alloc..vec..Drain$LT$T$GT$$u20$as$u20$core..ops..drop..Drop$GT$4drop17h47af34f858e73c16E:

0000000000000000 <_ZN68_$LT$alloc..vec..Drain$LT$T$GT$$u20$as$u20$core..ops..drop..Drop$GT$4drop17h47af34f858e73c16E>:
   0:	d10183ff 	sub	sp, sp, #0x60
   4:	a90457fe 	stp	x30, x21, [sp,#64]
   8:	a9054ff4 	stp	x20, x19, [sp,#80]
   c:	a9412408 	ldp	x8, x9, [x0,#16]
  10:	aa0003f3 	mov	x19, x0
  14:	eb09011f 	cmp	x8, x9
  18:	54000460 	b.eq	a4 <_ZN68_$LT$alloc..vec..Drain$LT$T$GT$$u20$as$u20$core..ops..drop..Drop$GT$4drop17h47af34f858e73c16E+0xa4>
  1c:	9100610a 	add	x10, x8, #0x18
  20:	f9000a6a 	str	x10, [x19,#16]
  24:	3dc00100 	ldr	q0, [x8]
  28:	3d8007e0 	str	q0, [sp,#16]
  2c:	f940090a 	ldr	x10, [x8,#16]
  30:	b400030a 	cbz	x10, 90 <_ZN68_$LT$alloc..vec..Drain$LT$T$GT$$u20$as$u20$core..ops..drop..Drop$GT$4drop17h47af34f858e73c16E+0x90>
  34:	910083e8 	add	x8, sp, #0x20
  38:	91004114 	add	x20, x8, #0x10
  3c:	3dc007e0 	ldr	q0, [sp,#16]
  40:	f90007f3 	str	x19, [sp,#8]
  44:	f9001bea 	str	x10, [sp,#48]
  48:	3d800be0 	str	q0, [sp,#32]
  4c:	c85f7d48 	ldxr	x8, [x10]
  50:	f1000508 	subs	x8, x8, #0x1
  54:	c809fd48 	stlxr	w9, x8, [x10]
  58:	35ffffa9 	cbnz	w9, 4c <_ZN68_$LT$alloc..vec..Drain$LT$T$GT$$u20$as$u20$core..ops..drop..Drop$GT$4drop17h47af34f858e73c16E+0x4c>
  5c:	54000081 	b.ne	6c <_ZN68_$LT$alloc..vec..Drain$LT$T$GT$$u20$as$u20$core..ops..drop..Drop$GT$4drop17h47af34f858e73c16E+0x6c>
  60:	d50339bf 	dmb	ishld
  64:	aa1403e0 	mov	x0, x20
  68:	94000000 	bl	0 <_ZN5alloc4sync12Arc$LT$T$GT$9drop_slow17h9697f7fa84dc4c9bE>
  6c:	a9412668 	ldp	x8, x9, [x19,#16]
  70:	eb09011f 	cmp	x8, x9
  74:	54000180 	b.eq	a4 <_ZN68_$LT$alloc..vec..Drain$LT$T$GT$$u20$as$u20$core..ops..drop..Drop$GT$4drop17h47af34f858e73c16E+0xa4>
  78:	9100610a 	add	x10, x8, #0x18
  7c:	f9000a6a 	str	x10, [x19,#16]
  80:	3dc00100 	ldr	q0, [x8]
  84:	3d8007e0 	str	q0, [sp,#16]
  88:	f940090a 	ldr	x10, [x8,#16]
  8c:	b5fffd8a 	cbnz	x10, 3c <_ZN68_$LT$alloc..vec..Drain$LT$T$GT$$u20$as$u20$core..ops..drop..Drop$GT$4drop17h47af34f858e73c16E+0x3c>
  90:	9100610a 	add	x10, x8, #0x18
  94:	aa0903e8 	mov	x8, x9
  98:	eb08015f 	cmp	x10, x8
  9c:	540000c1 	b.ne	b4 <_ZN68_$LT$alloc..vec..Drain$LT$T$GT$$u20$as$u20$core..ops..drop..Drop$GT$4drop17h47af34f858e73c16E+0xb4>
  a0:	1400001d 	b	114 <_ZN68_$LT$alloc..vec..Drain$LT$T$GT$$u20$as$u20$core..ops..drop..Drop$GT$4drop17h47af34f858e73c16E+0x114>
  a4:	a9017fff 	stp	xzr, xzr, [sp,#16]
  a8:	aa0803ea 	mov	x10, x8
  ac:	eb08015f 	cmp	x10, x8
  b0:	54000320 	b.eq	114 <_ZN68_$LT$alloc..vec..Drain$LT$T$GT$$u20$as$u20$core..ops..drop..Drop$GT$4drop17h47af34f858e73c16E+0x114>
  b4:	910083e8 	add	x8, sp, #0x20
  b8:	91004114 	add	x20, x8, #0x10
  bc:	14000004 	b	cc <_ZN68_$LT$alloc..vec..Drain$LT$T$GT$$u20$as$u20$core..ops..drop..Drop$GT$4drop17h47af34f858e73c16E+0xcc>
  c0:	a941226a 	ldp	x10, x8, [x19,#16]
  c4:	eb08015f 	cmp	x10, x8
  c8:	54000260 	b.eq	114 <_ZN68_$LT$alloc..vec..Drain$LT$T$GT$$u20$as$u20$core..ops..drop..Drop$GT$4drop17h47af34f858e73c16E+0x114>
  cc:	91006148 	add	x8, x10, #0x18
  d0:	f9000a68 	str	x8, [x19,#16]
  d4:	3dc00140 	ldr	q0, [x10]
  d8:	3d8007e0 	str	q0, [sp,#16]
  dc:	f9400948 	ldr	x8, [x10,#16]
  e0:	b40001c8 	cbz	x8, 118 <_ZN68_$LT$alloc..vec..Drain$LT$T$GT$$u20$as$u20$core..ops..drop..Drop$GT$4drop17h47af34f858e73c16E+0x118>
  e4:	3dc007e0 	ldr	q0, [sp,#16]
  e8:	f9001be8 	str	x8, [sp,#48]
  ec:	3d800be0 	str	q0, [sp,#32]
  f0:	c85f7d09 	ldxr	x9, [x8]
  f4:	f1000529 	subs	x9, x9, #0x1
  f8:	c80afd09 	stlxr	w10, x9, [x8]
  fc:	35ffffaa 	cbnz	w10, f0 <_ZN68_$LT$alloc..vec..Drain$LT$T$GT$$u20$as$u20$core..ops..drop..Drop$GT$4drop17h47af34f858e73c16E+0xf0>
 100:	54fffe01 	b.ne	c0 <_ZN68_$LT$alloc..vec..Drain$LT$T$GT$$u20$as$u20$core..ops..drop..Drop$GT$4drop17h47af34f858e73c16E+0xc0>
 104:	d50339bf 	dmb	ishld
 108:	aa1403e0 	mov	x0, x20
 10c:	94000000 	bl	0 <_ZN5alloc4sync12Arc$LT$T$GT$9drop_slow17h9697f7fa84dc4c9bE>
 110:	17ffffec 	b	c0 <_ZN68_$LT$alloc..vec..Drain$LT$T$GT$$u20$as$u20$core..ops..drop..Drop$GT$4drop17h47af34f858e73c16E+0xc0>
 114:	a9017fff 	stp	xzr, xzr, [sp,#16]
 118:	f9400668 	ldr	x8, [x19,#8]
 11c:	b4000208 	cbz	x8, 15c <_ZN68_$LT$alloc..vec..Drain$LT$T$GT$$u20$as$u20$core..ops..drop..Drop$GT$4drop17h47af34f858e73c16E+0x15c>
 120:	f9401274 	ldr	x20, [x19,#32]
 124:	f9400269 	ldr	x9, [x19]
 128:	f9400a95 	ldr	x21, [x20,#16]
 12c:	eb15013f 	cmp	x9, x21
 130:	54000120 	b.eq	154 <_ZN68_$LT$alloc..vec..Drain$LT$T$GT$$u20$as$u20$core..ops..drop..Drop$GT$4drop17h47af34f858e73c16E+0x154>
 134:	f940028a 	ldr	x10, [x20]
 138:	5280030b 	mov	w11, #0x18                  	// #24
 13c:	8b080508 	add	x8, x8, x8, lsl #1
 140:	d37df102 	lsl	x2, x8, #3
 144:	9b0b2921 	madd	x1, x9, x11, x10
 148:	9b0b2aa0 	madd	x0, x21, x11, x10
 14c:	94000000 	bl	0 <memmove>
 150:	f9400668 	ldr	x8, [x19,#8]
 154:	8b150108 	add	x8, x8, x21
 158:	f9000a88 	str	x8, [x20,#16]
 15c:	a9454ff4 	ldp	x20, x19, [sp,#80]
 160:	a94457fe 	ldp	x30, x21, [sp,#64]
 164:	910183ff 	add	sp, sp, #0x60
 168:	d65f03c0 	ret
 16c:	aa0003f3 	mov	x19, x0
 170:	910023e0 	add	x0, sp, #0x8
 174:	94000000 	bl	0 <_ZN68_$LT$alloc..vec..Drain$LT$T$GT$$u20$as$u20$core..ops..drop..Drop$GT$4drop17h47af34f858e73c16E>
 178:	aa1303e0 	mov	x0, x19
 17c:	94000000 	bl	0 <_Unwind_Resume>
 180:	d4200020 	brk	#0x1

Disassembly of section .text._ZN71_$LT$alloc..vec..IntoIter$LT$T$GT$$u20$as$u20$core..ops..drop..Drop$GT$4drop17h6e076701d5601f5cE:

0000000000000000 <_ZN71_$LT$alloc..vec..IntoIter$LT$T$GT$$u20$as$u20$core..ops..drop..Drop$GT$4drop17h6e076701d5601f5cE>:
   0:	f9400401 	ldr	x1, [x0,#8]
   4:	b4000081 	cbz	x1, 14 <_ZN71_$LT$alloc..vec..IntoIter$LT$T$GT$$u20$as$u20$core..ops..drop..Drop$GT$4drop17h6e076701d5601f5cE+0x14>
   8:	f9400000 	ldr	x0, [x0]
   c:	52800022 	mov	w2, #0x1                   	// #1
  10:	14000000 	b	0 <__rust_dealloc>
  14:	d65f03c0 	ret

Disassembly of section .text._ZN71_$LT$alloc..vec..Vec$LT$T$GT$$u20$as$u20$core..ops..deref..DerefMut$GT$9deref_mut17h28b6fd913d0ebc85E:

0000000000000000 <_ZN71_$LT$alloc..vec..Vec$LT$T$GT$$u20$as$u20$core..ops..deref..DerefMut$GT$9deref_mut17h28b6fd913d0ebc85E>:
   0:	f9400008 	ldr	x8, [x0]
   4:	f9400801 	ldr	x1, [x0,#16]
   8:	aa0803e0 	mov	x0, x8
   c:	d65f03c0 	ret

Disassembly of section .text._ZN82_$LT$alloc..vec..Vec$LT$T$GT$$u20$as$u20$alloc..vec..SpecFromIter$LT$T$C$I$GT$$GT$9from_iter17h3e53375fc8178bbbE:

0000000000000000 <_ZN82_$LT$alloc..vec..Vec$LT$T$GT$$u20$as$u20$alloc..vec..SpecFromIter$LT$T$C$I$GT$$GT$9from_iter17h3e53375fc8178bbbE>:
   0:	d10203ff 	sub	sp, sp, #0x80
   4:	f9001bfe 	str	x30, [sp,#48]
   8:	a90467fa 	stp	x26, x25, [sp,#64]
   c:	a9055ff8 	stp	x24, x23, [sp,#80]
  10:	a90657f6 	stp	x22, x21, [sp,#96]
  14:	a9074ff4 	stp	x20, x19, [sp,#112]
  18:	a9405814 	ldp	x20, x22, [x0]
  1c:	f9400817 	ldr	x23, [x0,#16]
  20:	aa0803f3 	mov	x19, x8
  24:	52800108 	mov	w8, #0x8                   	// #8
  28:	a900fe7f 	stp	xzr, xzr, [x19,#8]
  2c:	f9000268 	str	x8, [x19]
  30:	b40000f6 	cbz	x22, 4c <_ZN82_$LT$alloc..vec..Vec$LT$T$GT$$u20$as$u20$alloc..vec..SpecFromIter$LT$T$C$I$GT$$GT$9from_iter17h3e53375fc8178bbbE+0x4c>
  34:	b4000557 	cbz	x23, dc <_ZN82_$LT$alloc..vec..Vec$LT$T$GT$$u20$as$u20$alloc..vec..SpecFromIter$LT$T$C$I$GT$$GT$9from_iter17h3e53375fc8178bbbE+0xdc>
  38:	9ad70ac8 	udiv	x8, x22, x23
  3c:	9b17d909 	msub	x9, x8, x23, x22
  40:	f100013f 	cmp	x9, #0x0
  44:	9a880502 	cinc	x2, x8, ne
  48:	14000002 	b	50 <_ZN82_$LT$alloc..vec..Vec$LT$T$GT$$u20$as$u20$alloc..vec..SpecFromIter$LT$T$C$I$GT$$GT$9from_iter17h3e53375fc8178bbbE+0x50>
  4c:	aa1f03e2 	mov	x2, xzr
  50:	aa1303e0 	mov	x0, x19
  54:	aa1f03e1 	mov	x1, xzr
  58:	94000000 	bl	0 <_ZN5alloc7raw_vec19RawVec$LT$T$C$A$GT$7reserve17h3bfc5d68dc557444E>
  5c:	f9400268 	ldr	x8, [x19]
  60:	f9400a78 	ldr	x24, [x19,#16]
  64:	52800309 	mov	w9, #0x18                  	// #24
  68:	91004279 	add	x25, x19, #0x10
  6c:	9b09231a 	madd	x26, x24, x9, x8
  70:	a90067fa 	stp	x26, x25, [sp]
  74:	f9000bf8 	str	x24, [sp,#16]
  78:	b4000236 	cbz	x22, bc <_ZN82_$LT$alloc..vec..Vec$LT$T$GT$$u20$as$u20$alloc..vec..SpecFromIter$LT$T$C$I$GT$$GT$9from_iter17h3e53375fc8178bbbE+0xbc>
  7c:	eb1702df 	cmp	x22, x23
  80:	9a9682f5 	csel	x21, x23, x22, hi
  84:	910063e0 	add	x0, sp, #0x18
  88:	aa1403e1 	mov	x1, x20
  8c:	aa1503e2 	mov	x2, x21
  90:	94000000 	bl	0 <_ZN7raidpir6client13RaidPirClient5query28_$u7b$$u7b$closure$u7d$$u7d$17h9d2a672bc16bf82dE.llvm.9065009910989082989>
  94:	f94017e8 	ldr	x8, [sp,#40]
  98:	3cc183e0 	ldur	q0, [sp,#24]
  9c:	cb1502d6 	sub	x22, x22, x21
  a0:	8b150e94 	add	x20, x20, x21, lsl #3
  a4:	f9000b48 	str	x8, [x26,#16]
  a8:	3c818740 	str	q0, [x26],#24
  ac:	91000718 	add	x24, x24, #0x1
  b0:	b5fffe76 	cbnz	x22, 7c <_ZN82_$LT$alloc..vec..Vec$LT$T$GT$$u20$as$u20$alloc..vec..SpecFromIter$LT$T$C$I$GT$$GT$9from_iter17h3e53375fc8178bbbE+0x7c>
  b4:	f90003fa 	str	x26, [sp]
  b8:	f9000bf8 	str	x24, [sp,#16]
  bc:	f9000338 	str	x24, [x25]
  c0:	a9474ff4 	ldp	x20, x19, [sp,#112]
  c4:	a94657f6 	ldp	x22, x21, [sp,#96]
  c8:	a9455ff8 	ldp	x24, x23, [sp,#80]
  cc:	a94467fa 	ldp	x26, x25, [sp,#64]
  d0:	f9401bfe 	ldr	x30, [sp,#48]
  d4:	910203ff 	add	sp, sp, #0x80
  d8:	d65f03c0 	ret
  dc:	90000000 	adrp	x0, 0 <_ZN82_$LT$alloc..vec..Vec$LT$T$GT$$u20$as$u20$alloc..vec..SpecFromIter$LT$T$C$I$GT$$GT$9from_iter17h3e53375fc8178bbbE>
  e0:	90000002 	adrp	x2, 0 <_ZN82_$LT$alloc..vec..Vec$LT$T$GT$$u20$as$u20$alloc..vec..SpecFromIter$LT$T$C$I$GT$$GT$9from_iter17h3e53375fc8178bbbE>
  e4:	91000000 	add	x0, x0, #0x0
  e8:	91000042 	add	x2, x2, #0x0
  ec:	52800321 	mov	w1, #0x19                  	// #25
  f0:	94000000 	bl	0 <_ZN4core9panicking5panic17ha0da74e3ee8dcc67E>
  f4:	d4200020 	brk	#0x1
  f8:	aa0003f4 	mov	x20, x0
  fc:	14000006 	b	114 <_ZN82_$LT$alloc..vec..Vec$LT$T$GT$$u20$as$u20$alloc..vec..SpecFromIter$LT$T$C$I$GT$$GT$9from_iter17h3e53375fc8178bbbE+0x114>
 100:	aa0003f4 	mov	x20, x0
 104:	910003e0 	mov	x0, sp
 108:	f90003fa 	str	x26, [sp]
 10c:	f9000bf8 	str	x24, [sp,#16]
 110:	94000000 	bl	0 <_ZN4core3ptr13drop_in_place17h145815da67d26446E.llvm.9065009910989082989>
 114:	aa1303e0 	mov	x0, x19
 118:	94000000 	bl	0 <_ZN82_$LT$alloc..vec..Vec$LT$T$GT$$u20$as$u20$alloc..vec..SpecFromIter$LT$T$C$I$GT$$GT$9from_iter17h3e53375fc8178bbbE>
 11c:	aa1403e0 	mov	x0, x20
 120:	94000000 	bl	0 <_Unwind_Resume>
 124:	d4200020 	brk	#0x1

Disassembly of section .text._ZN88_$LT$alloc..vec..IntoIter$LT$T$GT$$u20$as$u20$core..iter..traits..iterator..Iterator$GT$24__iterator_get_unchecked17hb4b180eb2963c621E:

0000000000000000 <_ZN88_$LT$alloc..vec..IntoIter$LT$T$GT$$u20$as$u20$core..iter..traits..iterator..Iterator$GT$24__iterator_get_unchecked17hb4b180eb2963c621E>:
   0:	f9400808 	ldr	x8, [x0,#16]
   4:	38616900 	ldrb	w0, [x8,x1]
   8:	d65f03c0 	ret

Disassembly of section .group:

0000000000000000 <.group>:
   0:	00000001 	.inst	0x00000001 ; undefined
   4:	00000056 	.inst	0x00000056 ; undefined

Disassembly of section .text._ZN105_$LT$rayon..iter..reduce..ReduceFolder$LT$R$C$T$GT$$u20$as$u20$rayon..iter..plumbing..Folder$LT$T$GT$$GT$4full17h3286ea87ee8e9f8dE:

0000000000000000 <_ZN105_$LT$rayon..iter..reduce..ReduceFolder$LT$R$C$T$GT$$u20$as$u20$rayon..iter..plumbing..Folder$LT$T$GT$$GT$4full17h3286ea87ee8e9f8dE>:
   0:	2a1f03e0 	mov	w0, wzr
   4:	d65f03c0 	ret

Disassembly of section .text._ZN105_$LT$rayon..iter..reduce..ReduceFolder$LT$R$C$T$GT$$u20$as$u20$rayon..iter..plumbing..Folder$LT$T$GT$$GT$7consume17h20bb1bc818ab554aE:

0000000000000000 <_ZN105_$LT$rayon..iter..reduce..ReduceFolder$LT$R$C$T$GT$$u20$as$u20$rayon..iter..plumbing..Folder$LT$T$GT$$GT$7consume17h20bb1bc818ab554aE>:
   0:	d101c3ff 	sub	sp, sp, #0x70
   4:	f9002bfe 	str	x30, [sp,#80]
   8:	a9064ff4 	stp	x20, x19, [sp,#96]
   c:	3cc08000 	ldur	q0, [x0,#8]
  10:	aa0803f3 	mov	x19, x8
  14:	f9400c08 	ldr	x8, [x0,#24]
  18:	f9400014 	ldr	x20, [x0]
  1c:	3d8003e0 	str	q0, [sp]
  20:	3dc00021 	ldr	q1, [x1]
  24:	f9000be8 	str	x8, [sp,#16]
  28:	f9400829 	ldr	x9, [x1,#16]
  2c:	f94007e8 	ldr	x8, [sp,#8]
  30:	910003ea 	mov	x10, sp
  34:	91006140 	add	x0, x10, #0x18
  38:	f90017e9 	str	x9, [sp,#40]
  3c:	3c8183e1 	stur	q1, [sp,#24]
  40:	b4000188 	cbz	x8, 70 <_ZN105_$LT$rayon..iter..reduce..ReduceFolder$LT$R$C$T$GT$$u20$as$u20$rayon..iter..plumbing..Folder$LT$T$GT$$GT$7consume17h20bb1bc818ab554aE+0x70>
  44:	f9400fe9 	ldr	x9, [sp,#24]
  48:	f9000fff 	str	xzr, [sp,#24]
  4c:	b4000269 	cbz	x9, 98 <_ZN105_$LT$rayon..iter..reduce..ReduceFolder$LT$R$C$T$GT$$u20$as$u20$rayon..iter..plumbing..Folder$LT$T$GT$$GT$7consume17h20bb1bc818ab554aE+0x98>
  50:	f9000109 	str	x9, [x8]
  54:	f9000528 	str	x8, [x9,#8]
  58:	a94223e9 	ldp	x9, x8, [sp,#32]
  5c:	f9400bea 	ldr	x10, [sp,#16]
  60:	a9027fff 	stp	xzr, xzr, [sp,#32]
  64:	8b080148 	add	x8, x10, x8
  68:	a900a3e9 	stp	x9, x8, [sp,#8]
  6c:	1400000b 	b	98 <_ZN105_$LT$rayon..iter..reduce..ReduceFolder$LT$R$C$T$GT$$u20$as$u20$rayon..iter..plumbing..Folder$LT$T$GT$$GT$7consume17h20bb1bc818ab554aE+0x98>
  70:	3dc003e0 	ldr	q0, [sp]
  74:	f9400be8 	ldr	x8, [sp,#16]
  78:	3dc00001 	ldr	q1, [x0]
  7c:	f9400809 	ldr	x9, [x0,#16]
  80:	3d800fe0 	str	q0, [sp,#48]
  84:	f90023e8 	str	x8, [sp,#64]
  88:	3d8003e1 	str	q1, [sp]
  8c:	f9000be9 	str	x9, [sp,#16]
  90:	f9000808 	str	x8, [x0,#16]
  94:	3d800000 	str	q0, [x0]
  98:	3dc003e0 	ldr	q0, [sp]
  9c:	f9400be8 	ldr	x8, [sp,#16]
  a0:	3d800fe0 	str	q0, [sp,#48]
  a4:	f90023e8 	str	x8, [sp,#64]
  a8:	94000000 	bl	0 <_ZN94_$LT$alloc..collections..linked_list..LinkedList$LT$T$GT$$u20$as$u20$core..ops..drop..Drop$GT$4drop17h5831681bbd6595d2E>
  ac:	f94023e8 	ldr	x8, [sp,#64]
  b0:	3dc00fe0 	ldr	q0, [sp,#48]
  b4:	f9000274 	str	x20, [x19]
  b8:	f9402bfe 	ldr	x30, [sp,#80]
  bc:	f9000e68 	str	x8, [x19,#24]
  c0:	3c808260 	stur	q0, [x19,#8]
  c4:	a9464ff4 	ldp	x20, x19, [sp,#96]
  c8:	9101c3ff 	add	sp, sp, #0x70
  cc:	d65f03c0 	ret

Disassembly of section .text._ZN105_$LT$rayon..iter..reduce..ReduceFolder$LT$R$C$T$GT$$u20$as$u20$rayon..iter..plumbing..Folder$LT$T$GT$$GT$8complete17hc8acbd7b1cb7258dE:

0000000000000000 <_ZN105_$LT$rayon..iter..reduce..ReduceFolder$LT$R$C$T$GT$$u20$as$u20$rayon..iter..plumbing..Folder$LT$T$GT$$GT$8complete17hc8acbd7b1cb7258dE>:
   0:	f9400c09 	ldr	x9, [x0,#24]
   4:	3cc08000 	ldur	q0, [x0,#8]
   8:	f9000909 	str	x9, [x8,#16]
   c:	3d800100 	str	q0, [x8]
  10:	d65f03c0 	ret

Disassembly of section .text._ZN106_$LT$rayon..iter..fold..FoldFolder$LT$C$C$ID$C$F$GT$$u20$as$u20$rayon..iter..plumbing..Folder$LT$T$GT$$GT$12consume_iter17h863619f5f317eae6E:

0000000000000000 <_ZN106_$LT$rayon..iter..fold..FoldFolder$LT$C$C$ID$C$F$GT$$u20$as$u20$rayon..iter..plumbing..Folder$LT$T$GT$$GT$12consume_iter17h863619f5f317eae6E>:
   0:	d10383ff 	sub	sp, sp, #0xe0
   4:	f90063fe 	str	x30, [sp,#192]
   8:	a90d4ff4 	stp	x20, x19, [sp,#208]
   c:	ad400400 	ldp	q0, q1, [x0]
  10:	a9425009 	ldp	x9, x20, [x0,#32]
  14:	aa0803f3 	mov	x19, x8
  18:	f9400828 	ldr	x8, [x1,#16]
  1c:	3dc00022 	ldr	q2, [x1]
  20:	ad0007e0 	stp	q0, q1, [sp]
  24:	3dc00c00 	ldr	q0, [x0,#48]
  28:	f940200b 	ldr	x11, [x0,#64]
  2c:	9100c3ea 	add	x10, sp, #0x30
  30:	f90013e9 	str	x9, [sp,#32]
  34:	910003e9 	mov	x9, sp
  38:	a90427e8 	stp	x8, x9, [sp,#64]
  3c:	91008148 	add	x8, x10, #0x20
  40:	91006149 	add	x9, x10, #0x18
  44:	390143ff 	strb	wzr, [sp,#80]
  48:	3d800fe2 	str	q2, [sp,#48]
  4c:	f9004beb 	str	x11, [sp,#144]
  50:	3d8023e0 	str	q0, [sp,#128]
  54:	a90a53e9 	stp	x9, x20, [sp,#160]
  58:	f9005be8 	str	x8, [sp,#176]
  5c:	910183e8 	add	x8, sp, #0x60
  60:	9100c3e0 	add	x0, sp, #0x30
  64:	910203e1 	add	x1, sp, #0x80
  68:	910283e2 	add	x2, sp, #0xa0
  6c:	94000000 	bl	0 <_ZN97_$LT$core..iter..adapters..Map$LT$I$C$F$GT$$u20$as$u20$core..iter..traits..iterator..Iterator$GT$8try_fold17hbd3062f2e85bf576E>
  70:	3cc683e0 	ldur	q0, [sp,#104]
  74:	f9403fe8 	ldr	x8, [sp,#120]
  78:	ad400be1 	ldp	q1, q2, [sp]
  7c:	f94013e9 	ldr	x9, [sp,#32]
  80:	3d802be0 	str	q0, [sp,#160]
  84:	3dc02be0 	ldr	q0, [sp,#160]
  88:	ad000a61 	stp	q1, q2, [x19]
  8c:	a9025269 	stp	x9, x20, [x19,#32]
  90:	f9002268 	str	x8, [x19,#64]
  94:	3d800e60 	str	q0, [x19,#48]
  98:	a94d4ff4 	ldp	x20, x19, [sp,#208]
  9c:	f94063fe 	ldr	x30, [sp,#192]
  a0:	f9005be8 	str	x8, [sp,#176]
  a4:	910383ff 	add	sp, sp, #0xe0
  a8:	d65f03c0 	ret
  ac:	aa0003f3 	mov	x19, x0
  b0:	910003e0 	mov	x0, sp
  b4:	94000000 	bl	0 <_ZN106_$LT$rayon..iter..fold..FoldFolder$LT$C$C$ID$C$F$GT$$u20$as$u20$rayon..iter..plumbing..Folder$LT$T$GT$$GT$12consume_iter17h863619f5f317eae6E>
  b8:	aa1303e0 	mov	x0, x19
  bc:	94000000 	bl	0 <_Unwind_Resume>
  c0:	d4200020 	brk	#0x1

Disassembly of section .text._ZN106_$LT$rayon..iter..fold..FoldFolder$LT$C$C$ID$C$F$GT$$u20$as$u20$rayon..iter..plumbing..Folder$LT$T$GT$$GT$8complete17h6aa273ab6fa46eb5E:

0000000000000000 <_ZN106_$LT$rayon..iter..fold..FoldFolder$LT$C$C$ID$C$F$GT$$u20$as$u20$rayon..iter..plumbing..Folder$LT$T$GT$$GT$8complete17h6aa273ab6fa46eb5E>:
   0:	d10203ff 	sub	sp, sp, #0x80
   4:	a9074ffe 	stp	x30, x19, [sp,#112]
   8:	aa0803f3 	mov	x19, x8
   c:	f9400c08 	ldr	x8, [x0,#24]
  10:	3cc08000 	ldur	q0, [x0,#8]
  14:	f9402009 	ldr	x9, [x0,#64]
  18:	3dc00c01 	ldr	q1, [x0,#48]
  1c:	52800500 	mov	w0, #0x28                  	// #40
  20:	52800101 	mov	w1, #0x8                   	// #8
  24:	f9000be8 	str	x8, [sp,#16]
  28:	3d8003e0 	str	q0, [sp]
  2c:	f9001be9 	str	x9, [sp,#48]
  30:	3d800be1 	str	q1, [sp,#32]
  34:	94000000 	bl	0 <__rust_alloc>
  38:	b4000580 	cbz	x0, e8 <_ZN106_$LT$rayon..iter..fold..FoldFolder$LT$C$C$ID$C$F$GT$$u20$as$u20$rayon..iter..plumbing..Folder$LT$T$GT$$GT$8complete17h6aa273ab6fa46eb5E+0xe8>
  3c:	3dc00be0 	ldr	q0, [sp,#32]
  40:	f9401be9 	ldr	x9, [sp,#48]
  44:	f9400bea 	ldr	x10, [sp,#16]
  48:	aa0003e8 	mov	x8, x0
  4c:	3d800400 	str	q0, [x0,#16]
  50:	3dc003e0 	ldr	q0, [sp]
  54:	f9001009 	str	x9, [x0,#32]
  58:	52800029 	mov	w9, #0x1                   	// #1
  5c:	a90427e8 	stp	x8, x9, [sp,#64]
  60:	3d800be0 	str	q0, [sp,#32]
  64:	f94017e9 	ldr	x9, [sp,#40]
  68:	a90323ea 	stp	x10, x8, [sp,#48]
  6c:	910083ea 	add	x10, sp, #0x20
  70:	a9007c1f 	stp	xzr, xzr, [x0]
  74:	91006140 	add	x0, x10, #0x18
  78:	b4000149 	cbz	x9, a0 <_ZN106_$LT$rayon..iter..fold..FoldFolder$LT$C$C$ID$C$F$GT$$u20$as$u20$rayon..iter..plumbing..Folder$LT$T$GT$$GT$8complete17h6aa273ab6fa46eb5E+0xa0>
  7c:	f9001fff 	str	xzr, [sp,#56]
  80:	f9000128 	str	x8, [x9]
  84:	f9000509 	str	x9, [x8,#8]
  88:	a94423e9 	ldp	x9, x8, [sp,#64]
  8c:	f9401bea 	ldr	x10, [sp,#48]
  90:	a9047fff 	stp	xzr, xzr, [sp,#64]
  94:	8b080148 	add	x8, x10, x8
  98:	a902a3e9 	stp	x9, x8, [sp,#40]
  9c:	1400000b 	b	c8 <_ZN106_$LT$rayon..iter..fold..FoldFolder$LT$C$C$ID$C$F$GT$$u20$as$u20$rayon..iter..plumbing..Folder$LT$T$GT$$GT$8complete17h6aa273ab6fa46eb5E+0xc8>
  a0:	3dc00be0 	ldr	q0, [sp,#32]
  a4:	f9401be8 	ldr	x8, [sp,#48]
  a8:	3dc00001 	ldr	q1, [x0]
  ac:	f9400809 	ldr	x9, [x0,#16]
  b0:	3d8017e0 	str	q0, [sp,#80]
  b4:	f90033e8 	str	x8, [sp,#96]
  b8:	3d800be1 	str	q1, [sp,#32]
  bc:	f9001be9 	str	x9, [sp,#48]
  c0:	f9000808 	str	x8, [x0,#16]
  c4:	3d800000 	str	q0, [x0]
  c8:	f9401be8 	ldr	x8, [sp,#48]
  cc:	3dc00be0 	ldr	q0, [sp,#32]
  d0:	f9000a68 	str	x8, [x19,#16]
  d4:	3d800260 	str	q0, [x19]
  d8:	94000000 	bl	0 <_ZN94_$LT$alloc..collections..linked_list..LinkedList$LT$T$GT$$u20$as$u20$core..ops..drop..Drop$GT$4drop17h5831681bbd6595d2E>
  dc:	a9474ffe 	ldp	x30, x19, [sp,#112]
  e0:	910203ff 	add	sp, sp, #0x80
  e4:	d65f03c0 	ret
  e8:	52800500 	mov	w0, #0x28                  	// #40
  ec:	52800101 	mov	w1, #0x8                   	// #8
  f0:	94000000 	bl	0 <_ZN5alloc5alloc18handle_alloc_error17hdcf25d948d4c5cd4E>
  f4:	d4200020 	brk	#0x1

Disassembly of section .text._ZN109_$LT$rayon..iter..reduce..ReduceConsumer$LT$R$C$ID$GT$$u20$as$u20$rayon..iter..plumbing..Reducer$LT$T$GT$$GT$6reduce17h69ba7c71e3503ec6E:

0000000000000000 <_ZN109_$LT$rayon..iter..reduce..ReduceConsumer$LT$R$C$ID$GT$$u20$as$u20$rayon..iter..plumbing..Reducer$LT$T$GT$$GT$6reduce17h69ba7c71e3503ec6E>:
   0:	d10183ff 	sub	sp, sp, #0x60
   4:	f9002bfe 	str	x30, [sp,#80]
   8:	3dc00040 	ldr	q0, [x2]
   c:	f9400849 	ldr	x9, [x2,#16]
  10:	3dc00061 	ldr	q1, [x3]
  14:	f940086a 	ldr	x10, [x3,#16]
  18:	3d8003e0 	str	q0, [sp]
  1c:	f9000be9 	str	x9, [sp,#16]
  20:	f94007e9 	ldr	x9, [sp,#8]
  24:	910003eb 	mov	x11, sp
  28:	91006160 	add	x0, x11, #0x18
  2c:	f90017ea 	str	x10, [sp,#40]
  30:	3c8183e1 	stur	q1, [sp,#24]
  34:	b4000189 	cbz	x9, 64 <_ZN109_$LT$rayon..iter..reduce..ReduceConsumer$LT$R$C$ID$GT$$u20$as$u20$rayon..iter..plumbing..Reducer$LT$T$GT$$GT$6reduce17h69ba7c71e3503ec6E+0x64>
  38:	f9400fea 	ldr	x10, [sp,#24]
  3c:	f9000fff 	str	xzr, [sp,#24]
  40:	b400026a 	cbz	x10, 8c <_ZN109_$LT$rayon..iter..reduce..ReduceConsumer$LT$R$C$ID$GT$$u20$as$u20$rayon..iter..plumbing..Reducer$LT$T$GT$$GT$6reduce17h69ba7c71e3503ec6E+0x8c>
  44:	f900012a 	str	x10, [x9]
  48:	f9000549 	str	x9, [x10,#8]
  4c:	a94227ea 	ldp	x10, x9, [sp,#32]
  50:	f9400beb 	ldr	x11, [sp,#16]
  54:	a9027fff 	stp	xzr, xzr, [sp,#32]
  58:	8b090169 	add	x9, x11, x9
  5c:	a900a7ea 	stp	x10, x9, [sp,#8]
  60:	1400000b 	b	8c <_ZN109_$LT$rayon..iter..reduce..ReduceConsumer$LT$R$C$ID$GT$$u20$as$u20$rayon..iter..plumbing..Reducer$LT$T$GT$$GT$6reduce17h69ba7c71e3503ec6E+0x8c>
  64:	3dc003e0 	ldr	q0, [sp]
  68:	f9400be9 	ldr	x9, [sp,#16]
  6c:	3dc00001 	ldr	q1, [x0]
  70:	f940080a 	ldr	x10, [x0,#16]
  74:	3d800fe0 	str	q0, [sp,#48]
  78:	f90023e9 	str	x9, [sp,#64]
  7c:	3d8003e1 	str	q1, [sp]
  80:	f9000bea 	str	x10, [sp,#16]
  84:	f9000809 	str	x9, [x0,#16]
  88:	3d800000 	str	q0, [x0]
  8c:	f9400be9 	ldr	x9, [sp,#16]
  90:	3dc003e0 	ldr	q0, [sp]
  94:	f9000909 	str	x9, [x8,#16]
  98:	3d800100 	str	q0, [x8]
  9c:	94000000 	bl	0 <_ZN94_$LT$alloc..collections..linked_list..LinkedList$LT$T$GT$$u20$as$u20$core..ops..drop..Drop$GT$4drop17h5831681bbd6595d2E>
  a0:	f9402bfe 	ldr	x30, [sp,#80]
  a4:	910183ff 	add	sp, sp, #0x60
  a8:	d65f03c0 	ret

Disassembly of section .text._ZN10rayon_core8registry9in_worker17h683b6262d975ba87E:

0000000000000000 <_ZN10rayon_core8registry9in_worker17h683b6262d975ba87E>:
   0:	d10683ff 	sub	sp, sp, #0x1a0
   4:	f900a3fd 	str	x29, [sp,#320]
   8:	a9156ffe 	stp	x30, x27, [sp,#336]
   c:	a91667fa 	stp	x26, x25, [sp,#352]
  10:	a9175ff8 	stp	x24, x23, [sp,#368]
  14:	a91857f6 	stp	x22, x21, [sp,#384]
  18:	a9194ff4 	stp	x20, x19, [sp,#400]
  1c:	aa0003f4 	mov	x20, x0
  20:	94000000 	bl	0 <_ZN10rayon_core8registry19WORKER_THREAD_STATE7__getit17h4f910a206b76a4f3E>
  24:	b40013a0 	cbz	x0, 298 <_ZN10rayon_core8registry9in_worker17h683b6262d975ba87E+0x298>
  28:	f9400013 	ldr	x19, [x0]
  2c:	b4000933 	cbz	x19, 150 <_ZN10rayon_core8registry9in_worker17h683b6262d975ba87E+0x150>
  30:	3cc58280 	ldur	q0, [x20,#88]
  34:	3cc68281 	ldur	q1, [x20,#104]
  38:	a947d688 	ldp	x8, x21, [x20,#120]
  3c:	ad400e82 	ldp	q2, q3, [x20]
  40:	a944628a 	ldp	x10, x24, [x20,#64]
  44:	ad0007e0 	stp	q0, q1, [sp]
  48:	f90013e8 	str	x8, [sp,#32]
  4c:	ad410680 	ldp	q0, q1, [x20,#32]
  50:	f9409268 	ldr	x8, [x19,#288]
  54:	9104c269 	add	x9, x19, #0x130
  58:	a90327ff 	stp	xzr, x9, [sp,#48]
  5c:	390123ff 	strb	wzr, [sp,#72]
  60:	ad0387e0 	stp	q0, q1, [sp,#112]
  64:	ad028fe2 	stp	q2, q3, [sp,#80]
  68:	a9097fea 	stp	x10, xzr, [sp,#144]
  6c:	f90023e8 	str	x8, [sp,#64]
  70:	f9408268 	ldr	x8, [x19,#256]
  74:	f9402a97 	ldr	x23, [x20,#80]
  78:	91040274 	add	x20, x19, #0x100
  7c:	f9408519 	ldr	x25, [x8,#264]
  80:	91040108 	add	x8, x8, #0x100
  84:	c8dffd1a 	ldar	x26, [x8]
  88:	f9408268 	ldr	x8, [x19,#256]
  8c:	f940851b 	ldr	x27, [x8,#264]
  90:	91040108 	add	x8, x8, #0x100
  94:	c8dffd09 	ldar	x9, [x8]
  98:	f9408a68 	ldr	x8, [x19,#272]
  9c:	cb090369 	sub	x9, x27, x9
  a0:	eb08013f 	cmp	x9, x8
  a4:	540000ab 	b.lt	b8 <_ZN10rayon_core8registry9in_worker17h683b6262d975ba87E+0xb8>
  a8:	d37ff901 	lsl	x1, x8, #1
  ac:	aa1403e0 	mov	x0, x20
  b0:	94000000 	bl	0 <_ZN15crossbeam_deque5deque15Worker$LT$T$GT$6resize17h356162248feccb3cE.llvm.1173454447793668956>
  b4:	f9408a68 	ldr	x8, [x19,#272]
  b8:	f9408669 	ldr	x9, [x19,#264]
  bc:	d1000508 	sub	x8, x8, #0x1
  c0:	8a1b0108 	and	x8, x8, x27
  c4:	90000016 	adrp	x22, 0 <_ZN83_$LT$rayon_core..job..StackJob$LT$L$C$F$C$R$GT$$u20$as$u20$rayon_core..job..Job$GT$7execute17h6a247ce9772c226eE.llvm.16290411295856443344>
  c8:	8b081128 	add	x8, x9, x8, lsl #4
  cc:	9100c3e9 	add	x9, sp, #0x30
  d0:	910002d6 	add	x22, x22, #0x0
  d4:	f9000109 	str	x9, [x8]
  d8:	f9000516 	str	x22, [x8,#8]
  dc:	d5033bbf 	dmb	ish
  e0:	f9408268 	ldr	x8, [x19,#256]
  e4:	91000769 	add	x9, x27, #0x1
  e8:	91042108 	add	x8, x8, #0x108
  ec:	c89ffd09 	stlr	x9, [x8]
  f0:	f9409a69 	ldr	x9, [x19,#304]
  f4:	cb1a0328 	sub	x8, x25, x26
  f8:	9106a120 	add	x0, x9, #0x1a8
  fc:	9107412a 	add	x10, x9, #0x1d0
 100:	c8dffd4b 	ldar	x11, [x10]
 104:	37a0016b 	tbnz	w11, #20, 130 <_ZN10rayon_core8registry9in_worker17h683b6262d975ba87E+0x130>
 108:	91440169 	add	x9, x11, #0x100, lsl #12
 10c:	c85ffd4c 	ldaxr	x12, [x10]
 110:	eb0b019f 	cmp	x12, x11
 114:	54000081 	b.ne	124 <_ZN10rayon_core8registry9in_worker17h683b6262d975ba87E+0x124>
 118:	c80cfd49 	stlxr	w12, x9, [x10]
 11c:	35ffff8c 	cbnz	w12, 10c <_ZN10rayon_core8registry9in_worker17h683b6262d975ba87E+0x10c>
 120:	14000005 	b	134 <_ZN10rayon_core8registry9in_worker17h683b6262d975ba87E+0x134>
 124:	d5033f5f 	clrex
 128:	c8dffd4b 	ldar	x11, [x10]
 12c:	36a7feeb 	tbz	w11, #20, 108 <_ZN10rayon_core8registry9in_worker17h683b6262d975ba87E+0x108>
 130:	aa0b03e9 	mov	x9, x11
 134:	9240252a 	and	x10, x9, #0x3ff
 138:	b40003ea 	cbz	x10, 1b4 <_ZN10rayon_core8registry9in_worker17h683b6262d975ba87E+0x1b4>
 13c:	f100011f 	cmp	x8, #0x0
 140:	5400030d 	b.le	1a0 <_ZN10rayon_core8registry9in_worker17h683b6262d975ba87E+0x1a0>
 144:	52800021 	mov	w1, #0x1                   	// #1
 148:	94000000 	bl	0 <_ZN10rayon_core5sleep5Sleep16wake_any_threads17hf99abf617ce5bd7dE>
 14c:	1400001a 	b	1b4 <_ZN10rayon_core8registry9in_worker17h683b6262d975ba87E+0x1b4>
 150:	94000000 	bl	0 <_ZN10rayon_core8registry15global_registry17hc2ef0caf75be1eb1E>
 154:	ad410680 	ldp	q0, q1, [x20,#32]
 158:	ad400e82 	ldp	q2, q3, [x20]
 15c:	f9400008 	ldr	x8, [x0]
 160:	f9404289 	ldr	x9, [x20,#128]
 164:	ad0687e0 	stp	q0, q1, [sp,#208]
 168:	ad420680 	ldp	q0, q1, [x20,#64]
 16c:	ad058fe2 	stp	q2, q3, [sp,#176]
 170:	ad430e82 	ldp	q2, q3, [x20,#96]
 174:	91020108 	add	x8, x8, #0x80
 178:	90000000 	adrp	x0, 0 <_ZN10rayon_core8registry9in_worker17h683b6262d975ba87E>
 17c:	f9001be8 	str	x8, [sp,#48]
 180:	9100c3e8 	add	x8, sp, #0x30
 184:	91000000 	add	x0, x0, #0x0
 188:	9102c3e1 	add	x1, sp, #0xb0
 18c:	ad088fe2 	stp	q2, q3, [sp,#272]
 190:	ad0787e0 	stp	q0, q1, [sp,#240]
 194:	a91323e9 	stp	x9, x8, [sp,#304]
 198:	94000000 	bl	0 <_ZN3std6thread5local17LocalKey$LT$T$GT$4with17hed5952d6e9e5077cE>
 19c:	14000033 	b	268 <_ZN10rayon_core8registry9in_worker17h683b6262d975ba87E+0x268>
 1a0:	d34a4d28 	ubfx	x8, x9, #10, #10
 1a4:	cb0a0108 	sub	x8, x8, x10
 1a8:	35000068 	cbnz	w8, 1b4 <_ZN10rayon_core8registry9in_worker17h683b6262d975ba87E+0x1b4>
 1ac:	52800021 	mov	w1, #0x1                   	// #1
 1b0:	94000000 	bl	0 <_ZN10rayon_core5sleep5Sleep16wake_any_threads17hf99abf617ce5bd7dE>
 1b4:	f9400300 	ldr	x0, [x24]
 1b8:	ad4007e0 	ldp	q0, q1, [sp]
 1bc:	f94013e8 	ldr	x8, [sp,#32]
 1c0:	a9400ee2 	ldp	x2, x3, [x23]
 1c4:	ad0587e0 	stp	q0, q1, [sp,#176]
 1c8:	f9006be8 	str	x8, [sp,#208]
 1cc:	9102c3e4 	add	x4, sp, #0xb0
 1d0:	2a1f03e1 	mov	w1, wzr
 1d4:	aa1503e5 	mov	x5, x21
 1d8:	94000000 	bl	0 <_ZN5rayon4iter8plumbing24bridge_producer_consumer6helper17h3e421240823759dfE>
 1dc:	9100c3f5 	add	x21, sp, #0x30
 1e0:	14000002 	b	1e8 <_ZN10rayon_core8registry9in_worker17h683b6262d975ba87E+0x1e8>
 1e4:	d63f0020 	blr	x1
 1e8:	c8dffea8 	ldar	x8, [x21]
 1ec:	f1000d1f 	cmp	x8, #0x3
 1f0:	54000360 	b.eq	25c <_ZN10rayon_core8registry9in_worker17h683b6262d975ba87E+0x25c>
 1f4:	aa1403e0 	mov	x0, x20
 1f8:	94000000 	bl	0 <_ZN15crossbeam_deque5deque15Worker$LT$T$GT$3pop17he9480c323ec38c84E>
 1fc:	b4000221 	cbz	x1, 240 <_ZN10rayon_core8registry9in_worker17h683b6262d975ba87E+0x240>
 200:	eb15001f 	cmp	x0, x21
 204:	54ffff01 	b.ne	1e4 <_ZN10rayon_core8registry9in_worker17h683b6262d975ba87E+0x1e4>
 208:	eb16003f 	cmp	x1, x22
 20c:	54fffec1 	b.ne	1e4 <_ZN10rayon_core8registry9in_worker17h683b6262d975ba87E+0x1e4>
 210:	ad4387e0 	ldp	q0, q1, [sp,#112]
 214:	ad448fe2 	ldp	q2, q3, [sp,#144]
 218:	ad0787e0 	stp	q0, q1, [sp,#240]
 21c:	ad4187e0 	ldp	q0, q1, [sp,#48]
 220:	ad088fe2 	stp	q2, q3, [sp,#272]
 224:	ad428fe2 	ldp	q2, q3, [sp,#80]
 228:	ad0587e0 	stp	q0, q1, [sp,#176]
 22c:	ad068fe2 	stp	q2, q3, [sp,#208]
 230:	9102c3e0 	add	x0, sp, #0xb0
 234:	2a1f03e1 	mov	w1, wzr
 238:	94000000 	bl	0 <_ZN10rayon_core3job25StackJob$LT$L$C$F$C$R$GT$10run_inline17h9342d354f0936cdfE>
 23c:	1400000b 	b	268 <_ZN10rayon_core8registry9in_worker17h683b6262d975ba87E+0x268>
 240:	9100c3e8 	add	x8, sp, #0x30
 244:	c8dffd08 	ldar	x8, [x8]
 248:	f1000d1f 	cmp	x8, #0x3
 24c:	54000080 	b.eq	25c <_ZN10rayon_core8registry9in_worker17h683b6262d975ba87E+0x25c>
 250:	9100c3e1 	add	x1, sp, #0x30
 254:	aa1303e0 	mov	x0, x19
 258:	94000000 	bl	0 <_ZN10rayon_core8registry12WorkerThread15wait_until_cold17h247d61e1f4b74d9eE>
 25c:	f9404fe8 	ldr	x8, [sp,#152]
 260:	f100051f 	cmp	x8, #0x1
 264:	54000121 	b.ne	288 <_ZN10rayon_core8registry9in_worker17h683b6262d975ba87E+0x288>
 268:	a9594ff4 	ldp	x20, x19, [sp,#400]
 26c:	a95857f6 	ldp	x22, x21, [sp,#384]
 270:	a9575ff8 	ldp	x24, x23, [sp,#368]
 274:	a95667fa 	ldp	x26, x25, [sp,#352]
 278:	a9556ffe 	ldp	x30, x27, [sp,#336]
 27c:	f940a3fd 	ldr	x29, [sp,#320]
 280:	910683ff 	add	sp, sp, #0x1a0
 284:	d65f03c0 	ret
 288:	b40001c8 	cbz	x8, 2c0 <_ZN10rayon_core8registry9in_worker17h683b6262d975ba87E+0x2c0>
 28c:	a94a07e0 	ldp	x0, x1, [sp,#160]
 290:	94000000 	bl	0 <_ZN10rayon_core6unwind16resume_unwinding17h96957761123900f4E>
 294:	1400001c 	b	304 <_ZN10rayon_core8registry9in_worker17h683b6262d975ba87E+0x304>
 298:	90000000 	adrp	x0, 0 <anon.db2b10df3057192c385b8a00c302314f.0.llvm.7836057303592255489>
 29c:	90000003 	adrp	x3, 0 <anon.db2b10df3057192c385b8a00c302314f.9.llvm.7836057303592255489>
 2a0:	90000004 	adrp	x4, 0 <anon.db2b10df3057192c385b8a00c302314f.2.llvm.7836057303592255489>
 2a4:	91000000 	add	x0, x0, #0x0
 2a8:	91000063 	add	x3, x3, #0x0
 2ac:	91000084 	add	x4, x4, #0x0
 2b0:	9102c3e2 	add	x2, sp, #0xb0
 2b4:	528008c1 	mov	w1, #0x46                  	// #70
 2b8:	94000000 	bl	0 <_ZN4core6result13unwrap_failed17h7d932ac07cdd1fc7E>
 2bc:	d4200020 	brk	#0x1
 2c0:	90000000 	adrp	x0, 0 <anon.7788f797f7cf28f72c51377fae556ed6.0.llvm.16290411295856443344>
 2c4:	90000002 	adrp	x2, 0 <anon.7788f797f7cf28f72c51377fae556ed6.2.llvm.16290411295856443344>
 2c8:	91000000 	add	x0, x0, #0x0
 2cc:	91000042 	add	x2, x2, #0x0
 2d0:	52800501 	mov	w1, #0x28                  	// #40
 2d4:	94000000 	bl	0 <_ZN3std9panicking11begin_panic17h49f6d6cf9017eacfE>
 2d8:	1400000b 	b	304 <_ZN10rayon_core8registry9in_worker17h683b6262d975ba87E+0x304>
 2dc:	14000002 	b	2e4 <_ZN10rayon_core8registry9in_worker17h683b6262d975ba87E+0x2e4>
 2e0:	1400000c 	b	310 <_ZN10rayon_core8registry9in_worker17h683b6262d975ba87E+0x310>
 2e4:	aa0003f3 	mov	x19, x0
 2e8:	1400000d 	b	31c <_ZN10rayon_core8registry9in_worker17h683b6262d975ba87E+0x31c>
 2ec:	94000000 	bl	0 <_ZN3std9panicking3try7cleanup17h0203421b683548f8E>
 2f0:	aa0003e2 	mov	x2, x0
 2f4:	aa0103e3 	mov	x3, x1
 2f8:	9100c3e1 	add	x1, sp, #0x30
 2fc:	aa1303e0 	mov	x0, x19
 300:	94000000 	bl	0 <_ZN10rayon_core4join23join_recover_from_panic17h3239122033fd1cffE>
 304:	d4200020 	brk	#0x1
 308:	14000002 	b	310 <_ZN10rayon_core8registry9in_worker17h683b6262d975ba87E+0x310>
 30c:	14000001 	b	310 <_ZN10rayon_core8registry9in_worker17h683b6262d975ba87E+0x310>
 310:	aa0003f3 	mov	x19, x0
 314:	9100c3e0 	add	x0, sp, #0x30
 318:	94000000 	bl	0 <_ZN10rayon_core8registry9in_worker17h683b6262d975ba87E>
 31c:	aa1303e0 	mov	x0, x19
 320:	94000000 	bl	0 <_Unwind_Resume>
 324:	d4200020 	brk	#0x1

Disassembly of section .text._ZN10rayon_core8registry9in_worker17ha33dabb53c2f88f6E:

0000000000000000 <_ZN10rayon_core8registry9in_worker17ha33dabb53c2f88f6E>:
   0:	d10643ff 	sub	sp, sp, #0x190
   4:	a9137bfd 	stp	x29, x30, [sp,#304]
   8:	a9146ffc 	stp	x28, x27, [sp,#320]
   c:	a91567fa 	stp	x26, x25, [sp,#336]
  10:	a9165ff8 	stp	x24, x23, [sp,#352]
  14:	a91757f6 	stp	x22, x21, [sp,#368]
  18:	a9184ff4 	stp	x20, x19, [sp,#384]
  1c:	aa0003f5 	mov	x21, x0
  20:	aa0803f3 	mov	x19, x8
  24:	94000000 	bl	0 <_ZN10rayon_core8registry19WORKER_THREAD_STATE7__getit17h4f910a206b76a4f3E>
  28:	b40015a0 	cbz	x0, 2dc <_ZN10rayon_core8registry9in_worker17ha33dabb53c2f88f6E+0x2dc>
  2c:	f9400014 	ldr	x20, [x0]
  30:	b4000934 	cbz	x20, 154 <_ZN10rayon_core8registry9in_worker17ha33dabb53c2f88f6E+0x154>
  34:	3dc01aa0 	ldr	q0, [x21,#96]
  38:	f9403aaa 	ldr	x10, [x21,#112]
  3c:	ad400aa1 	ldp	q1, q2, [x21]
  40:	9104c289 	add	x9, x20, #0x130
  44:	3d8007e0 	str	q0, [sp,#16]
  48:	ad410ea0 	ldp	q0, q3, [x21,#32]
  4c:	f9409288 	ldr	x8, [x20,#288]
  50:	a9027fea 	stp	x10, xzr, [sp,#32]
  54:	390103ff 	strb	wzr, [sp,#64]
  58:	3c8783e3 	stur	q3, [sp,#120]
  5c:	a90323e9 	stp	x9, x8, [sp,#48]
  60:	3c8683e0 	stur	q0, [sp,#104]
  64:	3c8583e2 	stur	q2, [sp,#88]
  68:	3c8483e1 	stur	q1, [sp,#72]
  6c:	f90047ff 	str	xzr, [sp,#136]
  70:	f9408288 	ldr	x8, [x20,#256]
  74:	a94466ba 	ldp	x26, x25, [x21,#64]
  78:	a9455eb6 	ldp	x22, x23, [x21,#80]
  7c:	91040295 	add	x21, x20, #0x100
  80:	f940851b 	ldr	x27, [x8,#264]
  84:	91040108 	add	x8, x8, #0x100
  88:	c8dffd1c 	ldar	x28, [x8]
  8c:	f9408288 	ldr	x8, [x20,#256]
  90:	f940851d 	ldr	x29, [x8,#264]
  94:	91040108 	add	x8, x8, #0x100
  98:	c8dffd09 	ldar	x9, [x8]
  9c:	f9408a88 	ldr	x8, [x20,#272]
  a0:	cb0903a9 	sub	x9, x29, x9
  a4:	eb08013f 	cmp	x9, x8
  a8:	540000ab 	b.lt	bc <_ZN10rayon_core8registry9in_worker17ha33dabb53c2f88f6E+0xbc>
  ac:	d37ff901 	lsl	x1, x8, #1
  b0:	aa1503e0 	mov	x0, x21
  b4:	94000000 	bl	0 <_ZN15crossbeam_deque5deque15Worker$LT$T$GT$6resize17h356162248feccb3cE.llvm.1173454447793668956>
  b8:	f9408a88 	ldr	x8, [x20,#272]
  bc:	f9408689 	ldr	x9, [x20,#264]
  c0:	d1000508 	sub	x8, x8, #0x1
  c4:	8a1d0108 	and	x8, x8, x29
  c8:	90000018 	adrp	x24, 0 <_ZN83_$LT$rayon_core..job..StackJob$LT$L$C$F$C$R$GT$$u20$as$u20$rayon_core..job..Job$GT$7execute17h5bc8380aaee11fffE.llvm.16290411295856443344>
  cc:	8b081128 	add	x8, x9, x8, lsl #4
  d0:	9100a3e9 	add	x9, sp, #0x28
  d4:	91000318 	add	x24, x24, #0x0
  d8:	f9000109 	str	x9, [x8]
  dc:	f9000518 	str	x24, [x8,#8]
  e0:	d5033bbf 	dmb	ish
  e4:	f9408288 	ldr	x8, [x20,#256]
  e8:	910007a9 	add	x9, x29, #0x1
  ec:	91042108 	add	x8, x8, #0x108
  f0:	c89ffd09 	stlr	x9, [x8]
  f4:	f9409a89 	ldr	x9, [x20,#304]
  f8:	cb1c0368 	sub	x8, x27, x28
  fc:	9106a120 	add	x0, x9, #0x1a8
 100:	9107412a 	add	x10, x9, #0x1d0
 104:	c8dffd4b 	ldar	x11, [x10]
 108:	37a0016b 	tbnz	w11, #20, 134 <_ZN10rayon_core8registry9in_worker17ha33dabb53c2f88f6E+0x134>
 10c:	91440169 	add	x9, x11, #0x100, lsl #12
 110:	c85ffd4c 	ldaxr	x12, [x10]
 114:	eb0b019f 	cmp	x12, x11
 118:	54000081 	b.ne	128 <_ZN10rayon_core8registry9in_worker17ha33dabb53c2f88f6E+0x128>
 11c:	c80cfd49 	stlxr	w12, x9, [x10]
 120:	35ffff8c 	cbnz	w12, 110 <_ZN10rayon_core8registry9in_worker17ha33dabb53c2f88f6E+0x110>
 124:	14000005 	b	138 <_ZN10rayon_core8registry9in_worker17ha33dabb53c2f88f6E+0x138>
 128:	d5033f5f 	clrex
 12c:	c8dffd4b 	ldar	x11, [x10]
 130:	36a7feeb 	tbz	w11, #20, 10c <_ZN10rayon_core8registry9in_worker17ha33dabb53c2f88f6E+0x10c>
 134:	aa0b03e9 	mov	x9, x11
 138:	9240252a 	and	x10, x9, #0x3ff
 13c:	b400040a 	cbz	x10, 1bc <_ZN10rayon_core8registry9in_worker17ha33dabb53c2f88f6E+0x1bc>
 140:	f100011f 	cmp	x8, #0x0
 144:	5400032d 	b.le	1a8 <_ZN10rayon_core8registry9in_worker17ha33dabb53c2f88f6E+0x1a8>
 148:	52800021 	mov	w1, #0x1                   	// #1
 14c:	94000000 	bl	0 <_ZN10rayon_core5sleep5Sleep16wake_any_threads17hf99abf617ce5bd7dE>
 150:	1400001b 	b	1bc <_ZN10rayon_core8registry9in_worker17ha33dabb53c2f88f6E+0x1bc>
 154:	94000000 	bl	0 <_ZN10rayon_core8registry15global_registry17hc2ef0caf75be1eb1E>
 158:	ad4106a0 	ldp	q0, q1, [x21,#32]
 15c:	f9400008 	ldr	x8, [x0]
 160:	f9403aa9 	ldr	x9, [x21,#112]
 164:	ad400ea2 	ldp	q2, q3, [x21]
 168:	ad4216a4 	ldp	q4, q5, [x21,#64]
 16c:	ad0687e0 	stp	q0, q1, [sp,#208]
 170:	3dc01aa0 	ldr	q0, [x21,#96]
 174:	91020108 	add	x8, x8, #0x80
 178:	f90017e8 	str	x8, [sp,#40]
 17c:	9100a3e8 	add	x8, sp, #0x28
 180:	90000000 	adrp	x0, 0 <_ZN10rayon_core8registry9in_worker17ha33dabb53c2f88f6E>
 184:	a91223e9 	stp	x9, x8, [sp,#288]
 188:	91000000 	add	x0, x0, #0x0
 18c:	9102c3e1 	add	x1, sp, #0xb0
 190:	aa1303e8 	mov	x8, x19
 194:	ad058fe2 	stp	q2, q3, [sp,#176]
 198:	ad0803e5 	stp	q5, q0, [sp,#256]
 19c:	3d803fe4 	str	q4, [sp,#240]
 1a0:	94000000 	bl	0 <_ZN3std6thread5local17LocalKey$LT$T$GT$4with17h1780f561accb409cE>
 1a4:	14000043 	b	2b0 <_ZN10rayon_core8registry9in_worker17ha33dabb53c2f88f6E+0x2b0>
 1a8:	d34a4d28 	ubfx	x8, x9, #10, #10
 1ac:	cb0a0108 	sub	x8, x8, x10
 1b0:	35000068 	cbnz	w8, 1bc <_ZN10rayon_core8registry9in_worker17ha33dabb53c2f88f6E+0x1bc>
 1b4:	52800021 	mov	w1, #0x1                   	// #1
 1b8:	94000000 	bl	0 <_ZN10rayon_core5sleep5Sleep16wake_any_threads17hf99abf617ce5bd7dE>
 1bc:	f9400340 	ldr	x0, [x26]
 1c0:	3dc007e0 	ldr	q0, [sp,#16]
 1c4:	f94013e8 	ldr	x8, [sp,#32]
 1c8:	a9400f22 	ldp	x2, x3, [x25]
 1cc:	3d802fe0 	str	q0, [sp,#176]
 1d0:	f90063e8 	str	x8, [sp,#192]
 1d4:	9102c3e6 	add	x6, sp, #0xb0
 1d8:	2a1f03e1 	mov	w1, wzr
 1dc:	aa1603e4 	mov	x4, x22
 1e0:	aa1703e5 	mov	x5, x23
 1e4:	94000000 	bl	0 <_ZN5rayon4iter8plumbing24bridge_producer_consumer6helper17h4ffad98548c58f69E>
 1e8:	9100a3f6 	add	x22, sp, #0x28
 1ec:	a90a07e0 	stp	x0, x1, [sp,#160]
 1f0:	14000002 	b	1f8 <_ZN10rayon_core8registry9in_worker17ha33dabb53c2f88f6E+0x1f8>
 1f4:	d63f0020 	blr	x1
 1f8:	c8dffec8 	ldar	x8, [x22]
 1fc:	f1000d1f 	cmp	x8, #0x3
 200:	54000480 	b.eq	290 <_ZN10rayon_core8registry9in_worker17ha33dabb53c2f88f6E+0x290>
 204:	aa1503e0 	mov	x0, x21
 208:	94000000 	bl	0 <_ZN15crossbeam_deque5deque15Worker$LT$T$GT$3pop17he9480c323ec38c84E>
 20c:	b4000321 	cbz	x1, 270 <_ZN10rayon_core8registry9in_worker17ha33dabb53c2f88f6E+0x270>
 210:	eb16001f 	cmp	x0, x22
 214:	54ffff01 	b.ne	1f4 <_ZN10rayon_core8registry9in_worker17ha33dabb53c2f88f6E+0x1f4>
 218:	eb18003f 	cmp	x1, x24
 21c:	54fffec1 	b.ne	1f4 <_ZN10rayon_core8registry9in_worker17ha33dabb53c2f88f6E+0x1f4>
 220:	3cc683e0 	ldur	q0, [sp,#104]
 224:	3cc783e1 	ldur	q1, [sp,#120]
 228:	3cc883e2 	ldur	q2, [sp,#136]
 22c:	f9404fe8 	ldr	x8, [sp,#152]
 230:	3cc283e3 	ldur	q3, [sp,#40]
 234:	3cc383e4 	ldur	q4, [sp,#56]
 238:	ad0787e0 	stp	q0, q1, [sp,#240]
 23c:	3cc483e0 	ldur	q0, [sp,#72]
 240:	3cc583e1 	ldur	q1, [sp,#88]
 244:	52800035 	mov	w21, #0x1                   	// #1
 248:	3d8047e2 	str	q2, [sp,#272]
 24c:	ad0593e3 	stp	q3, q4, [sp,#176]
 250:	f90093e8 	str	x8, [sp,#288]
 254:	ad0687e0 	stp	q0, q1, [sp,#208]
 258:	9102c3e0 	add	x0, sp, #0xb0
 25c:	2a1f03e1 	mov	w1, wzr
 260:	94000000 	bl	0 <_ZN10rayon_core3job25StackJob$LT$L$C$F$C$R$GT$10run_inline17hdbb09251790c8574E>
 264:	3dc02be0 	ldr	q0, [sp,#160]
 268:	3d800260 	str	q0, [x19]
 26c:	14000010 	b	2ac <_ZN10rayon_core8registry9in_worker17ha33dabb53c2f88f6E+0x2ac>
 270:	9100a3e8 	add	x8, sp, #0x28
 274:	c8dffd08 	ldar	x8, [x8]
 278:	f1000d1f 	cmp	x8, #0x3
 27c:	540000a0 	b.eq	290 <_ZN10rayon_core8registry9in_worker17ha33dabb53c2f88f6E+0x290>
 280:	9100a3e1 	add	x1, sp, #0x28
 284:	aa1403e0 	mov	x0, x20
 288:	2a1f03f5 	mov	w21, wzr
 28c:	94000000 	bl	0 <_ZN10rayon_core8registry12WorkerThread15wait_until_cold17h247d61e1f4b74d9eE>
 290:	a94883ea 	ldp	x10, x0, [sp,#136]
 294:	a94a23e9 	ldp	x9, x8, [sp,#160]
 298:	f9404fe1 	ldr	x1, [sp,#152]
 29c:	f100055f 	cmp	x10, #0x1
 2a0:	a90b23e9 	stp	x9, x8, [sp,#176]
 2a4:	54000161 	b.ne	2d0 <_ZN10rayon_core8registry9in_worker17ha33dabb53c2f88f6E+0x2d0>
 2a8:	a9002269 	stp	x9, x8, [x19]
 2ac:	a9010660 	stp	x0, x1, [x19,#16]
 2b0:	a9584ff4 	ldp	x20, x19, [sp,#384]
 2b4:	a95757f6 	ldp	x22, x21, [sp,#368]
 2b8:	a9565ff8 	ldp	x24, x23, [sp,#352]
 2bc:	a95567fa 	ldp	x26, x25, [sp,#336]
 2c0:	a9546ffc 	ldp	x28, x27, [sp,#320]
 2c4:	a9537bfd 	ldp	x29, x30, [sp,#304]
 2c8:	910643ff 	add	sp, sp, #0x190
 2cc:	d65f03c0 	ret
 2d0:	b40001aa 	cbz	x10, 304 <_ZN10rayon_core8registry9in_worker17ha33dabb53c2f88f6E+0x304>
 2d4:	94000000 	bl	0 <_ZN10rayon_core6unwind16resume_unwinding17h96957761123900f4E>
 2d8:	14000021 	b	35c <_ZN10rayon_core8registry9in_worker17ha33dabb53c2f88f6E+0x35c>
 2dc:	90000000 	adrp	x0, 0 <anon.db2b10df3057192c385b8a00c302314f.0.llvm.7836057303592255489>
 2e0:	90000003 	adrp	x3, 0 <anon.db2b10df3057192c385b8a00c302314f.9.llvm.7836057303592255489>
 2e4:	90000004 	adrp	x4, 0 <anon.db2b10df3057192c385b8a00c302314f.2.llvm.7836057303592255489>
 2e8:	91000000 	add	x0, x0, #0x0
 2ec:	91000063 	add	x3, x3, #0x0
 2f0:	91000084 	add	x4, x4, #0x0
 2f4:	9102c3e2 	add	x2, sp, #0xb0
 2f8:	528008c1 	mov	w1, #0x46                  	// #70
 2fc:	94000000 	bl	0 <_ZN4core6result13unwrap_failed17h7d932ac07cdd1fc7E>
 300:	d4200020 	brk	#0x1
 304:	90000000 	adrp	x0, 0 <anon.7788f797f7cf28f72c51377fae556ed6.0.llvm.16290411295856443344>
 308:	90000002 	adrp	x2, 0 <anon.7788f797f7cf28f72c51377fae556ed6.2.llvm.16290411295856443344>
 30c:	91000000 	add	x0, x0, #0x0
 310:	91000042 	add	x2, x2, #0x0
 314:	52800501 	mov	w1, #0x28                  	// #40
 318:	94000000 	bl	0 <_ZN3std9panicking11begin_panic17h49f6d6cf9017eacfE>
 31c:	14000010 	b	35c <_ZN10rayon_core8registry9in_worker17ha33dabb53c2f88f6E+0x35c>
 320:	aa0003f3 	mov	x19, x0
 324:	9102c3e0 	add	x0, sp, #0xb0
 328:	94000000 	bl	0 <_ZN10rayon_core8registry9in_worker17ha33dabb53c2f88f6E>
 32c:	14000015 	b	380 <_ZN10rayon_core8registry9in_worker17ha33dabb53c2f88f6E+0x380>
 330:	aa0003f3 	mov	x19, x0
 334:	910283e0 	add	x0, sp, #0xa0
 338:	94000000 	bl	0 <_ZN10rayon_core8registry9in_worker17ha33dabb53c2f88f6E>
 33c:	360001f5 	tbz	w21, #0, 378 <_ZN10rayon_core8registry9in_worker17ha33dabb53c2f88f6E+0x378>
 340:	14000010 	b	380 <_ZN10rayon_core8registry9in_worker17ha33dabb53c2f88f6E+0x380>
 344:	94000000 	bl	0 <_ZN3std9panicking3try7cleanup17h0203421b683548f8E>
 348:	aa0003e2 	mov	x2, x0
 34c:	aa0103e3 	mov	x3, x1
 350:	9100a3e1 	add	x1, sp, #0x28
 354:	aa1403e0 	mov	x0, x20
 358:	94000000 	bl	0 <_ZN10rayon_core4join23join_recover_from_panic17h3239122033fd1cffE>
 35c:	d4200020 	brk	#0x1
 360:	14000001 	b	364 <_ZN10rayon_core8registry9in_worker17ha33dabb53c2f88f6E+0x364>
 364:	aa0003f3 	mov	x19, x0
 368:	14000004 	b	378 <_ZN10rayon_core8registry9in_worker17ha33dabb53c2f88f6E+0x378>
 36c:	aa0003f3 	mov	x19, x0
 370:	910283e0 	add	x0, sp, #0xa0
 374:	94000000 	bl	0 <_ZN10rayon_core8registry9in_worker17ha33dabb53c2f88f6E>
 378:	9100a3e0 	add	x0, sp, #0x28
 37c:	94000000 	bl	0 <_ZN10rayon_core8registry9in_worker17ha33dabb53c2f88f6E>
 380:	aa1303e0 	mov	x0, x19
 384:	94000000 	bl	0 <_Unwind_Resume>
 388:	d4200020 	brk	#0x1

Disassembly of section .text._ZN10rayon_core8registry9in_worker17hc7b140a04980a751E:

0000000000000000 <_ZN10rayon_core8registry9in_worker17hc7b140a04980a751E>:
   0:	a9bb7bfd 	stp	x29, x30, [sp,#-80]!
   4:	a90167fa 	stp	x26, x25, [sp,#16]
   8:	a9025ff8 	stp	x24, x23, [sp,#32]
   c:	a90357f6 	stp	x22, x21, [sp,#48]
  10:	a9044ff4 	stp	x20, x19, [sp,#64]
  14:	d10903ff 	sub	sp, sp, #0x240
  18:	aa0003f5 	mov	x21, x0
  1c:	aa0803f3 	mov	x19, x8
  20:	94000000 	bl	0 <_ZN10rayon_core8registry19WORKER_THREAD_STATE7__getit17h4f910a206b76a4f3E>
  24:	b4001a80 	cbz	x0, 374 <_ZN10rayon_core8registry9in_worker17hc7b140a04980a751E+0x374>
  28:	f9400014 	ldr	x20, [x0]
  2c:	910303f6 	add	x22, sp, #0xc0
  30:	b4000a94 	cbz	x20, 180 <_ZN10rayon_core8registry9in_worker17hc7b140a04980a751E+0x180>
  34:	ad4016a0 	ldp	q0, q5, [x21]
  38:	ad4106a7 	ldp	q7, q1, [x21,#32]
  3c:	ad420ab1 	ldp	q17, q2, [x21,#64]
  40:	ad4412a3 	ldp	q3, q4, [x21,#128]
  44:	ad0696c0 	stp	q0, q5, [x22,#208]
  48:	ad0786c7 	stp	q7, q1, [x22,#240]
  4c:	ad4316a1 	ldp	q1, q5, [x21,#96]
  50:	f94052a8 	ldr	x8, [x21,#160]
  54:	ad088ad1 	stp	q17, q2, [x22,#272]
  58:	ad0a92c3 	stp	q3, q4, [x22,#336]
  5c:	ad0996c1 	stp	q1, q5, [x22,#304]
  60:	f9011be8 	str	x8, [sp,#560]
  64:	ad4042a6 	ldp	q6, q16, [x21]
  68:	ad4182b2 	ldp	q18, q0, [x21,#48]
  6c:	3dc00aa2 	ldr	q2, [x21,#32]
  70:	f9402aaa 	ldr	x10, [x21,#80]
  74:	f9409288 	ldr	x8, [x20,#288]
  78:	9104c289 	add	x9, x20, #0x130
  7c:	a900a7ff 	stp	xzr, x9, [sp,#8]
  80:	390083ff 	strb	wzr, [sp,#32]
  84:	3c8383f0 	stur	q16, [sp,#56]
  88:	3c8283e6 	stur	q6, [sp,#40]
  8c:	3c8683e0 	stur	q0, [sp,#104]
  90:	3c8583f2 	stur	q18, [sp,#88]
  94:	3c8483e2 	stur	q2, [sp,#72]
  98:	a907ffea 	stp	x10, xzr, [sp,#120]
  9c:	f9000fe8 	str	x8, [sp,#24]
  a0:	f9408288 	ldr	x8, [x20,#256]
  a4:	91040295 	add	x21, x20, #0x100
  a8:	f9408519 	ldr	x25, [x8,#264]
  ac:	91040108 	add	x8, x8, #0x100
  b0:	c8dffd1a 	ldar	x26, [x8]
  b4:	f9408288 	ldr	x8, [x20,#256]
  b8:	f9408518 	ldr	x24, [x8,#264]
  bc:	91040108 	add	x8, x8, #0x100
  c0:	c8dffd09 	ldar	x9, [x8]
  c4:	f9408a88 	ldr	x8, [x20,#272]
  c8:	cb090309 	sub	x9, x24, x9
  cc:	eb08013f 	cmp	x9, x8
  d0:	540000ab 	b.lt	e4 <_ZN10rayon_core8registry9in_worker17hc7b140a04980a751E+0xe4>
  d4:	d37ff901 	lsl	x1, x8, #1
  d8:	aa1503e0 	mov	x0, x21
  dc:	94000000 	bl	0 <_ZN15crossbeam_deque5deque15Worker$LT$T$GT$6resize17h356162248feccb3cE.llvm.1173454447793668956>
  e0:	f9408a88 	ldr	x8, [x20,#272]
  e4:	f9408689 	ldr	x9, [x20,#264]
  e8:	d1000508 	sub	x8, x8, #0x1
  ec:	8a180108 	and	x8, x8, x24
  f0:	90000017 	adrp	x23, 0 <_ZN83_$LT$rayon_core..job..StackJob$LT$L$C$F$C$R$GT$$u20$as$u20$rayon_core..job..Job$GT$7execute17h4b4187afd03db4fdE.llvm.16290411295856443344>
  f4:	8b081128 	add	x8, x9, x8, lsl #4
  f8:	910023e9 	add	x9, sp, #0x8
  fc:	910002f7 	add	x23, x23, #0x0
 100:	f9000109 	str	x9, [x8]
 104:	f9000517 	str	x23, [x8,#8]
 108:	d5033bbf 	dmb	ish
 10c:	f9408288 	ldr	x8, [x20,#256]
 110:	91000709 	add	x9, x24, #0x1
 114:	910643f8 	add	x24, sp, #0x190
 118:	91042108 	add	x8, x8, #0x108
 11c:	c89ffd09 	stlr	x9, [x8]
 120:	f9409a89 	ldr	x9, [x20,#304]
 124:	cb1a0328 	sub	x8, x25, x26
 128:	9106a120 	add	x0, x9, #0x1a8
 12c:	9107412a 	add	x10, x9, #0x1d0
 130:	c8dffd4b 	ldar	x11, [x10]
 134:	37a0016b 	tbnz	w11, #20, 160 <_ZN10rayon_core8registry9in_worker17hc7b140a04980a751E+0x160>
 138:	91440169 	add	x9, x11, #0x100, lsl #12
 13c:	c85ffd4c 	ldaxr	x12, [x10]
 140:	eb0b019f 	cmp	x12, x11
 144:	54000081 	b.ne	154 <_ZN10rayon_core8registry9in_worker17hc7b140a04980a751E+0x154>
 148:	c80cfd49 	stlxr	w12, x9, [x10]
 14c:	35ffff8c 	cbnz	w12, 13c <_ZN10rayon_core8registry9in_worker17hc7b140a04980a751E+0x13c>
 150:	14000005 	b	164 <_ZN10rayon_core8registry9in_worker17hc7b140a04980a751E+0x164>
 154:	d5033f5f 	clrex
 158:	c8dffd4b 	ldar	x11, [x10]
 15c:	36a7feeb 	tbz	w11, #20, 138 <_ZN10rayon_core8registry9in_worker17hc7b140a04980a751E+0x138>
 160:	aa0b03e9 	mov	x9, x11
 164:	9240252a 	and	x10, x9, #0x3ff
 168:	b400046a 	cbz	x10, 1f4 <_ZN10rayon_core8registry9in_worker17hc7b140a04980a751E+0x1f4>
 16c:	f100011f 	cmp	x8, #0x0
 170:	5400038d 	b.le	1e0 <_ZN10rayon_core8registry9in_worker17hc7b140a04980a751E+0x1e0>
 174:	52800021 	mov	w1, #0x1                   	// #1
 178:	94000000 	bl	0 <_ZN10rayon_core5sleep5Sleep16wake_any_threads17hf99abf617ce5bd7dE>
 17c:	1400001e 	b	1f4 <_ZN10rayon_core8registry9in_worker17hc7b140a04980a751E+0x1f4>
 180:	94000000 	bl	0 <_ZN10rayon_core8registry15global_registry17hc2ef0caf75be1eb1E>
 184:	ad4006a0 	ldp	q0, q1, [x21]
 188:	f9400008 	ldr	x8, [x0]
 18c:	ad420ea2 	ldp	q2, q3, [x21,#64]
 190:	f94052a9 	ldr	x9, [x21,#160]
 194:	ad0686c0 	stp	q0, q1, [x22,#208]
 198:	ad4106a0 	ldp	q0, q1, [x21,#32]
 19c:	ad088ec2 	stp	q2, q3, [x22,#272]
 1a0:	ad430ea2 	ldp	q2, q3, [x21,#96]
 1a4:	91020108 	add	x8, x8, #0x80
 1a8:	ad0786c0 	stp	q0, q1, [x22,#240]
 1ac:	ad4406a0 	ldp	q0, q1, [x21,#128]
 1b0:	90000000 	adrp	x0, 0 <_ZN10rayon_core8registry9in_worker17hc7b140a04980a751E>
 1b4:	f9011be9 	str	x9, [sp,#560]
 1b8:	9103c3e9 	add	x9, sp, #0xf0
 1bc:	f9007be8 	str	x8, [sp,#240]
 1c0:	91000000 	add	x0, x0, #0x0
 1c4:	910643e1 	add	x1, sp, #0x190
 1c8:	aa1303e8 	mov	x8, x19
 1cc:	ad0a86c0 	stp	q0, q1, [x22,#336]
 1d0:	ad098ec2 	stp	q2, q3, [x22,#304]
 1d4:	f9011fe9 	str	x9, [sp,#568]
 1d8:	94000000 	bl	0 <_ZN3std6thread5local17LocalKey$LT$T$GT$4with17hf425138533591628E>
 1dc:	1400005c 	b	34c <_ZN10rayon_core8registry9in_worker17hc7b140a04980a751E+0x34c>
 1e0:	d34a4d28 	ubfx	x8, x9, #10, #10
 1e4:	cb0a0108 	sub	x8, x8, x10
 1e8:	35000068 	cbnz	w8, 1f4 <_ZN10rayon_core8registry9in_worker17hc7b140a04980a751E+0x1f4>
 1ec:	52800021 	mov	w1, #0x1                   	// #1
 1f0:	94000000 	bl	0 <_ZN10rayon_core5sleep5Sleep16wake_any_threads17hf99abf617ce5bd7dE>
 1f4:	3cc68300 	ldur	q0, [x24,#104]
 1f8:	3cc78301 	ldur	q1, [x24,#120]
 1fc:	3cc88302 	ldur	q2, [x24,#136]
 200:	3cc98303 	ldur	q3, [x24,#152]
 204:	3cc58304 	ldur	q4, [x24,#88]
 208:	ad028ac1 	stp	q1, q2, [x22,#80]
 20c:	3d801ec3 	str	q3, [x22,#112]
 210:	ad0182c4 	stp	q4, q0, [x22,#48]
 214:	390503ff 	strb	wzr, [sp,#320]
 218:	910283e8 	add	x8, sp, #0xa0
 21c:	9103c3e0 	add	x0, sp, #0xf0
 220:	910283f8 	add	x24, sp, #0xa0
 224:	94000000 	bl	0 <_ZN3std9panicking3try17h984552576b1ee727E>
 228:	f94053e8 	ldr	x8, [sp,#160]
 22c:	f100051f 	cmp	x8, #0x1
 230:	54000b60 	b.eq	39c <_ZN10rayon_core8registry9in_worker17hc7b140a04980a751E+0x39c>
 234:	91002308 	add	x8, x24, #0x8
 238:	f9400909 	ldr	x9, [x8,#16]
 23c:	3dc00100 	ldr	q0, [x8]
 240:	910023f8 	add	x24, sp, #0x8
 244:	f9006be9 	str	x9, [sp,#208]
 248:	3d8002c0 	str	q0, [x22]
 24c:	14000002 	b	254 <_ZN10rayon_core8registry9in_worker17hc7b140a04980a751E+0x254>
 250:	d63f0020 	blr	x1
 254:	c8dfff08 	ldar	x8, [x24]
 258:	f1000d1f 	cmp	x8, #0x3
 25c:	540005c0 	b.eq	314 <_ZN10rayon_core8registry9in_worker17hc7b140a04980a751E+0x314>
 260:	aa1503e0 	mov	x0, x21
 264:	94000000 	bl	0 <_ZN15crossbeam_deque5deque15Worker$LT$T$GT$3pop17he9480c323ec38c84E>
 268:	b4000461 	cbz	x1, 2f4 <_ZN10rayon_core8registry9in_worker17hc7b140a04980a751E+0x2f4>
 26c:	eb18001f 	cmp	x0, x24
 270:	54ffff01 	b.ne	250 <_ZN10rayon_core8registry9in_worker17hc7b140a04980a751E+0x250>
 274:	eb17003f 	cmp	x1, x23
 278:	54fffec1 	b.ne	250 <_ZN10rayon_core8registry9in_worker17hc7b140a04980a751E+0x250>
 27c:	3cc683e0 	ldur	q0, [sp,#104]
 280:	3cc783e1 	ldur	q1, [sp,#120]
 284:	3cc883e2 	ldur	q2, [sp,#136]
 288:	3cc283e3 	ldur	q3, [sp,#40]
 28c:	3cc383e4 	ldur	q4, [sp,#56]
 290:	f9404fe8 	ldr	x8, [sp,#152]
 294:	ad0486c0 	stp	q0, q1, [x22,#144]
 298:	3d802ec2 	str	q2, [x22,#176]
 29c:	3cc483e0 	ldur	q0, [sp,#72]
 2a0:	3cc583e1 	ldur	q1, [sp,#88]
 2a4:	ad0292c3 	stp	q3, q4, [x22,#80]
 2a8:	3cc083e2 	ldur	q2, [sp,#8]
 2ac:	3cc183e3 	ldur	q3, [sp,#24]
 2b0:	52800035 	mov	w21, #0x1                   	// #1
 2b4:	ad0386c0 	stp	q0, q1, [x22,#112]
 2b8:	f900c3e8 	str	x8, [sp,#384]
 2bc:	ad018ec2 	stp	q2, q3, [x22,#48]
 2c0:	910363e8 	add	x8, sp, #0xd8
 2c4:	9103c3e0 	add	x0, sp, #0xf0
 2c8:	2a1f03e1 	mov	w1, wzr
 2cc:	94000000 	bl	0 <_ZN10rayon_core3job25StackJob$LT$L$C$F$C$R$GT$10run_inline17h115944c7f99be13aE>
 2d0:	f9406be8 	ldr	x8, [sp,#208]
 2d4:	3dc002c0 	ldr	q0, [x22]
 2d8:	f94077e9 	ldr	x9, [sp,#232]
 2dc:	3ccd83e1 	ldur	q1, [sp,#216]
 2e0:	f9000a68 	str	x8, [x19,#16]
 2e4:	3d800260 	str	q0, [x19]
 2e8:	f9001669 	str	x9, [x19,#40]
 2ec:	3c818261 	stur	q1, [x19,#24]
 2f0:	14000017 	b	34c <_ZN10rayon_core8registry9in_worker17hc7b140a04980a751E+0x34c>
 2f4:	910023e8 	add	x8, sp, #0x8
 2f8:	c8dffd08 	ldar	x8, [x8]
 2fc:	f1000d1f 	cmp	x8, #0x3
 300:	540000a0 	b.eq	314 <_ZN10rayon_core8registry9in_worker17hc7b140a04980a751E+0x314>
 304:	910023e1 	add	x1, sp, #0x8
 308:	aa1403e0 	mov	x0, x20
 30c:	2a1f03f5 	mov	w21, wzr
 310:	94000000 	bl	0 <_ZN10rayon_core8registry12WorkerThread15wait_until_cold17h247d61e1f4b74d9eE>
 314:	a94803e8 	ldp	x8, x0, [sp,#128]
 318:	3dc002c0 	ldr	q0, [x22]
 31c:	f9406be9 	ldr	x9, [sp,#208]
 320:	f9404be1 	ldr	x1, [sp,#144]
 324:	f100051f 	cmp	x8, #0x1
 328:	3d800ec0 	str	q0, [x22,#48]
 32c:	f90083e9 	str	x9, [sp,#256]
 330:	540001c1 	b.ne	368 <_ZN10rayon_core8registry9in_worker17hc7b140a04980a751E+0x368>
 334:	3dc00ec0 	ldr	q0, [x22,#48]
 338:	f94083e8 	ldr	x8, [sp,#256]
 33c:	f9404fe9 	ldr	x9, [sp,#152]
 340:	3d800260 	str	q0, [x19]
 344:	a9010268 	stp	x8, x0, [x19,#16]
 348:	a9022661 	stp	x1, x9, [x19,#32]
 34c:	910903ff 	add	sp, sp, #0x240
 350:	a9444ff4 	ldp	x20, x19, [sp,#64]
 354:	a94357f6 	ldp	x22, x21, [sp,#48]
 358:	a9425ff8 	ldp	x24, x23, [sp,#32]
 35c:	a94167fa 	ldp	x26, x25, [sp,#16]
 360:	a8c57bfd 	ldp	x29, x30, [sp],#80
 364:	d65f03c0 	ret
 368:	b4000248 	cbz	x8, 3b0 <_ZN10rayon_core8registry9in_worker17hc7b140a04980a751E+0x3b0>
 36c:	94000000 	bl	0 <_ZN10rayon_core6unwind16resume_unwinding17h96957761123900f4E>
 370:	14000016 	b	3c8 <_ZN10rayon_core8registry9in_worker17hc7b140a04980a751E+0x3c8>
 374:	90000000 	adrp	x0, 0 <anon.db2b10df3057192c385b8a00c302314f.0.llvm.7836057303592255489>
 378:	90000003 	adrp	x3, 0 <anon.db2b10df3057192c385b8a00c302314f.9.llvm.7836057303592255489>
 37c:	90000004 	adrp	x4, 0 <anon.db2b10df3057192c385b8a00c302314f.2.llvm.7836057303592255489>
 380:	91000000 	add	x0, x0, #0x0
 384:	91000063 	add	x3, x3, #0x0
 388:	91000084 	add	x4, x4, #0x0
 38c:	910643e2 	add	x2, sp, #0x190
 390:	528008c1 	mov	w1, #0x46                  	// #70
 394:	94000000 	bl	0 <_ZN4core6result13unwrap_failed17h7d932ac07cdd1fc7E>
 398:	d4200020 	brk	#0x1
 39c:	a94a8fe2 	ldp	x2, x3, [sp,#168]
 3a0:	910023e1 	add	x1, sp, #0x8
 3a4:	aa1403e0 	mov	x0, x20
 3a8:	94000000 	bl	0 <_ZN10rayon_core4join23join_recover_from_panic17h3239122033fd1cffE>
 3ac:	14000007 	b	3c8 <_ZN10rayon_core8registry9in_worker17hc7b140a04980a751E+0x3c8>
 3b0:	90000000 	adrp	x0, 0 <anon.7788f797f7cf28f72c51377fae556ed6.0.llvm.16290411295856443344>
 3b4:	90000002 	adrp	x2, 0 <anon.7788f797f7cf28f72c51377fae556ed6.2.llvm.16290411295856443344>
 3b8:	91000000 	add	x0, x0, #0x0
 3bc:	91000042 	add	x2, x2, #0x0
 3c0:	52800501 	mov	w1, #0x28                  	// #40
 3c4:	94000000 	bl	0 <_ZN3std9panicking11begin_panic17h49f6d6cf9017eacfE>
 3c8:	d4200020 	brk	#0x1
 3cc:	1400000a 	b	3f4 <_ZN10rayon_core8registry9in_worker17hc7b140a04980a751E+0x3f4>
 3d0:	aa0003f3 	mov	x19, x0
 3d4:	9103c3e0 	add	x0, sp, #0xf0
 3d8:	94000000 	bl	0 <_ZN10rayon_core8registry9in_worker17hc7b140a04980a751E>
 3dc:	1400000d 	b	410 <_ZN10rayon_core8registry9in_worker17hc7b140a04980a751E+0x410>
 3e0:	aa0003f3 	mov	x19, x0
 3e4:	910303e0 	add	x0, sp, #0xc0
 3e8:	94000000 	bl	0 <_ZN10rayon_core8registry9in_worker17hc7b140a04980a751E>
 3ec:	360000f5 	tbz	w21, #0, 408 <_ZN10rayon_core8registry9in_worker17hc7b140a04980a751E+0x408>
 3f0:	14000008 	b	410 <_ZN10rayon_core8registry9in_worker17hc7b140a04980a751E+0x410>
 3f4:	aa0003f3 	mov	x19, x0
 3f8:	14000004 	b	408 <_ZN10rayon_core8registry9in_worker17hc7b140a04980a751E+0x408>
 3fc:	aa0003f3 	mov	x19, x0
 400:	910303e0 	add	x0, sp, #0xc0
 404:	94000000 	bl	0 <_ZN10rayon_core8registry9in_worker17hc7b140a04980a751E>
 408:	910023e0 	add	x0, sp, #0x8
 40c:	94000000 	bl	0 <_ZN10rayon_core8registry9in_worker17hc7b140a04980a751E>
 410:	aa1303e0 	mov	x0, x19
 414:	94000000 	bl	0 <_Unwind_Resume>
 418:	d4200020 	brk	#0x1

Disassembly of section .text._ZN110_$LT$rayon..iter..fold..FoldConsumer$LT$C$C$ID$C$F$GT$$u20$as$u20$rayon..iter..plumbing..Consumer$LT$T$GT$$GT$11into_folder17h9c5166de56f3883dE:

0000000000000000 <_ZN110_$LT$rayon..iter..fold..FoldConsumer$LT$C$C$ID$C$F$GT$$u20$as$u20$rayon..iter..plumbing..Consumer$LT$T$GT$$GT$11into_folder17h9c5166de56f3883dE>:
   0:	a940a809 	ldp	x9, x10, [x0,#8]
   4:	f9400c0b 	ldr	x11, [x0,#24]
   8:	5280010c 	mov	w12, #0x8                   	// #8
   c:	a9017d1f 	stp	xzr, xzr, [x8,#16]
  10:	a903fd1f 	stp	xzr, xzr, [x8,#56]
  14:	a9007d09 	stp	x9, xzr, [x8]
  18:	a9022d0a 	stp	x10, x11, [x8,#32]
  1c:	f900190c 	str	x12, [x8,#48]
  20:	d65f03c0 	ret

Disassembly of section .text._ZN110_$LT$rayon..iter..fold..FoldConsumer$LT$C$C$ID$C$F$GT$$u20$as$u20$rayon..iter..plumbing..Consumer$LT$T$GT$$GT$4full17h45df92889ab187cbE:

0000000000000000 <_ZN110_$LT$rayon..iter..fold..FoldConsumer$LT$C$C$ID$C$F$GT$$u20$as$u20$rayon..iter..plumbing..Consumer$LT$T$GT$$GT$4full17h45df92889ab187cbE>:
   0:	2a1f03e0 	mov	w0, wzr
   4:	d65f03c0 	ret

Disassembly of section .text._ZN110_$LT$rayon..iter..fold..FoldConsumer$LT$C$C$ID$C$F$GT$$u20$as$u20$rayon..iter..plumbing..Consumer$LT$T$GT$$GT$8split_at17h714bfb28294b7dcfE:

0000000000000000 <_ZN110_$LT$rayon..iter..fold..FoldConsumer$LT$C$C$ID$C$F$GT$$u20$as$u20$rayon..iter..plumbing..Consumer$LT$T$GT$$GT$8split_at17h714bfb28294b7dcfE>:
   0:	a9402809 	ldp	x9, x10, [x0]
   4:	a941300b 	ldp	x11, x12, [x0,#16]
   8:	f940100d 	ldr	x13, [x0,#32]
   c:	a9002909 	stp	x9, x10, [x8]
  10:	a901310b 	stp	x11, x12, [x8,#16]
  14:	a902250d 	stp	x13, x9, [x8,#32]
  18:	a9032d0a 	stp	x10, x11, [x8,#48]
  1c:	a904350c 	stp	x12, x13, [x8,#64]
  20:	a9052909 	stp	x9, x10, [x8,#80]
  24:	d65f03c0 	ret

Disassembly of section .text._ZN110_$LT$rayon..iter..reduce..ReduceConsumer$LT$R$C$ID$GT$$u20$as$u20$rayon..iter..plumbing..Consumer$LT$T$GT$$GT$11into_folder17h4a5440cd1fdbd701E:

0000000000000000 <_ZN110_$LT$rayon..iter..reduce..ReduceConsumer$LT$R$C$ID$GT$$u20$as$u20$rayon..iter..plumbing..Consumer$LT$T$GT$$GT$11into_folder17h4a5440cd1fdbd701E>:
   0:	a9007d01 	stp	x1, xzr, [x8]
   4:	a9017d1f 	stp	xzr, xzr, [x8,#16]
   8:	d65f03c0 	ret

Disassembly of section .text._ZN110_$LT$rayon..iter..reduce..ReduceConsumer$LT$R$C$ID$GT$$u20$as$u20$rayon..iter..plumbing..Consumer$LT$T$GT$$GT$4full17h4c1bfa0c72bed913E:

0000000000000000 <_ZN110_$LT$rayon..iter..reduce..ReduceConsumer$LT$R$C$ID$GT$$u20$as$u20$rayon..iter..plumbing..Consumer$LT$T$GT$$GT$4full17h4c1bfa0c72bed913E>:
   0:	2a1f03e0 	mov	w0, wzr
   4:	d65f03c0 	ret

Disassembly of section .text._ZN110_$LT$rayon..iter..reduce..ReduceConsumer$LT$R$C$ID$GT$$u20$as$u20$rayon..iter..plumbing..Consumer$LT$T$GT$$GT$8split_at17ha3a9dbb3eeba7f90E:

0000000000000000 <_ZN110_$LT$rayon..iter..reduce..ReduceConsumer$LT$R$C$ID$GT$$u20$as$u20$rayon..iter..plumbing..Consumer$LT$T$GT$$GT$8split_at17ha3a9dbb3eeba7f90E>:
   0:	a9000500 	stp	x0, x1, [x8]
   4:	a9010500 	stp	x0, x1, [x8,#16]
   8:	a9020500 	stp	x0, x1, [x8,#32]
   c:	d65f03c0 	ret

Disassembly of section .text._ZN4core3ptr13drop_in_place17h32f554acc0888400E:

0000000000000000 <_ZN4core3ptr13drop_in_place17h32f554acc0888400E>:
   0:	a9bd5ffe 	stp	x30, x23, [sp,#-48]!
   4:	a90157f6 	stp	x22, x21, [sp,#16]
   8:	a9024ff4 	stp	x20, x19, [sp,#32]
   c:	f9403008 	ldr	x8, [x0,#96]
  10:	b40004c8 	cbz	x8, a8 <_ZN4core3ptr13drop_in_place17h32f554acc0888400E+0xa8>
  14:	aa0003f3 	mov	x19, x0
  18:	f100051f 	cmp	x8, #0x1
  1c:	540002e1 	b.ne	78 <_ZN4core3ptr13drop_in_place17h32f554acc0888400E+0x78>
  20:	a946a668 	ldp	x8, x9, [x19,#104]
  24:	5280030a 	mov	w10, #0x18                  	// #24
  28:	9b0a7d29 	mul	x9, x9, x10
  2c:	d1006134 	sub	x20, x9, #0x18
  30:	91006116 	add	x22, x8, #0x18
  34:	b100629f 	cmn	x20, #0x18
  38:	54000380 	b.eq	a8 <_ZN4core3ptr13drop_in_place17h32f554acc0888400E+0xa8>
  3c:	f9400909 	ldr	x9, [x8,#16]
  40:	aa1403f5 	mov	x21, x20
  44:	aa1603f3 	mov	x19, x22
  48:	d37afd29 	lsr	x9, x9, #58
  4c:	b5000369 	cbnz	x9, b8 <_ZN4core3ptr13drop_in_place17h32f554acc0888400E+0xb8>
  50:	f9400509 	ldr	x9, [x8,#8]
  54:	d10062b4 	sub	x20, x21, #0x18
  58:	91006276 	add	x22, x19, #0x18
  5c:	91006117 	add	x23, x8, #0x18
  60:	92400929 	and	x9, x9, #0x7
  64:	f9000509 	str	x9, [x8,#8]
  68:	aa0803e0 	mov	x0, x8
  6c:	94000000 	bl	0 <_ZN6bitvec3vec19BitVec$LT$O$C$T$GT$8with_vec17hd029b1133e4d954cE>
  70:	aa1703e8 	mov	x8, x23
  74:	17fffff0 	b	34 <_ZN4core3ptr13drop_in_place17h32f554acc0888400E+0x34>
  78:	a946a260 	ldp	x0, x8, [x19,#104]
  7c:	f9400108 	ldr	x8, [x8]
  80:	d63f0100 	blr	x8
  84:	f9403a68 	ldr	x8, [x19,#112]
  88:	f9400501 	ldr	x1, [x8,#8]
  8c:	b40000e1 	cbz	x1, a8 <_ZN4core3ptr13drop_in_place17h32f554acc0888400E+0xa8>
  90:	f9403660 	ldr	x0, [x19,#104]
  94:	f9400902 	ldr	x2, [x8,#16]
  98:	a9424ff4 	ldp	x20, x19, [sp,#32]
  9c:	a94157f6 	ldp	x22, x21, [sp,#16]
  a0:	a8c35ffe 	ldp	x30, x23, [sp],#48
  a4:	14000000 	b	0 <__rust_dealloc>
  a8:	a9424ff4 	ldp	x20, x19, [sp,#32]
  ac:	a94157f6 	ldp	x22, x21, [sp,#16]
  b0:	a8c35ffe 	ldp	x30, x23, [sp],#48
  b4:	d65f03c0 	ret
  b8:	90000000 	adrp	x0, 0 <anon.7ec6c23f66af455d80129188e54c088e.7.llvm.16365666833129853675>
  bc:	90000002 	adrp	x2, 0 <anon.7ec6c23f66af455d80129188e54c088e.8.llvm.16365666833129853675>
  c0:	91000000 	add	x0, x0, #0x0
  c4:	91000042 	add	x2, x2, #0x0
  c8:	52800301 	mov	w1, #0x18                  	// #24
  cc:	94000000 	bl	0 <_ZN4core6option13expect_failed17hc91abc95c5a246ebE>
  d0:	d4200020 	brk	#0x1
  d4:	14000006 	b	ec <_ZN4core3ptr13drop_in_place17h32f554acc0888400E+0xec>
  d8:	a9468668 	ldp	x8, x1, [x19,#104]
  dc:	aa0003f4 	mov	x20, x0
  e0:	aa0803e0 	mov	x0, x8
  e4:	94000000 	bl	0 <_ZN4core3ptr13drop_in_place17h32f554acc0888400E>
  e8:	14000009 	b	10c <_ZN4core3ptr13drop_in_place17h32f554acc0888400E+0x10c>
  ec:	aa0003f4 	mov	x20, x0
  f0:	b40000f5 	cbz	x21, 10c <_ZN4core3ptr13drop_in_place17h32f554acc0888400E+0x10c>
  f4:	aa1303e0 	mov	x0, x19
  f8:	91006276 	add	x22, x19, #0x18
  fc:	94000000 	bl	0 <_ZN4core3ptr13drop_in_place17h52626138cea8f2b9E.llvm.16365666833129853675>
 100:	f10062b5 	subs	x21, x21, #0x18
 104:	aa1603f3 	mov	x19, x22
 108:	54ffff61 	b.ne	f4 <_ZN4core3ptr13drop_in_place17h32f554acc0888400E+0xf4>
 10c:	aa1403e0 	mov	x0, x20
 110:	94000000 	bl	0 <_Unwind_Resume>
 114:	d4200020 	brk	#0x1

Disassembly of section .text._ZN4core3ptr13drop_in_place17h3aeb0071b4ef60b1E:

0000000000000000 <_ZN4core3ptr13drop_in_place17h3aeb0071b4ef60b1E>:
   0:	14000000 	b	0 <_ZN94_$LT$alloc..collections..linked_list..LinkedList$LT$T$GT$$u20$as$u20$core..ops..drop..Drop$GT$4drop17h5831681bbd6595d2E>

Disassembly of section .text._ZN4core3ptr13drop_in_place17h551fcc9845b36f1dE:

0000000000000000 <_ZN4core3ptr13drop_in_place17h551fcc9845b36f1dE>:
   0:	a9bf4ffe 	stp	x30, x19, [sp,#-16]!
   4:	f9403c08 	ldr	x8, [x0,#120]
   8:	b4000228 	cbz	x8, 4c <_ZN4core3ptr13drop_in_place17h551fcc9845b36f1dE+0x4c>
   c:	aa0003f3 	mov	x19, x0
  10:	f100051f 	cmp	x8, #0x1
  14:	54000081 	b.ne	24 <_ZN4core3ptr13drop_in_place17h551fcc9845b36f1dE+0x24>
  18:	91020260 	add	x0, x19, #0x80
  1c:	a8c14ffe 	ldp	x30, x19, [sp],#16
  20:	14000000 	b	0 <_ZN94_$LT$alloc..collections..linked_list..LinkedList$LT$T$GT$$u20$as$u20$core..ops..drop..Drop$GT$4drop17h5831681bbd6595d2E>
  24:	a9482260 	ldp	x0, x8, [x19,#128]
  28:	f9400108 	ldr	x8, [x8]
  2c:	d63f0100 	blr	x8
  30:	f9404668 	ldr	x8, [x19,#136]
  34:	f9400501 	ldr	x1, [x8,#8]
  38:	b40000a1 	cbz	x1, 4c <_ZN4core3ptr13drop_in_place17h551fcc9845b36f1dE+0x4c>
  3c:	f9404260 	ldr	x0, [x19,#128]
  40:	f9400902 	ldr	x2, [x8,#16]
  44:	a8c14ffe 	ldp	x30, x19, [sp],#16
  48:	14000000 	b	0 <__rust_dealloc>
  4c:	a8c14ffe 	ldp	x30, x19, [sp],#16
  50:	d65f03c0 	ret
  54:	a9480668 	ldp	x8, x1, [x19,#128]
  58:	aa0003f3 	mov	x19, x0
  5c:	aa0803e0 	mov	x0, x8
  60:	94000000 	bl	0 <_ZN4core3ptr13drop_in_place17h551fcc9845b36f1dE>
  64:	aa1303e0 	mov	x0, x19
  68:	94000000 	bl	0 <_Unwind_Resume>
  6c:	d4200020 	brk	#0x1

Disassembly of section .text._ZN4core3ptr13drop_in_place17hab293c7997335421E:

0000000000000000 <_ZN4core3ptr13drop_in_place17hab293c7997335421E>:
   0:	a9bd5ffe 	stp	x30, x23, [sp,#-48]!
   4:	a90157f6 	stp	x22, x21, [sp,#16]
   8:	a9024ff4 	stp	x20, x19, [sp,#32]
   c:	a9402408 	ldp	x8, x9, [x0]
  10:	5280030a 	mov	w10, #0x18                  	// #24
  14:	9b0a7d29 	mul	x9, x9, x10
  18:	d1006134 	sub	x20, x9, #0x18
  1c:	91006116 	add	x22, x8, #0x18
  20:	b100629f 	cmn	x20, #0x18
  24:	54000200 	b.eq	64 <_ZN4core3ptr13drop_in_place17hab293c7997335421E+0x64>
  28:	f9400909 	ldr	x9, [x8,#16]
  2c:	aa1403f5 	mov	x21, x20
  30:	aa1603f3 	mov	x19, x22
  34:	d37afd29 	lsr	x9, x9, #58
  38:	b50001e9 	cbnz	x9, 74 <_ZN4core3ptr13drop_in_place17hab293c7997335421E+0x74>
  3c:	f9400509 	ldr	x9, [x8,#8]
  40:	d10062b4 	sub	x20, x21, #0x18
  44:	91006276 	add	x22, x19, #0x18
  48:	91006117 	add	x23, x8, #0x18
  4c:	92400929 	and	x9, x9, #0x7
  50:	f9000509 	str	x9, [x8,#8]
  54:	aa0803e0 	mov	x0, x8
  58:	94000000 	bl	0 <_ZN6bitvec3vec19BitVec$LT$O$C$T$GT$8with_vec17hd029b1133e4d954cE>
  5c:	aa1703e8 	mov	x8, x23
  60:	17fffff0 	b	20 <_ZN4core3ptr13drop_in_place17hab293c7997335421E+0x20>
  64:	a9424ff4 	ldp	x20, x19, [sp,#32]
  68:	a94157f6 	ldp	x22, x21, [sp,#16]
  6c:	a8c35ffe 	ldp	x30, x23, [sp],#48
  70:	d65f03c0 	ret
  74:	90000000 	adrp	x0, 0 <anon.7ec6c23f66af455d80129188e54c088e.7.llvm.16365666833129853675>
  78:	90000002 	adrp	x2, 0 <anon.7ec6c23f66af455d80129188e54c088e.8.llvm.16365666833129853675>
  7c:	91000000 	add	x0, x0, #0x0
  80:	91000042 	add	x2, x2, #0x0
  84:	52800301 	mov	w1, #0x18                  	// #24
  88:	94000000 	bl	0 <_ZN4core6option13expect_failed17hc91abc95c5a246ebE>
  8c:	d4200020 	brk	#0x1
  90:	14000001 	b	94 <_ZN4core3ptr13drop_in_place17hab293c7997335421E+0x94>
  94:	aa0003f4 	mov	x20, x0
  98:	b40000f5 	cbz	x21, b4 <_ZN4core3ptr13drop_in_place17hab293c7997335421E+0xb4>
  9c:	aa1303e0 	mov	x0, x19
  a0:	91006276 	add	x22, x19, #0x18
  a4:	94000000 	bl	0 <_ZN4core3ptr13drop_in_place17h52626138cea8f2b9E.llvm.16365666833129853675>
  a8:	f10062b5 	subs	x21, x21, #0x18
  ac:	aa1603f3 	mov	x19, x22
  b0:	54ffff61 	b.ne	9c <_ZN4core3ptr13drop_in_place17hab293c7997335421E+0x9c>
  b4:	aa1403e0 	mov	x0, x20
  b8:	94000000 	bl	0 <_Unwind_Resume>
  bc:	d4200020 	brk	#0x1

Disassembly of section .text._ZN4core3ptr13drop_in_place17hb166669170a81697E:

0000000000000000 <_ZN4core3ptr13drop_in_place17hb166669170a81697E>:
   0:	a9bf4ffe 	stp	x30, x19, [sp,#-16]!
   4:	f9403408 	ldr	x8, [x0,#104]
   8:	f100091f 	cmp	x8, #0x2
   c:	54000183 	b.cc	3c <_ZN4core3ptr13drop_in_place17hb166669170a81697E+0x3c>
  10:	aa0003f3 	mov	x19, x0
  14:	a9472000 	ldp	x0, x8, [x0,#112]
  18:	f9400108 	ldr	x8, [x8]
  1c:	d63f0100 	blr	x8
  20:	f9403e68 	ldr	x8, [x19,#120]
  24:	f9400501 	ldr	x1, [x8,#8]
  28:	b40000a1 	cbz	x1, 3c <_ZN4core3ptr13drop_in_place17hb166669170a81697E+0x3c>
  2c:	f9403a60 	ldr	x0, [x19,#112]
  30:	f9400902 	ldr	x2, [x8,#16]
  34:	a8c14ffe 	ldp	x30, x19, [sp],#16
  38:	14000000 	b	0 <__rust_dealloc>
  3c:	a8c14ffe 	ldp	x30, x19, [sp],#16
  40:	d65f03c0 	ret
  44:	a9470668 	ldp	x8, x1, [x19,#112]
  48:	aa0003f3 	mov	x19, x0
  4c:	aa0803e0 	mov	x0, x8
  50:	94000000 	bl	0 <_ZN4core3ptr13drop_in_place17hb166669170a81697E>
  54:	aa1303e0 	mov	x0, x19
  58:	94000000 	bl	0 <_Unwind_Resume>
  5c:	d4200020 	brk	#0x1

Disassembly of section .text._ZN4core3ptr13drop_in_place17hceb70e4a27a9a086E:

0000000000000000 <_ZN4core3ptr13drop_in_place17hceb70e4a27a9a086E>:
   0:	91002000 	add	x0, x0, #0x8
   4:	14000000 	b	0 <_ZN94_$LT$alloc..collections..linked_list..LinkedList$LT$T$GT$$u20$as$u20$core..ops..drop..Drop$GT$4drop17h5831681bbd6595d2E>

Disassembly of section .text._ZN4core5slice5index11check_range17hd036c65fe7abc353E:

0000000000000000 <_ZN4core5slice5index11check_range17hd036c65fe7abc353E>:
   0:	aa0003e1 	mov	x1, x0
   4:	aa1f03e0 	mov	x0, xzr
   8:	d65f03c0 	ret

Disassembly of section .text._ZN4core5slice5index11check_range28_$u7b$$u7b$closure$u7d$$u7d$17hb1e91ed7f31c06b4E.llvm.11199140614633678977:

0000000000000000 <_ZN4core5slice5index11check_range28_$u7b$$u7b$closure$u7d$$u7d$17hb1e91ed7f31c06b4E.llvm.11199140614633678977>:
   0:	f81f0ffe 	str	x30, [sp,#-16]!
   4:	90000000 	adrp	x0, 0 <_ZN4core5slice5index11check_range28_$u7b$$u7b$closure$u7d$$u7d$17hb1e91ed7f31c06b4E.llvm.11199140614633678977>
   8:	91000000 	add	x0, x0, #0x0
   c:	94000000 	bl	0 <_ZN4core5slice5index29slice_end_index_overflow_fail17h7d579df9169411a3E>
  10:	d4200020 	brk	#0x1

Disassembly of section .text._ZN4core5slice5index11check_range28_$u7b$$u7b$closure$u7d$$u7d$17he204babbfd6a04dbE.llvm.11199140614633678977:

0000000000000000 <_ZN4core5slice5index11check_range28_$u7b$$u7b$closure$u7d$$u7d$17he204babbfd6a04dbE.llvm.11199140614633678977>:
   0:	f81f0ffe 	str	x30, [sp,#-16]!
   4:	90000000 	adrp	x0, 0 <_ZN4core5slice5index11check_range28_$u7b$$u7b$closure$u7d$$u7d$17he204babbfd6a04dbE.llvm.11199140614633678977>
   8:	91000000 	add	x0, x0, #0x0
   c:	94000000 	bl	0 <_ZN4core5slice5index31slice_start_index_overflow_fail17h03a5e65778a6197eE>
  10:	d4200020 	brk	#0x1

Disassembly of section .text._ZN50_$LT$T$u20$as$u20$core..convert..Into$LT$U$GT$$GT$4into17h768e4ad795ba3400E:

0000000000000000 <_ZN50_$LT$T$u20$as$u20$core..convert..Into$LT$U$GT$$GT$4into17h768e4ad795ba3400E>:
   0:	d65f03c0 	ret

Disassembly of section .text._ZN5alloc5alloc8box_free17hcbacdf09322f2dc2E:

0000000000000000 <_ZN5alloc5alloc8box_free17hcbacdf09322f2dc2E>:
   0:	aa0103e8 	mov	x8, x1
   4:	f9400421 	ldr	x1, [x1,#8]
   8:	b4000061 	cbz	x1, 14 <_ZN5alloc5alloc8box_free17hcbacdf09322f2dc2E+0x14>
   c:	f9400902 	ldr	x2, [x8,#16]
  10:	14000000 	b	0 <__rust_dealloc>
  14:	d65f03c0 	ret

Disassembly of section .text._ZN5rayon4iter16ParallelIterator3map17h311d0a0161089b9bE:

0000000000000000 <_ZN5rayon4iter16ParallelIterator3map17h311d0a0161089b9bE>:
   0:	ad400001 	ldp	q1, q0, [x0]
   4:	ad000101 	stp	q1, q0, [x8]
   8:	d65f03c0 	ret

Disassembly of section .text._ZN5rayon4iter4fold22Fold$LT$I$C$ID$C$F$GT$3new17hbb86f8347b0b8ff0E:

0000000000000000 <_ZN5rayon4iter4fold22Fold$LT$I$C$ID$C$F$GT$3new17hbb86f8347b0b8ff0E>:
   0:	ad400001 	ldp	q1, q0, [x0]
   4:	ad000101 	stp	q1, q0, [x8]
   8:	d65f03c0 	ret

Disassembly of section .text._ZN5rayon4iter6reduce6reduce17hd6eb22956e696f4dE:

0000000000000000 <_ZN5rayon4iter6reduce6reduce17hd6eb22956e696f4dE>:
   0:	d102c3ff 	sub	sp, sp, #0xb0
   4:	f90053fe 	str	x30, [sp,#160]
   8:	ad400400 	ldp	q0, q1, [x0]
   c:	ad400c02 	ldp	q2, q3, [x0]
  10:	910103e9 	add	x9, sp, #0x40
  14:	9102a3ea 	add	x10, sp, #0xa8
  18:	ad0207e0 	stp	q0, q1, [sp,#64]
  1c:	a9440be1 	ldp	x1, x2, [sp,#64]
  20:	910003eb 	mov	x11, sp
  24:	910083ec 	add	x12, sp, #0x20
  28:	91004129 	add	x9, x9, #0x10
  2c:	9101a3e0 	add	x0, sp, #0x68
  30:	a907afea 	stp	x10, x11, [sp,#120]
  34:	a908b3ec 	stp	x12, x12, [sp,#136]
  38:	ad0007e0 	stp	q0, q1, [sp]
  3c:	ad010fe2 	stp	q2, q3, [sp,#32]
  40:	a906abe2 	stp	x2, x10, [sp,#104]
  44:	f9004fe9 	str	x9, [sp,#152]
  48:	94000000 	bl	0 <_ZN117_$LT$rayon..iter..plumbing..bridge..Callback$LT$C$GT$$u20$as$u20$rayon..iter..plumbing..ProducerCallback$LT$I$GT$$GT$8callback17h2e5ccf74baed8599E>
  4c:	f94053fe 	ldr	x30, [sp,#160]
  50:	9102c3ff 	add	sp, sp, #0xb0
  54:	d65f03c0 	ret

Disassembly of section .text._ZN6bitvec7pointer15BitPtr$LT$T$GT$4head17h08d702d91705add7E:

0000000000000000 <_ZN6bitvec7pointer15BitPtr$LT$T$GT$4head17h08d702d91705add7E>:
   0:	b9400808 	ldr	w8, [x0,#8]
   4:	b9400009 	ldr	w9, [x0]
   8:	12000900 	and	w0, w8, #0x7
   c:	331d0920 	bfi	w0, w9, #3, #3
  10:	d65f03c0 	ret

Disassembly of section .text._ZN6bitvec7pointer15BitPtr$LT$T$GT$8elements17hcdc30e2804abb424E:

0000000000000000 <_ZN6bitvec7pointer15BitPtr$LT$T$GT$8elements17hcdc30e2804abb424E>:
   0:	b9400008 	ldr	w8, [x0]
   4:	f9400409 	ldr	x9, [x0,#8]
   8:	531d7108 	lsl	w8, w8, #3
   c:	927d0908 	and	x8, x8, #0x38
  10:	b3400928 	bfxil	x8, x9, #0, #3
  14:	8b490d08 	add	x8, x8, x9, lsr #3
  18:	d346fd09 	lsr	x9, x8, #6
  1c:	f240151f 	tst	x8, #0x3f
  20:	9a890520 	cinc	x0, x9, ne
  24:	d65f03c0 	ret

Disassembly of section .text._ZN78_$LT$core..option..Option$LT$T$GT$$u20$as$u20$core..convert..From$LT$T$GT$$GT$4from17he036bcd4f0aed765E:

0000000000000000 <_ZN78_$LT$core..option..Option$LT$T$GT$$u20$as$u20$core..convert..From$LT$T$GT$$GT$4from17he036bcd4f0aed765E>:
   0:	2a0003e1 	mov	w1, w0
   4:	52800020 	mov	w0, #0x1                   	// #1
   8:	d65f03c0 	ret

Disassembly of section .text._ZN91_$LT$rayon..iter..fold..Fold$LT$I$C$ID$C$F$GT$$u20$as$u20$rayon..iter..ParallelIterator$GT$15drive_unindexed17hfd31ab5b93e606b0E:

0000000000000000 <_ZN91_$LT$rayon..iter..fold..Fold$LT$I$C$ID$C$F$GT$$u20$as$u20$rayon..iter..ParallelIterator$GT$15drive_unindexed17hfd31ab5b93e606b0E>:
   0:	d101c3ff 	sub	sp, sp, #0x70
   4:	ad400001 	ldp	q1, q0, [x0]
   8:	f940082a 	ldr	x10, [x1,#16]
   c:	3dc00022 	ldr	q2, [x1]
  10:	910003e9 	mov	x9, sp
  14:	ad0003e1 	stp	q1, q0, [sp]
  18:	a9400be1 	ldp	x1, x2, [sp]
  1c:	91004129 	add	x9, x9, #0x10
  20:	a90403ea 	stp	x10, x0, [sp,#64]
  24:	f9002be0 	str	x0, [sp,#80]
  28:	9100a3e0 	add	x0, sp, #0x28
  2c:	3c8303e2 	stur	q2, [sp,#48]
  30:	f90017e2 	str	x2, [sp,#40]
  34:	a905fbe9 	stp	x9, x30, [sp,#88]
  38:	94000000 	bl	0 <_ZN117_$LT$rayon..iter..plumbing..bridge..Callback$LT$C$GT$$u20$as$u20$rayon..iter..plumbing..ProducerCallback$LT$I$GT$$GT$8callback17h2e5ccf74baed8599E>
  3c:	f94033fe 	ldr	x30, [sp,#96]
  40:	9101c3ff 	add	sp, sp, #0x70
  44:	d65f03c0 	ret

Disassembly of section .group:

0000000000000000 <.group>:
   0:	00000001 	.inst	0x00000001 ; undefined
   4:	0000003f 	.inst	0x0000003f ; undefined

Disassembly of section .text._ZN10ppv_lite867generic4dmap17h0db76088dd01af04E:

0000000000000000 <_ZN10ppv_lite867generic4dmap17h0db76088dd01af04E>:
   0:	3dc00000 	ldr	q0, [x0]
   4:	6f270401 	ushr	v1.4s, v0.4s, #25
   8:	4f275400 	shl	v0.4s, v0.4s, #7
   c:	4ea11c00 	orr	v0.16b, v0.16b, v1.16b
  10:	3d800100 	str	q0, [x8]
  14:	d65f03c0 	ret

Disassembly of section .text._ZN10ppv_lite867generic4dmap17h4434134f9fa4c644E:

0000000000000000 <_ZN10ppv_lite867generic4dmap17h4434134f9fa4c644E>:
   0:	3dc00000 	ldr	q0, [x0]
   4:	6f280401 	ushr	v1.4s, v0.4s, #24
   8:	4f285400 	shl	v0.4s, v0.4s, #8
   c:	4ea11c00 	orr	v0.16b, v0.16b, v1.16b
  10:	3d800100 	str	q0, [x8]
  14:	d65f03c0 	ret

Disassembly of section .text._ZN10ppv_lite867generic4dmap17h5768974488884836E:

0000000000000000 <_ZN10ppv_lite867generic4dmap17h5768974488884836E>:
   0:	3dc00000 	ldr	q0, [x0]
   4:	6f300401 	ushr	v1.4s, v0.4s, #16
   8:	4f305400 	shl	v0.4s, v0.4s, #16
   c:	4ea11c00 	orr	v0.16b, v0.16b, v1.16b
  10:	3d800100 	str	q0, [x8]
  14:	d65f03c0 	ret

Disassembly of section .text._ZN10ppv_lite867generic4dmap17h9d122f36b3949f40E:

0000000000000000 <_ZN10ppv_lite867generic4dmap17h9d122f36b3949f40E>:
   0:	3dc00000 	ldr	q0, [x0]
   4:	3d800100 	str	q0, [x8]
   8:	d65f03c0 	ret

Disassembly of section .text._ZN10ppv_lite867generic4dmap17hc43ab51858e13e1fE:

0000000000000000 <_ZN10ppv_lite867generic4dmap17hc43ab51858e13e1fE>:
   0:	3dc00000 	ldr	q0, [x0]
   4:	6f2c0401 	ushr	v1.4s, v0.4s, #20
   8:	4f2c5400 	shl	v0.4s, v0.4s, #12
   c:	4ea11c00 	orr	v0.16b, v0.16b, v1.16b
  10:	3d800100 	str	q0, [x8]
  14:	d65f03c0 	ret

Disassembly of section .text._ZN10ppv_lite867generic4omap17hb126556e51230bcfE:

0000000000000000 <_ZN10ppv_lite867generic4omap17hb126556e51230bcfE>:
   0:	d10083ff 	sub	sp, sp, #0x20
   4:	a9014ffe 	stp	x30, x19, [sp,#16]
   8:	3dc00000 	ldr	q0, [x0]
   c:	910003e0 	mov	x0, sp
  10:	aa0803f3 	mov	x19, x8
  14:	3d8003e0 	str	q0, [sp]
  18:	94000000 	bl	0 <_ZN10ppv_lite867generic6o_of_q17hf327dc7a5a720f60E>
  1c:	aa0003e2 	mov	x2, x0
  20:	aa0103e0 	mov	x0, x1
  24:	910003e8 	mov	x8, sp
  28:	aa0203e1 	mov	x1, x2
  2c:	94000000 	bl	0 <_ZN10ppv_lite867generic6q_of_o17h04be6d6966e1965eE>
  30:	3dc003e0 	ldr	q0, [sp]
  34:	3d800260 	str	q0, [x19]
  38:	a9414ffe 	ldp	x30, x19, [sp,#16]
  3c:	910083ff 	add	sp, sp, #0x20
  40:	d65f03c0 	ret

Disassembly of section .text._ZN10ppv_lite867generic5dmap217h1285fd156771dbeeE:

0000000000000000 <_ZN10ppv_lite867generic5dmap217h1285fd156771dbeeE>:
   0:	3dc00000 	ldr	q0, [x0]
   4:	3dc00021 	ldr	q1, [x1]
   8:	4ea08420 	add	v0.4s, v1.4s, v0.4s
   c:	3d800100 	str	q0, [x8]
  10:	d65f03c0 	ret

Disassembly of section .text._ZN10ppv_lite867generic5omap217hc94491d2ac55b68fE:

0000000000000000 <_ZN10ppv_lite867generic5omap217hc94491d2ac55b68fE>:
   0:	d10103ff 	sub	sp, sp, #0x40
   4:	f9000bfe 	str	x30, [sp,#16]
   8:	a90257f6 	stp	x22, x21, [sp,#32]
   c:	a9034ff4 	stp	x20, x19, [sp,#48]
  10:	3dc00000 	ldr	q0, [x0]
  14:	910003e0 	mov	x0, sp
  18:	aa0103f3 	mov	x19, x1
  1c:	aa0803f4 	mov	x20, x8
  20:	3d8003e0 	str	q0, [sp]
  24:	94000000 	bl	0 <_ZN10ppv_lite867generic6o_of_q17hf327dc7a5a720f60E>
  28:	3dc00260 	ldr	q0, [x19]
  2c:	aa0003f5 	mov	x21, x0
  30:	910003e0 	mov	x0, sp
  34:	aa0103f6 	mov	x22, x1
  38:	3d8003e0 	str	q0, [sp]
  3c:	94000000 	bl	0 <_ZN10ppv_lite867generic6o_of_q17hf327dc7a5a720f60E>
  40:	ca150000 	eor	x0, x0, x21
  44:	ca160021 	eor	x1, x1, x22
  48:	910003e8 	mov	x8, sp
  4c:	94000000 	bl	0 <_ZN10ppv_lite867generic6q_of_o17h04be6d6966e1965eE>
  50:	3dc003e0 	ldr	q0, [sp]
  54:	a94257f6 	ldp	x22, x21, [sp,#32]
  58:	f9400bfe 	ldr	x30, [sp,#16]
  5c:	3d800280 	str	q0, [x20]
  60:	a9434ff4 	ldp	x20, x19, [sp,#48]
  64:	910103ff 	add	sp, sp, #0x40
  68:	d65f03c0 	ret

Disassembly of section .text._ZN4core5array98_$LT$impl$u20$core..iter..traits..collect..IntoIterator$u20$for$u20$$RF$$u5b$T$u3b$$u20$N$u5d$$GT$9into_iter17h7ade6719fe26d88bE:

0000000000000000 <_ZN4core5array98_$LT$impl$u20$core..iter..traits..collect..IntoIterator$u20$for$u20$$RF$$u5b$T$u3b$$u20$N$u5d$$GT$9into_iter17h7ade6719fe26d88bE>:
   0:	91010001 	add	x1, x0, #0x40
   4:	d65f03c0 	ret

Disassembly of section .text._ZN50_$LT$T$u20$as$u20$core..convert..Into$LT$U$GT$$GT$4into17hd2ce20bb3ce641a7E:

0000000000000000 <_ZN50_$LT$T$u20$as$u20$core..convert..Into$LT$U$GT$$GT$4into17hd2ce20bb3ce641a7E>:
   0:	3dc00000 	ldr	q0, [x0]
   4:	3d800100 	str	q0, [x8]
   8:	d65f03c0 	ret

Disassembly of section .text._ZN101_$LT$std..panic..AssertUnwindSafe$LT$F$GT$$u20$as$u20$core..ops..function..FnOnce$LT$$LP$$RP$$GT$$GT$9call_once17h08b6f1e9ca48768eE:

0000000000000000 <_ZN101_$LT$std..panic..AssertUnwindSafe$LT$F$GT$$u20$as$u20$core..ops..function..FnOnce$LT$$LP$$RP$$GT$$GT$9call_once17h08b6f1e9ca48768eE>:
   0:	a9ba7bfd 	stp	x29, x30, [sp,#-96]!
   4:	a9016ffc 	stp	x28, x27, [sp,#16]
   8:	a90267fa 	stp	x26, x25, [sp,#32]
   c:	a9035ff8 	stp	x24, x23, [sp,#48]
  10:	a90457f6 	stp	x22, x21, [sp,#64]
  14:	a9054ff4 	stp	x20, x19, [sp,#80]
  18:	d108c3ff 	sub	sp, sp, #0x230
  1c:	ad400400 	ldp	q0, q1, [x0]
  20:	ad410c02 	ldp	q2, q3, [x0,#32]
  24:	aa0803f3 	mov	x19, x8
  28:	3dc01004 	ldr	q4, [x0,#64]
  2c:	a9456808 	ldp	x8, x26, [x0,#80]
  30:	ad0207e0 	stp	q0, q1, [sp,#64]
  34:	3cc78000 	ldur	q0, [x0,#120]
  38:	3cc98001 	ldur	q1, [x0,#152]
  3c:	3d801be2 	str	q2, [sp,#96]
  40:	3cc88002 	ldur	q2, [x0,#136]
  44:	a9465419 	ldp	x25, x21, [x0,#96]
  48:	f9403816 	ldr	x22, [x0,#112]
  4c:	ad0393e3 	stp	q3, q4, [sp,#112]
  50:	f9004be8 	str	x8, [sp,#144]
  54:	ad0107e2 	stp	q2, q1, [sp,#32]
  58:	3d8007e0 	str	q0, [sp,#16]
  5c:	94000000 	bl	0 <_ZN10rayon_core8registry19WORKER_THREAD_STATE7__getit17h4f910a206b76a4f3E>
  60:	b4001520 	cbz	x0, 304 <_ZN101_$LT$std..panic..AssertUnwindSafe$LT$F$GT$$u20$as$u20$core..ops..function..FnOnce$LT$$LP$$RP$$GT$$GT$9call_once17h08b6f1e9ca48768eE+0x304>
  64:	f9400014 	ldr	x20, [x0]
  68:	b4001634 	cbz	x20, 32c <_ZN101_$LT$std..panic..AssertUnwindSafe$LT$F$GT$$u20$as$u20$core..ops..function..FnOnce$LT$$LP$$RP$$GT$$GT$9call_once17h08b6f1e9ca48768eE+0x32c>
  6c:	ad4087e0 	ldp	q0, q1, [sp,#16]
  70:	3dc00fe2 	ldr	q2, [sp,#48]
  74:	f9404be9 	ldr	x9, [sp,#144]
  78:	9104c288 	add	x8, x20, #0x130
  7c:	ad0507e0 	stp	q0, q1, [sp,#160]
  80:	ad4307e0 	ldp	q0, q1, [sp,#96]
  84:	3d8033e2 	str	q2, [sp,#192]
  88:	3dc023e2 	ldr	q2, [sp,#128]
  8c:	f940928a 	ldr	x10, [x20,#288]
  90:	ad0887e0 	stp	q0, q1, [sp,#272]
  94:	ad4207e0 	ldp	q0, q1, [sp,#64]
  98:	3d804fe2 	str	q2, [sp,#304]
  9c:	a90d23ff 	stp	xzr, x8, [sp,#208]
  a0:	3903a3ff 	strb	wzr, [sp,#232]
  a4:	ad0787e0 	stp	q0, q1, [sp,#240]
  a8:	a9147fe9 	stp	x9, xzr, [sp,#320]
  ac:	f90073ea 	str	x10, [sp,#224]
  b0:	f9408288 	ldr	x8, [x20,#256]
  b4:	91040297 	add	x23, x20, #0x100
  b8:	f940851c 	ldr	x28, [x8,#264]
  bc:	91040108 	add	x8, x8, #0x100
  c0:	c8dffd1d 	ldar	x29, [x8]
  c4:	f9408288 	ldr	x8, [x20,#256]
  c8:	f9408518 	ldr	x24, [x8,#264]
  cc:	91040108 	add	x8, x8, #0x100
  d0:	c8dffd09 	ldar	x9, [x8]
  d4:	f9408a88 	ldr	x8, [x20,#272]
  d8:	cb090309 	sub	x9, x24, x9
  dc:	eb08013f 	cmp	x9, x8
  e0:	540000ab 	b.lt	f4 <_ZN101_$LT$std..panic..AssertUnwindSafe$LT$F$GT$$u20$as$u20$core..ops..function..FnOnce$LT$$LP$$RP$$GT$$GT$9call_once17h08b6f1e9ca48768eE+0xf4>
  e4:	d37ff901 	lsl	x1, x8, #1
  e8:	aa1703e0 	mov	x0, x23
  ec:	94000000 	bl	0 <_ZN15crossbeam_deque5deque15Worker$LT$T$GT$6resize17h356162248feccb3cE.llvm.1173454447793668956>
  f0:	f9408a88 	ldr	x8, [x20,#272]
  f4:	f9408689 	ldr	x9, [x20,#264]
  f8:	d1000508 	sub	x8, x8, #0x1
  fc:	8a180108 	and	x8, x8, x24
 100:	9000001b 	adrp	x27, 0 <_ZN83_$LT$rayon_core..job..StackJob$LT$L$C$F$C$R$GT$$u20$as$u20$rayon_core..job..Job$GT$7execute17h4b4187afd03db4fdE.llvm.16290411295856443344>
 104:	8b081128 	add	x8, x9, x8, lsl #4
 108:	910343e9 	add	x9, sp, #0xd0
 10c:	9100037b 	add	x27, x27, #0x0
 110:	f9000109 	str	x9, [x8]
 114:	f900051b 	str	x27, [x8,#8]
 118:	d5033bbf 	dmb	ish
 11c:	f9408288 	ldr	x8, [x20,#256]
 120:	91000709 	add	x9, x24, #0x1
 124:	9105a3f8 	add	x24, sp, #0x168
 128:	91042108 	add	x8, x8, #0x108
 12c:	c89ffd09 	stlr	x9, [x8]
 130:	f9409a89 	ldr	x9, [x20,#304]
 134:	cb1d0388 	sub	x8, x28, x29
 138:	9106a120 	add	x0, x9, #0x1a8
 13c:	9107412a 	add	x10, x9, #0x1d0
 140:	c8dffd4b 	ldar	x11, [x10]
 144:	37a0016b 	tbnz	w11, #20, 170 <_ZN101_$LT$std..panic..AssertUnwindSafe$LT$F$GT$$u20$as$u20$core..ops..function..FnOnce$LT$$LP$$RP$$GT$$GT$9call_once17h08b6f1e9ca48768eE+0x170>
 148:	91440169 	add	x9, x11, #0x100, lsl #12
 14c:	c85ffd4c 	ldaxr	x12, [x10]
 150:	eb0b019f 	cmp	x12, x11
 154:	54000081 	b.ne	164 <_ZN101_$LT$std..panic..AssertUnwindSafe$LT$F$GT$$u20$as$u20$core..ops..function..FnOnce$LT$$LP$$RP$$GT$$GT$9call_once17h08b6f1e9ca48768eE+0x164>
 158:	c80cfd49 	stlxr	w12, x9, [x10]
 15c:	35ffff8c 	cbnz	w12, 14c <_ZN101_$LT$std..panic..AssertUnwindSafe$LT$F$GT$$u20$as$u20$core..ops..function..FnOnce$LT$$LP$$RP$$GT$$GT$9call_once17h08b6f1e9ca48768eE+0x14c>
 160:	14000005 	b	174 <_ZN101_$LT$std..panic..AssertUnwindSafe$LT$F$GT$$u20$as$u20$core..ops..function..FnOnce$LT$$LP$$RP$$GT$$GT$9call_once17h08b6f1e9ca48768eE+0x174>
 164:	d5033f5f 	clrex
 168:	c8dffd4b 	ldar	x11, [x10]
 16c:	36a7feeb 	tbz	w11, #20, 148 <_ZN101_$LT$std..panic..AssertUnwindSafe$LT$F$GT$$u20$as$u20$core..ops..function..FnOnce$LT$$LP$$RP$$GT$$GT$9call_once17h08b6f1e9ca48768eE+0x148>
 170:	aa0b03e9 	mov	x9, x11
 174:	9240252a 	and	x10, x9, #0x3ff
 178:	b400016a 	cbz	x10, 1a4 <_ZN101_$LT$std..panic..AssertUnwindSafe$LT$F$GT$$u20$as$u20$core..ops..function..FnOnce$LT$$LP$$RP$$GT$$GT$9call_once17h08b6f1e9ca48768eE+0x1a4>
 17c:	f100011f 	cmp	x8, #0x0
 180:	5400008d 	b.le	190 <_ZN101_$LT$std..panic..AssertUnwindSafe$LT$F$GT$$u20$as$u20$core..ops..function..FnOnce$LT$$LP$$RP$$GT$$GT$9call_once17h08b6f1e9ca48768eE+0x190>
 184:	52800021 	mov	w1, #0x1                   	// #1
 188:	94000000 	bl	0 <_ZN10rayon_core5sleep5Sleep16wake_any_threads17hf99abf617ce5bd7dE>
 18c:	14000006 	b	1a4 <_ZN101_$LT$std..panic..AssertUnwindSafe$LT$F$GT$$u20$as$u20$core..ops..function..FnOnce$LT$$LP$$RP$$GT$$GT$9call_once17h08b6f1e9ca48768eE+0x1a4>
 190:	d34a4d28 	ubfx	x8, x9, #10, #10
 194:	cb0a0108 	sub	x8, x8, x10
 198:	35000068 	cbnz	w8, 1a4 <_ZN101_$LT$std..panic..AssertUnwindSafe$LT$F$GT$$u20$as$u20$core..ops..function..FnOnce$LT$$LP$$RP$$GT$$GT$9call_once17h08b6f1e9ca48768eE+0x1a4>
 19c:	52800021 	mov	w1, #0x1                   	// #1
 1a0:	94000000 	bl	0 <_ZN10rayon_core5sleep5Sleep16wake_any_threads17hf99abf617ce5bd7dE>
 1a4:	f9400340 	ldr	x0, [x26]
 1a8:	ad4507e0 	ldp	q0, q1, [sp,#160]
 1ac:	3dc033e2 	ldr	q2, [sp,#192]
 1b0:	a9400f22 	ldp	x2, x3, [x25]
 1b4:	ad0c07e0 	stp	q0, q1, [sp,#384]
 1b8:	3d806be2 	str	q2, [sp,#416]
 1bc:	910863e8 	add	x8, sp, #0x218
 1c0:	910603e6 	add	x6, sp, #0x180
 1c4:	52800021 	mov	w1, #0x1                   	// #1
 1c8:	aa1503e4 	mov	x4, x21
 1cc:	aa1603e5 	mov	x5, x22
 1d0:	94000000 	bl	0 <_ZN5rayon4iter8plumbing24bridge_producer_consumer6helper17h75e51145a76dcbf1E>
 1d4:	3dc02f00 	ldr	q0, [x24,#176]
 1d8:	f94117e8 	ldr	x8, [sp,#552]
 1dc:	910343f5 	add	x21, sp, #0xd0
 1e0:	3d800300 	str	q0, [x24]
 1e4:	f900bfe8 	str	x8, [sp,#376]
 1e8:	14000002 	b	1f0 <_ZN101_$LT$std..panic..AssertUnwindSafe$LT$F$GT$$u20$as$u20$core..ops..function..FnOnce$LT$$LP$$RP$$GT$$GT$9call_once17h08b6f1e9ca48768eE+0x1f0>
 1ec:	d63f0020 	blr	x1
 1f0:	c8dffea8 	ldar	x8, [x21]
 1f4:	f1000d1f 	cmp	x8, #0x3
 1f8:	54000540 	b.eq	2a0 <_ZN101_$LT$std..panic..AssertUnwindSafe$LT$F$GT$$u20$as$u20$core..ops..function..FnOnce$LT$$LP$$RP$$GT$$GT$9call_once17h08b6f1e9ca48768eE+0x2a0>
 1fc:	aa1703e0 	mov	x0, x23
 200:	94000000 	bl	0 <_ZN15crossbeam_deque5deque15Worker$LT$T$GT$3pop17he9480c323ec38c84E>
 204:	b40003e1 	cbz	x1, 280 <_ZN101_$LT$std..panic..AssertUnwindSafe$LT$F$GT$$u20$as$u20$core..ops..function..FnOnce$LT$$LP$$RP$$GT$$GT$9call_once17h08b6f1e9ca48768eE+0x280>
 208:	eb15001f 	cmp	x0, x21
 20c:	54ffff01 	b.ne	1ec <_ZN101_$LT$std..panic..AssertUnwindSafe$LT$F$GT$$u20$as$u20$core..ops..function..FnOnce$LT$$LP$$RP$$GT$$GT$9call_once17h08b6f1e9ca48768eE+0x1ec>
 210:	eb1b003f 	cmp	x1, x27
 214:	54fffec1 	b.ne	1ec <_ZN101_$LT$std..panic..AssertUnwindSafe$LT$F$GT$$u20$as$u20$core..ops..function..FnOnce$LT$$LP$$RP$$GT$$GT$9call_once17h08b6f1e9ca48768eE+0x1ec>
 218:	ad4987e0 	ldp	q0, q1, [sp,#304]
 21c:	3dc057e2 	ldr	q2, [sp,#336]
 220:	ad4793e3 	ldp	q3, q4, [sp,#240]
 224:	f940b3e8 	ldr	x8, [sp,#352]
 228:	ad0f07e0 	stp	q0, q1, [sp,#480]
 22c:	3d8083e2 	str	q2, [sp,#512]
 230:	ad4887e0 	ldp	q0, q1, [sp,#272]
 234:	ad0d13e3 	stp	q3, q4, [sp,#416]
 238:	ad468fe2 	ldp	q2, q3, [sp,#208]
 23c:	52800035 	mov	w21, #0x1                   	// #1
 240:	ad0e07e0 	stp	q0, q1, [sp,#448]
 244:	f9010be8 	str	x8, [sp,#528]
 248:	ad0c0fe2 	stp	q2, q3, [sp,#384]
 24c:	910863e8 	add	x8, sp, #0x218
 250:	910603e0 	add	x0, sp, #0x180
 254:	52800021 	mov	w1, #0x1                   	// #1
 258:	94000000 	bl	0 <_ZN10rayon_core3job25StackJob$LT$L$C$F$C$R$GT$10run_inline17h115944c7f99be13aE>
 25c:	f940bfe8 	ldr	x8, [sp,#376]
 260:	3dc00300 	ldr	q0, [x24]
 264:	f94117e9 	ldr	x9, [sp,#552]
 268:	3dc02f01 	ldr	q1, [x24,#176]
 26c:	f9000a68 	str	x8, [x19,#16]
 270:	3d800260 	str	q0, [x19]
 274:	f9001669 	str	x9, [x19,#40]
 278:	3c818261 	stur	q1, [x19,#24]
 27c:	14000017 	b	2d8 <_ZN101_$LT$std..panic..AssertUnwindSafe$LT$F$GT$$u20$as$u20$core..ops..function..FnOnce$LT$$LP$$RP$$GT$$GT$9call_once17h08b6f1e9ca48768eE+0x2d8>
 280:	910343e8 	add	x8, sp, #0xd0
 284:	c8dffd08 	ldar	x8, [x8]
 288:	f1000d1f 	cmp	x8, #0x3
 28c:	540000a0 	b.eq	2a0 <_ZN101_$LT$std..panic..AssertUnwindSafe$LT$F$GT$$u20$as$u20$core..ops..function..FnOnce$LT$$LP$$RP$$GT$$GT$9call_once17h08b6f1e9ca48768eE+0x2a0>
 290:	910343e1 	add	x1, sp, #0xd0
 294:	aa1403e0 	mov	x0, x20
 298:	2a1f03f5 	mov	w21, wzr
 29c:	94000000 	bl	0 <_ZN10rayon_core8registry12WorkerThread15wait_until_cold17h247d61e1f4b74d9eE>
 2a0:	a95483e8 	ldp	x8, x0, [sp,#328]
 2a4:	3dc00300 	ldr	q0, [x24]
 2a8:	f940bfe9 	ldr	x9, [sp,#376]
 2ac:	f940afe1 	ldr	x1, [sp,#344]
 2b0:	f100051f 	cmp	x8, #0x1
 2b4:	3d8063e0 	str	q0, [sp,#384]
 2b8:	f900cbe9 	str	x9, [sp,#400]
 2bc:	540001e1 	b.ne	2f8 <_ZN101_$LT$std..panic..AssertUnwindSafe$LT$F$GT$$u20$as$u20$core..ops..function..FnOnce$LT$$LP$$RP$$GT$$GT$9call_once17h08b6f1e9ca48768eE+0x2f8>
 2c0:	3dc063e0 	ldr	q0, [sp,#384]
 2c4:	f940cbe8 	ldr	x8, [sp,#400]
 2c8:	f940b3e9 	ldr	x9, [sp,#352]
 2cc:	3d800260 	str	q0, [x19]
 2d0:	a9010268 	stp	x8, x0, [x19,#16]
 2d4:	a9022661 	stp	x1, x9, [x19,#32]
 2d8:	9108c3ff 	add	sp, sp, #0x230
 2dc:	a9454ff4 	ldp	x20, x19, [sp,#80]
 2e0:	a94457f6 	ldp	x22, x21, [sp,#64]
 2e4:	a9435ff8 	ldp	x24, x23, [sp,#48]
 2e8:	a94267fa 	ldp	x26, x25, [sp,#32]
 2ec:	a9416ffc 	ldp	x28, x27, [sp,#16]
 2f0:	a8c67bfd 	ldp	x29, x30, [sp],#96
 2f4:	d65f03c0 	ret
 2f8:	b4000288 	cbz	x8, 348 <_ZN101_$LT$std..panic..AssertUnwindSafe$LT$F$GT$$u20$as$u20$core..ops..function..FnOnce$LT$$LP$$RP$$GT$$GT$9call_once17h08b6f1e9ca48768eE+0x348>
 2fc:	94000000 	bl	0 <_ZN10rayon_core6unwind16resume_unwinding17h96957761123900f4E>
 300:	14000028 	b	3a0 <_ZN101_$LT$std..panic..AssertUnwindSafe$LT$F$GT$$u20$as$u20$core..ops..function..FnOnce$LT$$LP$$RP$$GT$$GT$9call_once17h08b6f1e9ca48768eE+0x3a0>
 304:	90000000 	adrp	x0, 0 <anon.db2b10df3057192c385b8a00c302314f.0.llvm.7836057303592255489>
 308:	90000003 	adrp	x3, 0 <anon.db2b10df3057192c385b8a00c302314f.9.llvm.7836057303592255489>
 30c:	90000004 	adrp	x4, 0 <anon.db2b10df3057192c385b8a00c302314f.2.llvm.7836057303592255489>
 310:	91000000 	add	x0, x0, #0x0
 314:	91000063 	add	x3, x3, #0x0
 318:	91000084 	add	x4, x4, #0x0
 31c:	910603e2 	add	x2, sp, #0x180
 320:	528008c1 	mov	w1, #0x46                  	// #70
 324:	94000000 	bl	0 <_ZN4core6result13unwrap_failed17h7d932ac07cdd1fc7E>
 328:	d4200020 	brk	#0x1
 32c:	90000000 	adrp	x0, 0 <_ZN101_$LT$std..panic..AssertUnwindSafe$LT$F$GT$$u20$as$u20$core..ops..function..FnOnce$LT$$LP$$RP$$GT$$GT$9call_once17h08b6f1e9ca48768eE>
 330:	90000002 	adrp	x2, 0 <_ZN101_$LT$std..panic..AssertUnwindSafe$LT$F$GT$$u20$as$u20$core..ops..function..FnOnce$LT$$LP$$RP$$GT$$GT$9call_once17h08b6f1e9ca48768eE>
 334:	91000000 	add	x0, x0, #0x0
 338:	91000042 	add	x2, x2, #0x0
 33c:	528006c1 	mov	w1, #0x36                  	// #54
 340:	94000000 	bl	0 <_ZN3std9panicking11begin_panic17h49f6d6cf9017eacfE>
 344:	d4200020 	brk	#0x1
 348:	90000000 	adrp	x0, 0 <anon.7788f797f7cf28f72c51377fae556ed6.0.llvm.16290411295856443344>
 34c:	90000002 	adrp	x2, 0 <anon.7788f797f7cf28f72c51377fae556ed6.2.llvm.16290411295856443344>
 350:	91000000 	add	x0, x0, #0x0
 354:	91000042 	add	x2, x2, #0x0
 358:	52800501 	mov	w1, #0x28                  	// #40
 35c:	94000000 	bl	0 <_ZN3std9panicking11begin_panic17h49f6d6cf9017eacfE>
 360:	14000010 	b	3a0 <_ZN101_$LT$std..panic..AssertUnwindSafe$LT$F$GT$$u20$as$u20$core..ops..function..FnOnce$LT$$LP$$RP$$GT$$GT$9call_once17h08b6f1e9ca48768eE+0x3a0>
 364:	aa0003f3 	mov	x19, x0
 368:	910603e0 	add	x0, sp, #0x180
 36c:	94000000 	bl	0 <_ZN101_$LT$std..panic..AssertUnwindSafe$LT$F$GT$$u20$as$u20$core..ops..function..FnOnce$LT$$LP$$RP$$GT$$GT$9call_once17h08b6f1e9ca48768eE>
 370:	14000015 	b	3c4 <_ZN101_$LT$std..panic..AssertUnwindSafe$LT$F$GT$$u20$as$u20$core..ops..function..FnOnce$LT$$LP$$RP$$GT$$GT$9call_once17h08b6f1e9ca48768eE+0x3c4>
 374:	aa0003f3 	mov	x19, x0
 378:	9105a3e0 	add	x0, sp, #0x168
 37c:	94000000 	bl	0 <_ZN101_$LT$std..panic..AssertUnwindSafe$LT$F$GT$$u20$as$u20$core..ops..function..FnOnce$LT$$LP$$RP$$GT$$GT$9call_once17h08b6f1e9ca48768eE>
 380:	360001f5 	tbz	w21, #0, 3bc <_ZN101_$LT$std..panic..AssertUnwindSafe$LT$F$GT$$u20$as$u20$core..ops..function..FnOnce$LT$$LP$$RP$$GT$$GT$9call_once17h08b6f1e9ca48768eE+0x3bc>
 384:	14000010 	b	3c4 <_ZN101_$LT$std..panic..AssertUnwindSafe$LT$F$GT$$u20$as$u20$core..ops..function..FnOnce$LT$$LP$$RP$$GT$$GT$9call_once17h08b6f1e9ca48768eE+0x3c4>
 388:	94000000 	bl	0 <_ZN3std9panicking3try7cleanup17h0203421b683548f8E>
 38c:	aa0003e2 	mov	x2, x0
 390:	aa0103e3 	mov	x3, x1
 394:	910343e1 	add	x1, sp, #0xd0
 398:	aa1403e0 	mov	x0, x20
 39c:	94000000 	bl	0 <_ZN10rayon_core4join23join_recover_from_panic17h3239122033fd1cffE>
 3a0:	d4200020 	brk	#0x1
 3a4:	14000001 	b	3a8 <_ZN101_$LT$std..panic..AssertUnwindSafe$LT$F$GT$$u20$as$u20$core..ops..function..FnOnce$LT$$LP$$RP$$GT$$GT$9call_once17h08b6f1e9ca48768eE+0x3a8>
 3a8:	aa0003f3 	mov	x19, x0
 3ac:	14000004 	b	3bc <_ZN101_$LT$std..panic..AssertUnwindSafe$LT$F$GT$$u20$as$u20$core..ops..function..FnOnce$LT$$LP$$RP$$GT$$GT$9call_once17h08b6f1e9ca48768eE+0x3bc>
 3b0:	aa0003f3 	mov	x19, x0
 3b4:	9105a3e0 	add	x0, sp, #0x168
 3b8:	94000000 	bl	0 <_ZN101_$LT$std..panic..AssertUnwindSafe$LT$F$GT$$u20$as$u20$core..ops..function..FnOnce$LT$$LP$$RP$$GT$$GT$9call_once17h08b6f1e9ca48768eE>
 3bc:	910343e0 	add	x0, sp, #0xd0
 3c0:	94000000 	bl	0 <_ZN101_$LT$std..panic..AssertUnwindSafe$LT$F$GT$$u20$as$u20$core..ops..function..FnOnce$LT$$LP$$RP$$GT$$GT$9call_once17h08b6f1e9ca48768eE>
 3c4:	aa1303e0 	mov	x0, x19
 3c8:	94000000 	bl	0 <_Unwind_Resume>
 3cc:	d4200020 	brk	#0x1

Disassembly of section .text._ZN101_$LT$std..panic..AssertUnwindSafe$LT$F$GT$$u20$as$u20$core..ops..function..FnOnce$LT$$LP$$RP$$GT$$GT$9call_once17h0c3e0f2358ce5f9cE:

0000000000000000 <_ZN101_$LT$std..panic..AssertUnwindSafe$LT$F$GT$$u20$as$u20$core..ops..function..FnOnce$LT$$LP$$RP$$GT$$GT$9call_once17h0c3e0f2358ce5f9cE>:
   0:	d10103ff 	sub	sp, sp, #0x40
   4:	f9001bfe 	str	x30, [sp,#48]
   8:	a9402809 	ldp	x9, x10, [x0]
   c:	a941100b 	ldp	x11, x4, [x0,#16]
  10:	f9401005 	ldr	x5, [x0,#32]
  14:	3cc28000 	ldur	q0, [x0,#40]
  18:	f9400129 	ldr	x9, [x9]
  1c:	f940014a 	ldr	x10, [x10]
  20:	3cc38001 	ldur	q1, [x0,#56]
  24:	3cc48002 	ldur	q2, [x0,#72]
  28:	a9400d62 	ldp	x2, x3, [x11]
  2c:	cb0a0120 	sub	x0, x9, x10
  30:	910003e6 	mov	x6, sp
  34:	52800021 	mov	w1, #0x1                   	// #1
  38:	ad008be1 	stp	q1, q2, [sp,#16]
  3c:	3d8003e0 	str	q0, [sp]
  40:	94000000 	bl	0 <_ZN5rayon4iter8plumbing24bridge_producer_consumer6helper17h75e51145a76dcbf1E>
  44:	f9401bfe 	ldr	x30, [sp,#48]
  48:	910103ff 	add	sp, sp, #0x40
  4c:	d65f03c0 	ret

Disassembly of section .text._ZN101_$LT$std..panic..AssertUnwindSafe$LT$F$GT$$u20$as$u20$core..ops..function..FnOnce$LT$$LP$$RP$$GT$$GT$9call_once17h12d0cb4db4444bafE:

0000000000000000 <_ZN101_$LT$std..panic..AssertUnwindSafe$LT$F$GT$$u20$as$u20$core..ops..function..FnOnce$LT$$LP$$RP$$GT$$GT$9call_once17h12d0cb4db4444bafE>:
   0:	f81a0ffd 	str	x29, [sp,#-96]!
   4:	a9016ffe 	stp	x30, x27, [sp,#16]
   8:	a90267fa 	stp	x26, x25, [sp,#32]
   c:	a9035ff8 	stp	x24, x23, [sp,#48]
  10:	a90457f6 	stp	x22, x21, [sp,#64]
  14:	a9054ff4 	stp	x20, x19, [sp,#80]
  18:	d106c3ff 	sub	sp, sp, #0x1b0
  1c:	ad410c02 	ldp	q2, q3, [x0,#32]
  20:	a9445c08 	ldp	x8, x23, [x0,#64]
  24:	ad400400 	ldp	q0, q1, [x0]
  28:	3cc58004 	ldur	q4, [x0,#88]
  2c:	ad028fe2 	stp	q2, q3, [sp,#80]
  30:	3cc68002 	ldur	q2, [x0,#104]
  34:	f9003be8 	str	x8, [sp,#112]
  38:	a947d008 	ldp	x8, x20, [x0,#120]
  3c:	f9402816 	ldr	x22, [x0,#80]
  40:	ad0187e0 	stp	q0, q1, [sp,#48]
  44:	ad000be4 	stp	q4, q2, [sp]
  48:	f90013e8 	str	x8, [sp,#32]
  4c:	94000000 	bl	0 <_ZN10rayon_core8registry19WORKER_THREAD_STATE7__getit17h4f910a206b76a4f3E>
  50:	b40010e0 	cbz	x0, 26c <_ZN101_$LT$std..panic..AssertUnwindSafe$LT$F$GT$$u20$as$u20$core..ops..function..FnOnce$LT$$LP$$RP$$GT$$GT$9call_once17h12d0cb4db4444bafE+0x26c>
  54:	f9400013 	ldr	x19, [x0]
  58:	b40011f3 	cbz	x19, 294 <_ZN101_$LT$std..panic..AssertUnwindSafe$LT$F$GT$$u20$as$u20$core..ops..function..FnOnce$LT$$LP$$RP$$GT$$GT$9call_once17h12d0cb4db4444bafE+0x294>
  5c:	ad4007e0 	ldp	q0, q1, [sp]
  60:	f94013e8 	ldr	x8, [sp,#32]
  64:	f9403bea 	ldr	x10, [sp,#112]
  68:	9104c269 	add	x9, x19, #0x130
  6c:	ad0407e0 	stp	q0, q1, [sp,#128]
  70:	ad4287e0 	ldp	q0, q1, [sp,#80]
  74:	f90053e8 	str	x8, [sp,#160]
  78:	f9409268 	ldr	x8, [x19,#288]
  7c:	a90b27ff 	stp	xzr, x9, [sp,#176]
  80:	ad0787e0 	stp	q0, q1, [sp,#240]
  84:	ad4183e1 	ldp	q1, q0, [sp,#48]
  88:	390323ff 	strb	wzr, [sp,#200]
  8c:	a9117fea 	stp	x10, xzr, [sp,#272]
  90:	f90063e8 	str	x8, [sp,#192]
  94:	ad0683e1 	stp	q1, q0, [sp,#208]
  98:	f9408268 	ldr	x8, [x19,#256]
  9c:	91040275 	add	x21, x19, #0x100
  a0:	f9408519 	ldr	x25, [x8,#264]
  a4:	91040108 	add	x8, x8, #0x100
  a8:	c8dffd1a 	ldar	x26, [x8]
  ac:	f9408268 	ldr	x8, [x19,#256]
  b0:	f940851b 	ldr	x27, [x8,#264]
  b4:	91040108 	add	x8, x8, #0x100
  b8:	c8dffd09 	ldar	x9, [x8]
  bc:	f9408a68 	ldr	x8, [x19,#272]
  c0:	cb090369 	sub	x9, x27, x9
  c4:	eb08013f 	cmp	x9, x8
  c8:	540000ab 	b.lt	dc <_ZN101_$LT$std..panic..AssertUnwindSafe$LT$F$GT$$u20$as$u20$core..ops..function..FnOnce$LT$$LP$$RP$$GT$$GT$9call_once17h12d0cb4db4444bafE+0xdc>
  cc:	d37ff901 	lsl	x1, x8, #1
  d0:	aa1503e0 	mov	x0, x21
  d4:	94000000 	bl	0 <_ZN15crossbeam_deque5deque15Worker$LT$T$GT$6resize17h356162248feccb3cE.llvm.1173454447793668956>
  d8:	f9408a68 	ldr	x8, [x19,#272]
  dc:	f9408669 	ldr	x9, [x19,#264]
  e0:	d1000508 	sub	x8, x8, #0x1
  e4:	8a1b0108 	and	x8, x8, x27
  e8:	90000018 	adrp	x24, 0 <_ZN83_$LT$rayon_core..job..StackJob$LT$L$C$F$C$R$GT$$u20$as$u20$rayon_core..job..Job$GT$7execute17h6a247ce9772c226eE.llvm.16290411295856443344>
  ec:	8b081128 	add	x8, x9, x8, lsl #4
  f0:	9102c3e9 	add	x9, sp, #0xb0
  f4:	91000318 	add	x24, x24, #0x0
  f8:	f9000109 	str	x9, [x8]
  fc:	f9000518 	str	x24, [x8,#8]
 100:	d5033bbf 	dmb	ish
 104:	f9408268 	ldr	x8, [x19,#256]
 108:	91000769 	add	x9, x27, #0x1
 10c:	91042108 	add	x8, x8, #0x108
 110:	c89ffd09 	stlr	x9, [x8]
 114:	f9409a69 	ldr	x9, [x19,#304]
 118:	cb1a0328 	sub	x8, x25, x26
 11c:	9106a120 	add	x0, x9, #0x1a8
 120:	9107412a 	add	x10, x9, #0x1d0
 124:	c8dffd4b 	ldar	x11, [x10]
 128:	37a0016b 	tbnz	w11, #20, 154 <_ZN101_$LT$std..panic..AssertUnwindSafe$LT$F$GT$$u20$as$u20$core..ops..function..FnOnce$LT$$LP$$RP$$GT$$GT$9call_once17h12d0cb4db4444bafE+0x154>
 12c:	91440169 	add	x9, x11, #0x100, lsl #12
 130:	c85ffd4c 	ldaxr	x12, [x10]
 134:	eb0b019f 	cmp	x12, x11
 138:	54000081 	b.ne	148 <_ZN101_$LT$std..panic..AssertUnwindSafe$LT$F$GT$$u20$as$u20$core..ops..function..FnOnce$LT$$LP$$RP$$GT$$GT$9call_once17h12d0cb4db4444bafE+0x148>
 13c:	c80cfd49 	stlxr	w12, x9, [x10]
 140:	35ffff8c 	cbnz	w12, 130 <_ZN101_$LT$std..panic..AssertUnwindSafe$LT$F$GT$$u20$as$u20$core..ops..function..FnOnce$LT$$LP$$RP$$GT$$GT$9call_once17h12d0cb4db4444bafE+0x130>
 144:	14000005 	b	158 <_ZN101_$LT$std..panic..AssertUnwindSafe$LT$F$GT$$u20$as$u20$core..ops..function..FnOnce$LT$$LP$$RP$$GT$$GT$9call_once17h12d0cb4db4444bafE+0x158>
 148:	d5033f5f 	clrex
 14c:	c8dffd4b 	ldar	x11, [x10]
 150:	36a7feeb 	tbz	w11, #20, 12c <_ZN101_$LT$std..panic..AssertUnwindSafe$LT$F$GT$$u20$as$u20$core..ops..function..FnOnce$LT$$LP$$RP$$GT$$GT$9call_once17h12d0cb4db4444bafE+0x12c>
 154:	aa0b03e9 	mov	x9, x11
 158:	9240252a 	and	x10, x9, #0x3ff
 15c:	b400016a 	cbz	x10, 188 <_ZN101_$LT$std..panic..AssertUnwindSafe$LT$F$GT$$u20$as$u20$core..ops..function..FnOnce$LT$$LP$$RP$$GT$$GT$9call_once17h12d0cb4db4444bafE+0x188>
 160:	f100011f 	cmp	x8, #0x0
 164:	5400008d 	b.le	174 <_ZN101_$LT$std..panic..AssertUnwindSafe$LT$F$GT$$u20$as$u20$core..ops..function..FnOnce$LT$$LP$$RP$$GT$$GT$9call_once17h12d0cb4db4444bafE+0x174>
 168:	52800021 	mov	w1, #0x1                   	// #1
 16c:	94000000 	bl	0 <_ZN10rayon_core5sleep5Sleep16wake_any_threads17hf99abf617ce5bd7dE>
 170:	14000006 	b	188 <_ZN101_$LT$std..panic..AssertUnwindSafe$LT$F$GT$$u20$as$u20$core..ops..function..FnOnce$LT$$LP$$RP$$GT$$GT$9call_once17h12d0cb4db4444bafE+0x188>
 174:	d34a4d28 	ubfx	x8, x9, #10, #10
 178:	cb0a0108 	sub	x8, x8, x10
 17c:	35000068 	cbnz	w8, 188 <_ZN101_$LT$std..panic..AssertUnwindSafe$LT$F$GT$$u20$as$u20$core..ops..function..FnOnce$LT$$LP$$RP$$GT$$GT$9call_once17h12d0cb4db4444bafE+0x188>
 180:	52800021 	mov	w1, #0x1                   	// #1
 184:	94000000 	bl	0 <_ZN10rayon_core5sleep5Sleep16wake_any_threads17hf99abf617ce5bd7dE>
 188:	f94002e0 	ldr	x0, [x23]
 18c:	ad4407e0 	ldp	q0, q1, [sp,#128]
 190:	f94053e8 	ldr	x8, [sp,#160]
 194:	a9400ec2 	ldp	x2, x3, [x22]
 198:	ad0987e0 	stp	q0, q1, [sp,#304]
 19c:	f900abe8 	str	x8, [sp,#336]
 1a0:	9104c3e4 	add	x4, sp, #0x130
 1a4:	52800021 	mov	w1, #0x1                   	// #1
 1a8:	aa1403e5 	mov	x5, x20
 1ac:	94000000 	bl	0 <_ZN5rayon4iter8plumbing24bridge_producer_consumer6helper17h3e421240823759dfE>
 1b0:	9102c3f4 	add	x20, sp, #0xb0
 1b4:	14000002 	b	1bc <_ZN101_$LT$std..panic..AssertUnwindSafe$LT$F$GT$$u20$as$u20$core..ops..function..FnOnce$LT$$LP$$RP$$GT$$GT$9call_once17h12d0cb4db4444bafE+0x1bc>
 1b8:	d63f0020 	blr	x1
 1bc:	c8dffe88 	ldar	x8, [x20]
 1c0:	f1000d1f 	cmp	x8, #0x3
 1c4:	54000360 	b.eq	230 <_ZN101_$LT$std..panic..AssertUnwindSafe$LT$F$GT$$u20$as$u20$core..ops..function..FnOnce$LT$$LP$$RP$$GT$$GT$9call_once17h12d0cb4db4444bafE+0x230>
 1c8:	aa1503e0 	mov	x0, x21
 1cc:	94000000 	bl	0 <_ZN15crossbeam_deque5deque15Worker$LT$T$GT$3pop17he9480c323ec38c84E>
 1d0:	b4000221 	cbz	x1, 214 <_ZN101_$LT$std..panic..AssertUnwindSafe$LT$F$GT$$u20$as$u20$core..ops..function..FnOnce$LT$$LP$$RP$$GT$$GT$9call_once17h12d0cb4db4444bafE+0x214>
 1d4:	eb14001f 	cmp	x0, x20
 1d8:	54ffff01 	b.ne	1b8 <_ZN101_$LT$std..panic..AssertUnwindSafe$LT$F$GT$$u20$as$u20$core..ops..function..FnOnce$LT$$LP$$RP$$GT$$GT$9call_once17h12d0cb4db4444bafE+0x1b8>
 1dc:	eb18003f 	cmp	x1, x24
 1e0:	54fffec1 	b.ne	1b8 <_ZN101_$LT$std..panic..AssertUnwindSafe$LT$F$GT$$u20$as$u20$core..ops..function..FnOnce$LT$$LP$$RP$$GT$$GT$9call_once17h12d0cb4db4444bafE+0x1b8>
 1e4:	ad4787e0 	ldp	q0, q1, [sp,#240]
 1e8:	ad488fe2 	ldp	q2, q3, [sp,#272]
 1ec:	ad0b87e0 	stp	q0, q1, [sp,#368]
 1f0:	ad4587e0 	ldp	q0, q1, [sp,#176]
 1f4:	ad0c8fe2 	stp	q2, q3, [sp,#400]
 1f8:	ad468fe2 	ldp	q2, q3, [sp,#208]
 1fc:	ad0987e0 	stp	q0, q1, [sp,#304]
 200:	ad0a8fe2 	stp	q2, q3, [sp,#336]
 204:	9104c3e0 	add	x0, sp, #0x130
 208:	52800021 	mov	w1, #0x1                   	// #1
 20c:	94000000 	bl	0 <_ZN10rayon_core3job25StackJob$LT$L$C$F$C$R$GT$10run_inline17h9342d354f0936cdfE>
 210:	1400000b 	b	23c <_ZN101_$LT$std..panic..AssertUnwindSafe$LT$F$GT$$u20$as$u20$core..ops..function..FnOnce$LT$$LP$$RP$$GT$$GT$9call_once17h12d0cb4db4444bafE+0x23c>
 214:	9102c3e8 	add	x8, sp, #0xb0
 218:	c8dffd08 	ldar	x8, [x8]
 21c:	f1000d1f 	cmp	x8, #0x3
 220:	54000080 	b.eq	230 <_ZN101_$LT$std..panic..AssertUnwindSafe$LT$F$GT$$u20$as$u20$core..ops..function..FnOnce$LT$$LP$$RP$$GT$$GT$9call_once17h12d0cb4db4444bafE+0x230>
 224:	9102c3e1 	add	x1, sp, #0xb0
 228:	aa1303e0 	mov	x0, x19
 22c:	94000000 	bl	0 <_ZN10rayon_core8registry12WorkerThread15wait_until_cold17h247d61e1f4b74d9eE>
 230:	f9408fe8 	ldr	x8, [sp,#280]
 234:	f100051f 	cmp	x8, #0x1
 238:	54000121 	b.ne	25c <_ZN101_$LT$std..panic..AssertUnwindSafe$LT$F$GT$$u20$as$u20$core..ops..function..FnOnce$LT$$LP$$RP$$GT$$GT$9call_once17h12d0cb4db4444bafE+0x25c>
 23c:	9106c3ff 	add	sp, sp, #0x1b0
 240:	a9454ff4 	ldp	x20, x19, [sp,#80]
 244:	a94457f6 	ldp	x22, x21, [sp,#64]
 248:	a9435ff8 	ldp	x24, x23, [sp,#48]
 24c:	a94267fa 	ldp	x26, x25, [sp,#32]
 250:	a9416ffe 	ldp	x30, x27, [sp,#16]
 254:	f84607fd 	ldr	x29, [sp],#96
 258:	d65f03c0 	ret
 25c:	b40002a8 	cbz	x8, 2b0 <_ZN101_$LT$std..panic..AssertUnwindSafe$LT$F$GT$$u20$as$u20$core..ops..function..FnOnce$LT$$LP$$RP$$GT$$GT$9call_once17h12d0cb4db4444bafE+0x2b0>
 260:	a95207e0 	ldp	x0, x1, [sp,#288]
 264:	94000000 	bl	0 <_ZN10rayon_core6unwind16resume_unwinding17h96957761123900f4E>
 268:	14000023 	b	2f4 <_ZN101_$LT$std..panic..AssertUnwindSafe$LT$F$GT$$u20$as$u20$core..ops..function..FnOnce$LT$$LP$$RP$$GT$$GT$9call_once17h12d0cb4db4444bafE+0x2f4>
 26c:	90000000 	adrp	x0, 0 <anon.db2b10df3057192c385b8a00c302314f.0.llvm.7836057303592255489>
 270:	90000003 	adrp	x3, 0 <anon.db2b10df3057192c385b8a00c302314f.9.llvm.7836057303592255489>
 274:	90000004 	adrp	x4, 0 <anon.db2b10df3057192c385b8a00c302314f.2.llvm.7836057303592255489>
 278:	91000000 	add	x0, x0, #0x0
 27c:	91000063 	add	x3, x3, #0x0
 280:	91000084 	add	x4, x4, #0x0
 284:	9104c3e2 	add	x2, sp, #0x130
 288:	528008c1 	mov	w1, #0x46                  	// #70
 28c:	94000000 	bl	0 <_ZN4core6result13unwrap_failed17h7d932ac07cdd1fc7E>
 290:	d4200020 	brk	#0x1
 294:	90000000 	adrp	x0, 0 <_ZN101_$LT$std..panic..AssertUnwindSafe$LT$F$GT$$u20$as$u20$core..ops..function..FnOnce$LT$$LP$$RP$$GT$$GT$9call_once17h12d0cb4db4444bafE>
 298:	90000002 	adrp	x2, 0 <_ZN101_$LT$std..panic..AssertUnwindSafe$LT$F$GT$$u20$as$u20$core..ops..function..FnOnce$LT$$LP$$RP$$GT$$GT$9call_once17h12d0cb4db4444bafE>
 29c:	91000000 	add	x0, x0, #0x0
 2a0:	91000042 	add	x2, x2, #0x0
 2a4:	528006c1 	mov	w1, #0x36                  	// #54
 2a8:	94000000 	bl	0 <_ZN3std9panicking11begin_panic17h49f6d6cf9017eacfE>
 2ac:	d4200020 	brk	#0x1
 2b0:	90000000 	adrp	x0, 0 <anon.7788f797f7cf28f72c51377fae556ed6.0.llvm.16290411295856443344>
 2b4:	90000002 	adrp	x2, 0 <anon.7788f797f7cf28f72c51377fae556ed6.2.llvm.16290411295856443344>
 2b8:	91000000 	add	x0, x0, #0x0
 2bc:	91000042 	add	x2, x2, #0x0
 2c0:	52800501 	mov	w1, #0x28                  	// #40
 2c4:	94000000 	bl	0 <_ZN3std9panicking11begin_panic17h49f6d6cf9017eacfE>
 2c8:	1400000b 	b	2f4 <_ZN101_$LT$std..panic..AssertUnwindSafe$LT$F$GT$$u20$as$u20$core..ops..function..FnOnce$LT$$LP$$RP$$GT$$GT$9call_once17h12d0cb4db4444bafE+0x2f4>
 2cc:	14000002 	b	2d4 <_ZN101_$LT$std..panic..AssertUnwindSafe$LT$F$GT$$u20$as$u20$core..ops..function..FnOnce$LT$$LP$$RP$$GT$$GT$9call_once17h12d0cb4db4444bafE+0x2d4>
 2d0:	1400000c 	b	300 <_ZN101_$LT$std..panic..AssertUnwindSafe$LT$F$GT$$u20$as$u20$core..ops..function..FnOnce$LT$$LP$$RP$$GT$$GT$9call_once17h12d0cb4db4444bafE+0x300>
 2d4:	aa0003f3 	mov	x19, x0
 2d8:	1400000d 	b	30c <_ZN101_$LT$std..panic..AssertUnwindSafe$LT$F$GT$$u20$as$u20$core..ops..function..FnOnce$LT$$LP$$RP$$GT$$GT$9call_once17h12d0cb4db4444bafE+0x30c>
 2dc:	94000000 	bl	0 <_ZN3std9panicking3try7cleanup17h0203421b683548f8E>
 2e0:	aa0003e2 	mov	x2, x0
 2e4:	aa0103e3 	mov	x3, x1
 2e8:	9102c3e1 	add	x1, sp, #0xb0
 2ec:	aa1303e0 	mov	x0, x19
 2f0:	94000000 	bl	0 <_ZN10rayon_core4join23join_recover_from_panic17h3239122033fd1cffE>
 2f4:	d4200020 	brk	#0x1
 2f8:	14000002 	b	300 <_ZN101_$LT$std..panic..AssertUnwindSafe$LT$F$GT$$u20$as$u20$core..ops..function..FnOnce$LT$$LP$$RP$$GT$$GT$9call_once17h12d0cb4db4444bafE+0x300>
 2fc:	14000001 	b	300 <_ZN101_$LT$std..panic..AssertUnwindSafe$LT$F$GT$$u20$as$u20$core..ops..function..FnOnce$LT$$LP$$RP$$GT$$GT$9call_once17h12d0cb4db4444bafE+0x300>
 300:	aa0003f3 	mov	x19, x0
 304:	9102c3e0 	add	x0, sp, #0xb0
 308:	94000000 	bl	0 <_ZN101_$LT$std..panic..AssertUnwindSafe$LT$F$GT$$u20$as$u20$core..ops..function..FnOnce$LT$$LP$$RP$$GT$$GT$9call_once17h12d0cb4db4444bafE>
 30c:	aa1303e0 	mov	x0, x19
 310:	94000000 	bl	0 <_Unwind_Resume>
 314:	d4200020 	brk	#0x1

Disassembly of section .text._ZN101_$LT$std..panic..AssertUnwindSafe$LT$F$GT$$u20$as$u20$core..ops..function..FnOnce$LT$$LP$$RP$$GT$$GT$9call_once17h4c5c84cbb644fbbaE:

0000000000000000 <_ZN101_$LT$std..panic..AssertUnwindSafe$LT$F$GT$$u20$as$u20$core..ops..function..FnOnce$LT$$LP$$RP$$GT$$GT$9call_once17h4c5c84cbb644fbbaE>:
   0:	d10103ff 	sub	sp, sp, #0x40
   4:	f9001bfe 	str	x30, [sp,#48]
   8:	a9402408 	ldp	x8, x9, [x0]
   c:	3941000a 	ldrb	w10, [x0,#64]
  10:	ad408400 	ldp	q0, q1, [x0,#16]
  14:	a943140b 	ldp	x11, x5, [x0,#48]
  18:	f9400100 	ldr	x0, [x8]
  1c:	a9400d22 	ldp	x2, x3, [x9]
  20:	7100015f 	cmp	w10, #0x0
  24:	1a9f07e1 	cset	w1, ne
  28:	910003e4 	mov	x4, sp
  2c:	f90013eb 	str	x11, [sp,#32]
  30:	ad0007e0 	stp	q0, q1, [sp]
  34:	94000000 	bl	0 <_ZN5rayon4iter8plumbing24bridge_producer_consumer6helper17h3e421240823759dfE>
  38:	f9401bfe 	ldr	x30, [sp,#48]
  3c:	910103ff 	add	sp, sp, #0x40
  40:	d65f03c0 	ret

Disassembly of section .text._ZN101_$LT$std..panic..AssertUnwindSafe$LT$F$GT$$u20$as$u20$core..ops..function..FnOnce$LT$$LP$$RP$$GT$$GT$9call_once17h502ced59f72702b7E:

0000000000000000 <_ZN101_$LT$std..panic..AssertUnwindSafe$LT$F$GT$$u20$as$u20$core..ops..function..FnOnce$LT$$LP$$RP$$GT$$GT$9call_once17h502ced59f72702b7E>:
   0:	d10103ff 	sub	sp, sp, #0x40
   4:	f9001bfe 	str	x30, [sp,#48]
   8:	a9402809 	ldp	x9, x10, [x0]
   c:	3941400b 	ldrb	w11, [x0,#80]
  10:	a9411404 	ldp	x4, x5, [x0,#16]
  14:	ad410400 	ldp	q0, q1, [x0,#32]
  18:	3dc01002 	ldr	q2, [x0,#64]
  1c:	f9400120 	ldr	x0, [x9]
  20:	a9400d42 	ldp	x2, x3, [x10]
  24:	7100017f 	cmp	w11, #0x0
  28:	1a9f07e1 	cset	w1, ne
  2c:	910003e6 	mov	x6, sp
  30:	ad008be1 	stp	q1, q2, [sp,#16]
  34:	3d8003e0 	str	q0, [sp]
  38:	94000000 	bl	0 <_ZN5rayon4iter8plumbing24bridge_producer_consumer6helper17h75e51145a76dcbf1E>
  3c:	f9401bfe 	ldr	x30, [sp,#48]
  40:	910103ff 	add	sp, sp, #0x40
  44:	d65f03c0 	ret

Disassembly of section .text._ZN101_$LT$std..panic..AssertUnwindSafe$LT$F$GT$$u20$as$u20$core..ops..function..FnOnce$LT$$LP$$RP$$GT$$GT$9call_once17h73c5cc5c589e3040E:

0000000000000000 <_ZN101_$LT$std..panic..AssertUnwindSafe$LT$F$GT$$u20$as$u20$core..ops..function..FnOnce$LT$$LP$$RP$$GT$$GT$9call_once17h73c5cc5c589e3040E>:
   0:	d107c3ff 	sub	sp, sp, #0x1f0
   4:	a9197bfd 	stp	x29, x30, [sp,#400]
   8:	a91a6ffc 	stp	x28, x27, [sp,#416]
   c:	a91b67fa 	stp	x26, x25, [sp,#432]
  10:	a91c5ff8 	stp	x24, x23, [sp,#448]
  14:	a91d57f6 	stp	x22, x21, [sp,#464]
  18:	a91e4ff4 	stp	x20, x19, [sp,#480]
  1c:	aa0803f3 	mov	x19, x8
  20:	ad400400 	ldp	q0, q1, [x0]
  24:	ad410c02 	ldp	q2, q3, [x0,#32]
  28:	3dc01804 	ldr	q4, [x0,#96]
  2c:	f9403808 	ldr	x8, [x0,#112]
  30:	a944641a 	ldp	x26, x25, [x0,#64]
  34:	a9455016 	ldp	x22, x20, [x0,#80]
  38:	ad028fe2 	stp	q2, q3, [sp,#80]
  3c:	ad0187e0 	stp	q0, q1, [sp,#48]
  40:	f90013e8 	str	x8, [sp,#32]
  44:	3d8007e4 	str	q4, [sp,#16]
  48:	94000000 	bl	0 <_ZN10rayon_core8registry19WORKER_THREAD_STATE7__getit17h4f910a206b76a4f3E>
  4c:	b4001260 	cbz	x0, 298 <_ZN101_$LT$std..panic..AssertUnwindSafe$LT$F$GT$$u20$as$u20$core..ops..function..FnOnce$LT$$LP$$RP$$GT$$GT$9call_once17h73c5cc5c589e3040E+0x298>
  50:	f90007f4 	str	x20, [sp,#8]
  54:	f9400014 	ldr	x20, [x0]
  58:	b4001354 	cbz	x20, 2c0 <_ZN101_$LT$std..panic..AssertUnwindSafe$LT$F$GT$$u20$as$u20$core..ops..function..FnOnce$LT$$LP$$RP$$GT$$GT$9call_once17h73c5cc5c589e3040E+0x2c0>
  5c:	3dc007e0 	ldr	q0, [sp,#16]
  60:	f94013ea 	ldr	x10, [sp,#32]
  64:	ad418be1 	ldp	q1, q2, [sp,#48]
  68:	910223f8 	add	x24, sp, #0x88
  6c:	3d801fe0 	str	q0, [sp,#112]
  70:	ad428fe0 	ldp	q0, q3, [sp,#80]
  74:	f9409288 	ldr	x8, [x20,#288]
  78:	9104c289 	add	x9, x20, #0x130
  7c:	a9087fea 	stp	x10, xzr, [sp,#128]
  80:	390283ff 	strb	wzr, [sp,#160]
  84:	a90923e9 	stp	x9, x8, [sp,#144]
  88:	ad010b01 	stp	q1, q2, [x24,#32]
  8c:	ad020f00 	stp	q0, q3, [x24,#64]
  90:	f90077ff 	str	xzr, [sp,#232]
  94:	f9408288 	ldr	x8, [x20,#256]
  98:	91040297 	add	x23, x20, #0x100
  9c:	f940851c 	ldr	x28, [x8,#264]
  a0:	91040108 	add	x8, x8, #0x100
  a4:	c8dffd1d 	ldar	x29, [x8]
  a8:	f9408288 	ldr	x8, [x20,#256]
  ac:	f9408515 	ldr	x21, [x8,#264]
  b0:	91040108 	add	x8, x8, #0x100
  b4:	c8dffd09 	ldar	x9, [x8]
  b8:	f9408a88 	ldr	x8, [x20,#272]
  bc:	cb0902a9 	sub	x9, x21, x9
  c0:	eb08013f 	cmp	x9, x8
  c4:	540000ab 	b.lt	d8 <_ZN101_$LT$std..panic..AssertUnwindSafe$LT$F$GT$$u20$as$u20$core..ops..function..FnOnce$LT$$LP$$RP$$GT$$GT$9call_once17h73c5cc5c589e3040E+0xd8>
  c8:	d37ff901 	lsl	x1, x8, #1
  cc:	aa1703e0 	mov	x0, x23
  d0:	94000000 	bl	0 <_ZN15crossbeam_deque5deque15Worker$LT$T$GT$6resize17h356162248feccb3cE.llvm.1173454447793668956>
  d4:	f9408a88 	ldr	x8, [x20,#272]
  d8:	f9408689 	ldr	x9, [x20,#264]
  dc:	d1000508 	sub	x8, x8, #0x1
  e0:	8a150108 	and	x8, x8, x21
  e4:	9000001b 	adrp	x27, 0 <_ZN83_$LT$rayon_core..job..StackJob$LT$L$C$F$C$R$GT$$u20$as$u20$rayon_core..job..Job$GT$7execute17h5bc8380aaee11fffE.llvm.16290411295856443344>
  e8:	8b081128 	add	x8, x9, x8, lsl #4
  ec:	910223e9 	add	x9, sp, #0x88
  f0:	9100037b 	add	x27, x27, #0x0
  f4:	f9000109 	str	x9, [x8]
  f8:	f900051b 	str	x27, [x8,#8]
  fc:	d5033bbf 	dmb	ish
 100:	f9408288 	ldr	x8, [x20,#256]
 104:	910006a9 	add	x9, x21, #0x1
 108:	91042108 	add	x8, x8, #0x108
 10c:	c89ffd09 	stlr	x9, [x8]
 110:	f9409a89 	ldr	x9, [x20,#304]
 114:	cb1d0388 	sub	x8, x28, x29
 118:	9106a120 	add	x0, x9, #0x1a8
 11c:	9107412a 	add	x10, x9, #0x1d0
 120:	c8dffd4b 	ldar	x11, [x10]
 124:	37a0016b 	tbnz	w11, #20, 150 <_ZN101_$LT$std..panic..AssertUnwindSafe$LT$F$GT$$u20$as$u20$core..ops..function..FnOnce$LT$$LP$$RP$$GT$$GT$9call_once17h73c5cc5c589e3040E+0x150>
 128:	91440169 	add	x9, x11, #0x100, lsl #12
 12c:	c85ffd4c 	ldaxr	x12, [x10]
 130:	eb0b019f 	cmp	x12, x11
 134:	54000081 	b.ne	144 <_ZN101_$LT$std..panic..AssertUnwindSafe$LT$F$GT$$u20$as$u20$core..ops..function..FnOnce$LT$$LP$$RP$$GT$$GT$9call_once17h73c5cc5c589e3040E+0x144>
 138:	c80cfd49 	stlxr	w12, x9, [x10]
 13c:	35ffff8c 	cbnz	w12, 12c <_ZN101_$LT$std..panic..AssertUnwindSafe$LT$F$GT$$u20$as$u20$core..ops..function..FnOnce$LT$$LP$$RP$$GT$$GT$9call_once17h73c5cc5c589e3040E+0x12c>
 140:	14000005 	b	154 <_ZN101_$LT$std..panic..AssertUnwindSafe$LT$F$GT$$u20$as$u20$core..ops..function..FnOnce$LT$$LP$$RP$$GT$$GT$9call_once17h73c5cc5c589e3040E+0x154>
 144:	d5033f5f 	clrex
 148:	c8dffd4b 	ldar	x11, [x10]
 14c:	36a7feeb 	tbz	w11, #20, 128 <_ZN101_$LT$std..panic..AssertUnwindSafe$LT$F$GT$$u20$as$u20$core..ops..function..FnOnce$LT$$LP$$RP$$GT$$GT$9call_once17h73c5cc5c589e3040E+0x128>
 150:	aa0b03e9 	mov	x9, x11
 154:	9240252a 	and	x10, x9, #0x3ff
 158:	b400016a 	cbz	x10, 184 <_ZN101_$LT$std..panic..AssertUnwindSafe$LT$F$GT$$u20$as$u20$core..ops..function..FnOnce$LT$$LP$$RP$$GT$$GT$9call_once17h73c5cc5c589e3040E+0x184>
 15c:	f100011f 	cmp	x8, #0x0
 160:	5400008d 	b.le	170 <_ZN101_$LT$std..panic..AssertUnwindSafe$LT$F$GT$$u20$as$u20$core..ops..function..FnOnce$LT$$LP$$RP$$GT$$GT$9call_once17h73c5cc5c589e3040E+0x170>
 164:	52800021 	mov	w1, #0x1                   	// #1
 168:	94000000 	bl	0 <_ZN10rayon_core5sleep5Sleep16wake_any_threads17hf99abf617ce5bd7dE>
 16c:	14000006 	b	184 <_ZN101_$LT$std..panic..AssertUnwindSafe$LT$F$GT$$u20$as$u20$core..ops..function..FnOnce$LT$$LP$$RP$$GT$$GT$9call_once17h73c5cc5c589e3040E+0x184>
 170:	d34a4d28 	ubfx	x8, x9, #10, #10
 174:	cb0a0108 	sub	x8, x8, x10
 178:	35000068 	cbnz	w8, 184 <_ZN101_$LT$std..panic..AssertUnwindSafe$LT$F$GT$$u20$as$u20$core..ops..function..FnOnce$LT$$LP$$RP$$GT$$GT$9call_once17h73c5cc5c589e3040E+0x184>
 17c:	52800021 	mov	w1, #0x1                   	// #1
 180:	94000000 	bl	0 <_ZN10rayon_core5sleep5Sleep16wake_any_threads17hf99abf617ce5bd7dE>
 184:	f9400340 	ldr	x0, [x26]
 188:	3dc01fe0 	ldr	q0, [sp,#112]
 18c:	f94043e8 	ldr	x8, [sp,#128]
 190:	a9400f22 	ldp	x2, x3, [x25]
 194:	3d8047e0 	str	q0, [sp,#272]
 198:	f90093e8 	str	x8, [sp,#288]
 19c:	f94007e5 	ldr	x5, [sp,#8]
 1a0:	910443e6 	add	x6, sp, #0x110
 1a4:	52800021 	mov	w1, #0x1                   	// #1
 1a8:	aa1603e4 	mov	x4, x22
 1ac:	94000000 	bl	0 <_ZN5rayon4iter8plumbing24bridge_producer_consumer6helper17h4ffad98548c58f69E>
 1b0:	910223f5 	add	x21, sp, #0x88
 1b4:	a91007e0 	stp	x0, x1, [sp,#256]
 1b8:	14000002 	b	1c0 <_ZN101_$LT$std..panic..AssertUnwindSafe$LT$F$GT$$u20$as$u20$core..ops..function..FnOnce$LT$$LP$$RP$$GT$$GT$9call_once17h73c5cc5c589e3040E+0x1c0>
 1bc:	d63f0020 	blr	x1
 1c0:	c8dffea8 	ldar	x8, [x21]
 1c4:	f1000d1f 	cmp	x8, #0x3
 1c8:	54000420 	b.eq	24c <_ZN101_$LT$std..panic..AssertUnwindSafe$LT$F$GT$$u20$as$u20$core..ops..function..FnOnce$LT$$LP$$RP$$GT$$GT$9call_once17h73c5cc5c589e3040E+0x24c>
 1cc:	aa1703e0 	mov	x0, x23
 1d0:	94000000 	bl	0 <_ZN15crossbeam_deque5deque15Worker$LT$T$GT$3pop17he9480c323ec38c84E>
 1d4:	b40002c1 	cbz	x1, 22c <_ZN101_$LT$std..panic..AssertUnwindSafe$LT$F$GT$$u20$as$u20$core..ops..function..FnOnce$LT$$LP$$RP$$GT$$GT$9call_once17h73c5cc5c589e3040E+0x22c>
 1d8:	eb15001f 	cmp	x0, x21
 1dc:	54ffff01 	b.ne	1bc <_ZN101_$LT$std..panic..AssertUnwindSafe$LT$F$GT$$u20$as$u20$core..ops..function..FnOnce$LT$$LP$$RP$$GT$$GT$9call_once17h73c5cc5c589e3040E+0x1bc>
 1e0:	eb1b003f 	cmp	x1, x27
 1e4:	54fffec1 	b.ne	1bc <_ZN101_$LT$std..panic..AssertUnwindSafe$LT$F$GT$$u20$as$u20$core..ops..function..FnOnce$LT$$LP$$RP$$GT$$GT$9call_once17h73c5cc5c589e3040E+0x1bc>
 1e8:	ad428700 	ldp	q0, q1, [x24,#80]
 1ec:	ad418b04 	ldp	q4, q2, [x24,#48]
 1f0:	f9407fe8 	ldr	x8, [sp,#248]
 1f4:	3cc883e3 	ldur	q3, [sp,#136]
 1f8:	3d805fe1 	str	q1, [sp,#368]
 1fc:	ad0a83e2 	stp	q2, q0, [sp,#336]
 200:	ad408700 	ldp	q0, q1, [x24,#16]
 204:	52800035 	mov	w21, #0x1                   	// #1
 208:	f900c3e8 	str	x8, [sp,#384]
 20c:	ad0883e3 	stp	q3, q0, [sp,#272]
 210:	ad0993e1 	stp	q1, q4, [sp,#304]
 214:	910443e0 	add	x0, sp, #0x110
 218:	52800021 	mov	w1, #0x1                   	// #1
 21c:	94000000 	bl	0 <_ZN10rayon_core3job25StackJob$LT$L$C$F$C$R$GT$10run_inline17hdbb09251790c8574E>
 220:	3dc043e0 	ldr	q0, [sp,#256]
 224:	3d800260 	str	q0, [x19]
 228:	14000010 	b	268 <_ZN101_$LT$std..panic..AssertUnwindSafe$LT$F$GT$$u20$as$u20$core..ops..function..FnOnce$LT$$LP$$RP$$GT$$GT$9call_once17h73c5cc5c589e3040E+0x268>
 22c:	910223e8 	add	x8, sp, #0x88
 230:	c8dffd08 	ldar	x8, [x8]
 234:	f1000d1f 	cmp	x8, #0x3
 238:	540000a0 	b.eq	24c <_ZN101_$LT$std..panic..AssertUnwindSafe$LT$F$GT$$u20$as$u20$core..ops..function..FnOnce$LT$$LP$$RP$$GT$$GT$9call_once17h73c5cc5c589e3040E+0x24c>
 23c:	910223e1 	add	x1, sp, #0x88
 240:	aa1403e0 	mov	x0, x20
 244:	2a1f03f5 	mov	w21, wzr
 248:	94000000 	bl	0 <_ZN10rayon_core8registry12WorkerThread15wait_until_cold17h247d61e1f4b74d9eE>
 24c:	a94e83ea 	ldp	x10, x0, [sp,#232]
 250:	a95023e9 	ldp	x9, x8, [sp,#256]
 254:	f9407fe1 	ldr	x1, [sp,#248]
 258:	f100055f 	cmp	x10, #0x1
 25c:	a91123e9 	stp	x9, x8, [sp,#272]
 260:	54000161 	b.ne	28c <_ZN101_$LT$std..panic..AssertUnwindSafe$LT$F$GT$$u20$as$u20$core..ops..function..FnOnce$LT$$LP$$RP$$GT$$GT$9call_once17h73c5cc5c589e3040E+0x28c>
 264:	a9002269 	stp	x9, x8, [x19]
 268:	a9010660 	stp	x0, x1, [x19,#16]
 26c:	a95e4ff4 	ldp	x20, x19, [sp,#480]
 270:	a95d57f6 	ldp	x22, x21, [sp,#464]
 274:	a95c5ff8 	ldp	x24, x23, [sp,#448]
 278:	a95b67fa 	ldp	x26, x25, [sp,#432]
 27c:	a95a6ffc 	ldp	x28, x27, [sp,#416]
 280:	a9597bfd 	ldp	x29, x30, [sp,#400]
 284:	9107c3ff 	add	sp, sp, #0x1f0
 288:	d65f03c0 	ret
 28c:	b400028a 	cbz	x10, 2dc <_ZN101_$LT$std..panic..AssertUnwindSafe$LT$F$GT$$u20$as$u20$core..ops..function..FnOnce$LT$$LP$$RP$$GT$$GT$9call_once17h73c5cc5c589e3040E+0x2dc>
 290:	94000000 	bl	0 <_ZN10rayon_core6unwind16resume_unwinding17h96957761123900f4E>
 294:	14000028 	b	334 <_ZN101_$LT$std..panic..AssertUnwindSafe$LT$F$GT$$u20$as$u20$core..ops..function..FnOnce$LT$$LP$$RP$$GT$$GT$9call_once17h73c5cc5c589e3040E+0x334>
 298:	90000000 	adrp	x0, 0 <anon.db2b10df3057192c385b8a00c302314f.0.llvm.7836057303592255489>
 29c:	90000003 	adrp	x3, 0 <anon.db2b10df3057192c385b8a00c302314f.9.llvm.7836057303592255489>
 2a0:	90000004 	adrp	x4, 0 <anon.db2b10df3057192c385b8a00c302314f.2.llvm.7836057303592255489>
 2a4:	91000000 	add	x0, x0, #0x0
 2a8:	91000063 	add	x3, x3, #0x0
 2ac:	91000084 	add	x4, x4, #0x0
 2b0:	910443e2 	add	x2, sp, #0x110
 2b4:	528008c1 	mov	w1, #0x46                  	// #70
 2b8:	94000000 	bl	0 <_ZN4core6result13unwrap_failed17h7d932ac07cdd1fc7E>
 2bc:	d4200020 	brk	#0x1
 2c0:	90000000 	adrp	x0, 0 <_ZN101_$LT$std..panic..AssertUnwindSafe$LT$F$GT$$u20$as$u20$core..ops..function..FnOnce$LT$$LP$$RP$$GT$$GT$9call_once17h73c5cc5c589e3040E>
 2c4:	90000002 	adrp	x2, 0 <_ZN101_$LT$std..panic..AssertUnwindSafe$LT$F$GT$$u20$as$u20$core..ops..function..FnOnce$LT$$LP$$RP$$GT$$GT$9call_once17h73c5cc5c589e3040E>
 2c8:	91000000 	add	x0, x0, #0x0
 2cc:	91000042 	add	x2, x2, #0x0
 2d0:	528006c1 	mov	w1, #0x36                  	// #54
 2d4:	94000000 	bl	0 <_ZN3std9panicking11begin_panic17h49f6d6cf9017eacfE>
 2d8:	d4200020 	brk	#0x1
 2dc:	90000000 	adrp	x0, 0 <anon.7788f797f7cf28f72c51377fae556ed6.0.llvm.16290411295856443344>
 2e0:	90000002 	adrp	x2, 0 <anon.7788f797f7cf28f72c51377fae556ed6.2.llvm.16290411295856443344>
 2e4:	91000000 	add	x0, x0, #0x0
 2e8:	91000042 	add	x2, x2, #0x0
 2ec:	52800501 	mov	w1, #0x28                  	// #40
 2f0:	94000000 	bl	0 <_ZN3std9panicking11begin_panic17h49f6d6cf9017eacfE>
 2f4:	14000010 	b	334 <_ZN101_$LT$std..panic..AssertUnwindSafe$LT$F$GT$$u20$as$u20$core..ops..function..FnOnce$LT$$LP$$RP$$GT$$GT$9call_once17h73c5cc5c589e3040E+0x334>
 2f8:	aa0003f3 	mov	x19, x0
 2fc:	910443e0 	add	x0, sp, #0x110
 300:	94000000 	bl	0 <_ZN101_$LT$std..panic..AssertUnwindSafe$LT$F$GT$$u20$as$u20$core..ops..function..FnOnce$LT$$LP$$RP$$GT$$GT$9call_once17h73c5cc5c589e3040E>
 304:	14000015 	b	358 <_ZN101_$LT$std..panic..AssertUnwindSafe$LT$F$GT$$u20$as$u20$core..ops..function..FnOnce$LT$$LP$$RP$$GT$$GT$9call_once17h73c5cc5c589e3040E+0x358>
 308:	aa0003f3 	mov	x19, x0
 30c:	910403e0 	add	x0, sp, #0x100
 310:	94000000 	bl	0 <_ZN101_$LT$std..panic..AssertUnwindSafe$LT$F$GT$$u20$as$u20$core..ops..function..FnOnce$LT$$LP$$RP$$GT$$GT$9call_once17h73c5cc5c589e3040E>
 314:	360001f5 	tbz	w21, #0, 350 <_ZN101_$LT$std..panic..AssertUnwindSafe$LT$F$GT$$u20$as$u20$core..ops..function..FnOnce$LT$$LP$$RP$$GT$$GT$9call_once17h73c5cc5c589e3040E+0x350>
 318:	14000010 	b	358 <_ZN101_$LT$std..panic..AssertUnwindSafe$LT$F$GT$$u20$as$u20$core..ops..function..FnOnce$LT$$LP$$RP$$GT$$GT$9call_once17h73c5cc5c589e3040E+0x358>
 31c:	94000000 	bl	0 <_ZN3std9panicking3try7cleanup17h0203421b683548f8E>
 320:	aa0003e2 	mov	x2, x0
 324:	aa0103e3 	mov	x3, x1
 328:	910223e1 	add	x1, sp, #0x88
 32c:	aa1403e0 	mov	x0, x20
 330:	94000000 	bl	0 <_ZN10rayon_core4join23join_recover_from_panic17h3239122033fd1cffE>
 334:	d4200020 	brk	#0x1
 338:	14000001 	b	33c <_ZN101_$LT$std..panic..AssertUnwindSafe$LT$F$GT$$u20$as$u20$core..ops..function..FnOnce$LT$$LP$$RP$$GT$$GT$9call_once17h73c5cc5c589e3040E+0x33c>
 33c:	aa0003f3 	mov	x19, x0
 340:	14000004 	b	350 <_ZN101_$LT$std..panic..AssertUnwindSafe$LT$F$GT$$u20$as$u20$core..ops..function..FnOnce$LT$$LP$$RP$$GT$$GT$9call_once17h73c5cc5c589e3040E+0x350>
 344:	aa0003f3 	mov	x19, x0
 348:	910403e0 	add	x0, sp, #0x100
 34c:	94000000 	bl	0 <_ZN101_$LT$std..panic..AssertUnwindSafe$LT$F$GT$$u20$as$u20$core..ops..function..FnOnce$LT$$LP$$RP$$GT$$GT$9call_once17h73c5cc5c589e3040E>
 350:	910223e0 	add	x0, sp, #0x88
 354:	94000000 	bl	0 <_ZN101_$LT$std..panic..AssertUnwindSafe$LT$F$GT$$u20$as$u20$core..ops..function..FnOnce$LT$$LP$$RP$$GT$$GT$9call_once17h73c5cc5c589e3040E>
 358:	aa1303e0 	mov	x0, x19
 35c:	94000000 	bl	0 <_Unwind_Resume>
 360:	d4200020 	brk	#0x1

Disassembly of section .text._ZN101_$LT$std..panic..AssertUnwindSafe$LT$F$GT$$u20$as$u20$core..ops..function..FnOnce$LT$$LP$$RP$$GT$$GT$9call_once17h97a003c92a09cb8aE:

0000000000000000 <_ZN101_$LT$std..panic..AssertUnwindSafe$LT$F$GT$$u20$as$u20$core..ops..function..FnOnce$LT$$LP$$RP$$GT$$GT$9call_once17h97a003c92a09cb8aE>:
   0:	d10103ff 	sub	sp, sp, #0x40
   4:	f9001bfe 	str	x30, [sp,#48]
   8:	a9402408 	ldp	x8, x9, [x0]
   c:	f940080a 	ldr	x10, [x0,#16]
  10:	3cc18000 	ldur	q0, [x0,#24]
  14:	3cc28001 	ldur	q1, [x0,#40]
  18:	f9400108 	ldr	x8, [x8]
  1c:	f9400129 	ldr	x9, [x9]
  20:	a943940b 	ldp	x11, x5, [x0,#56]
  24:	a9400d42 	ldp	x2, x3, [x10]
  28:	910003e4 	mov	x4, sp
  2c:	cb090100 	sub	x0, x8, x9
  30:	52800021 	mov	w1, #0x1                   	// #1
  34:	f90013eb 	str	x11, [sp,#32]
  38:	ad0007e0 	stp	q0, q1, [sp]
  3c:	94000000 	bl	0 <_ZN5rayon4iter8plumbing24bridge_producer_consumer6helper17h3e421240823759dfE>
  40:	f9401bfe 	ldr	x30, [sp,#48]
  44:	910103ff 	add	sp, sp, #0x40
  48:	d65f03c0 	ret

Disassembly of section .text._ZN101_$LT$std..panic..AssertUnwindSafe$LT$F$GT$$u20$as$u20$core..ops..function..FnOnce$LT$$LP$$RP$$GT$$GT$9call_once17hd770bfb7fc05b26eE:

0000000000000000 <_ZN101_$LT$std..panic..AssertUnwindSafe$LT$F$GT$$u20$as$u20$core..ops..function..FnOnce$LT$$LP$$RP$$GT$$GT$9call_once17hd770bfb7fc05b26eE>:
   0:	d100c3ff 	sub	sp, sp, #0x30
   4:	f90013fe 	str	x30, [sp,#32]
   8:	a9402408 	ldp	x8, x9, [x0]
   c:	3940e00a 	ldrb	w10, [x0,#56]
  10:	a9411404 	ldp	x4, x5, [x0,#16]
  14:	3dc00800 	ldr	q0, [x0,#32]
  18:	f940180b 	ldr	x11, [x0,#48]
  1c:	f9400100 	ldr	x0, [x8]
  20:	a9400d22 	ldp	x2, x3, [x9]
  24:	7100015f 	cmp	w10, #0x0
  28:	1a9f07e1 	cset	w1, ne
  2c:	910003e6 	mov	x6, sp
  30:	f9000beb 	str	x11, [sp,#16]
  34:	3d8003e0 	str	q0, [sp]
  38:	94000000 	bl	0 <_ZN5rayon4iter8plumbing24bridge_producer_consumer6helper17h4ffad98548c58f69E>
  3c:	f94013fe 	ldr	x30, [sp,#32]
  40:	9100c3ff 	add	sp, sp, #0x30
  44:	d65f03c0 	ret

Disassembly of section .text._ZN101_$LT$std..panic..AssertUnwindSafe$LT$F$GT$$u20$as$u20$core..ops..function..FnOnce$LT$$LP$$RP$$GT$$GT$9call_once17hfdfac1c5b3289508E:

0000000000000000 <_ZN101_$LT$std..panic..AssertUnwindSafe$LT$F$GT$$u20$as$u20$core..ops..function..FnOnce$LT$$LP$$RP$$GT$$GT$9call_once17hfdfac1c5b3289508E>:
   0:	d100c3ff 	sub	sp, sp, #0x30
   4:	f90013fe 	str	x30, [sp,#32]
   8:	a9402408 	ldp	x8, x9, [x0]
   c:	a941100a 	ldp	x10, x4, [x0,#16]
  10:	f9401005 	ldr	x5, [x0,#32]
  14:	3cc28000 	ldur	q0, [x0,#40]
  18:	f9400108 	ldr	x8, [x8]
  1c:	f9400129 	ldr	x9, [x9]
  20:	f9401c0b 	ldr	x11, [x0,#56]
  24:	a9400d42 	ldp	x2, x3, [x10]
  28:	910003e6 	mov	x6, sp
  2c:	cb090100 	sub	x0, x8, x9
  30:	52800021 	mov	w1, #0x1                   	// #1
  34:	f9000beb 	str	x11, [sp,#16]
  38:	3d8003e0 	str	q0, [sp]
  3c:	94000000 	bl	0 <_ZN5rayon4iter8plumbing24bridge_producer_consumer6helper17h4ffad98548c58f69E>
  40:	f94013fe 	ldr	x30, [sp,#32]
  44:	9100c3ff 	add	sp, sp, #0x30
  48:	d65f03c0 	ret

Disassembly of section .text._ZN106_$LT$rayon..iter..for_each..ForEachConsumer$LT$F$GT$$u20$as$u20$rayon..iter..plumbing..Folder$LT$T$GT$$GT$12consume_iter17heed65ee599f083a0E:

0000000000000000 <_ZN106_$LT$rayon..iter..for_each..ForEachConsumer$LT$F$GT$$u20$as$u20$rayon..iter..plumbing..Folder$LT$T$GT$$GT$12consume_iter17heed65ee599f083a0E>:
   0:	a942242e 	ldp	x14, x9, [x1,#32]
   4:	eb0e012b 	subs	x11, x9, x14
   8:	54000449 	b.ls	90 <_ZN106_$LT$rayon..iter..for_each..ForEachConsumer$LT$F$GT$$u20$as$u20$rayon..iter..plumbing..Folder$LT$T$GT$$GT$12consume_iter17heed65ee599f083a0E+0x90>
   c:	f9400028 	ldr	x8, [x1]
  10:	f940082a 	ldr	x10, [x1,#16]
  14:	f100117f 	cmp	x11, #0x4
  18:	aa0e03ec 	mov	x12, x14
  1c:	54000263 	b.cc	68 <_ZN106_$LT$rayon..iter..for_each..ForEachConsumer$LT$F$GT$$u20$as$u20$rayon..iter..plumbing..Folder$LT$T$GT$$GT$12consume_iter17heed65ee599f083a0E+0x68>
  20:	d37df1cf 	lsl	x15, x14, #3
  24:	927ef56d 	and	x13, x11, #0xfffffffffffffffc
  28:	910041ef 	add	x15, x15, #0x10
  2c:	8b0d01cc 	add	x12, x14, x13
  30:	8b0f010e 	add	x14, x8, x15
  34:	8b0f014f 	add	x15, x10, x15
  38:	aa0d03f0 	mov	x16, x13
  3c:	ad7f85e0 	ldp	q0, q1, [x15,#-16]
  40:	ad7f8dc2 	ldp	q2, q3, [x14,#-16]
  44:	f1001210 	subs	x16, x16, #0x4
  48:	910081ef 	add	x15, x15, #0x20
  4c:	6e201c40 	eor	v0.16b, v2.16b, v0.16b
  50:	6e211c61 	eor	v1.16b, v3.16b, v1.16b
  54:	ad3f85c0 	stp	q0, q1, [x14,#-16]
  58:	910081ce 	add	x14, x14, #0x20
  5c:	54ffff01 	b.ne	3c <_ZN106_$LT$rayon..iter..for_each..ForEachConsumer$LT$F$GT$$u20$as$u20$rayon..iter..plumbing..Folder$LT$T$GT$$GT$12consume_iter17heed65ee599f083a0E+0x3c>
  60:	eb0d017f 	cmp	x11, x13
  64:	54000160 	b.eq	90 <_ZN106_$LT$rayon..iter..for_each..ForEachConsumer$LT$F$GT$$u20$as$u20$rayon..iter..plumbing..Folder$LT$T$GT$$GT$12consume_iter17heed65ee599f083a0E+0x90>
  68:	d37df18b 	lsl	x11, x12, #3
  6c:	cb0c0129 	sub	x9, x9, x12
  70:	8b0b014a 	add	x10, x10, x11
  74:	8b0b0108 	add	x8, x8, x11
  78:	f840854b 	ldr	x11, [x10],#8
  7c:	f940010c 	ldr	x12, [x8]
  80:	f1000529 	subs	x9, x9, #0x1
  84:	ca0b018b 	eor	x11, x12, x11
  88:	f800850b 	str	x11, [x8],#8
  8c:	54ffff61 	b.ne	78 <_ZN106_$LT$rayon..iter..for_each..ForEachConsumer$LT$F$GT$$u20$as$u20$rayon..iter..plumbing..Folder$LT$T$GT$$GT$12consume_iter17heed65ee599f083a0E+0x78>
  90:	d65f03c0 	ret

Disassembly of section .text._ZN106_$LT$rayon..iter..for_each..ForEachConsumer$LT$F$GT$$u20$as$u20$rayon..iter..plumbing..Folder$LT$T$GT$$GT$8complete17he75172bac57d4423E:

0000000000000000 <_ZN106_$LT$rayon..iter..for_each..ForEachConsumer$LT$F$GT$$u20$as$u20$rayon..iter..plumbing..Folder$LT$T$GT$$GT$8complete17he75172bac57d4423E>:
   0:	d65f03c0 	ret

Disassembly of section .text._ZN108_$LT$rayon..iter..for_each..ForEachConsumer$LT$F$GT$$u20$as$u20$rayon..iter..plumbing..Consumer$LT$T$GT$$GT$11into_folder17hbf912ca32a037b62E:

0000000000000000 <_ZN108_$LT$rayon..iter..for_each..ForEachConsumer$LT$F$GT$$u20$as$u20$rayon..iter..plumbing..Consumer$LT$T$GT$$GT$11into_folder17hbf912ca32a037b62E>:
   0:	d65f03c0 	ret

Disassembly of section .text._ZN108_$LT$rayon..iter..for_each..ForEachConsumer$LT$F$GT$$u20$as$u20$rayon..iter..plumbing..Consumer$LT$T$GT$$GT$4full17hf2f4a4818e658f06E:

0000000000000000 <_ZN108_$LT$rayon..iter..for_each..ForEachConsumer$LT$F$GT$$u20$as$u20$rayon..iter..plumbing..Consumer$LT$T$GT$$GT$4full17hf2f4a4818e658f06E>:
   0:	2a1f03e0 	mov	w0, wzr
   4:	d65f03c0 	ret

Disassembly of section .text._ZN108_$LT$rayon..iter..for_each..ForEachConsumer$LT$F$GT$$u20$as$u20$rayon..iter..plumbing..Consumer$LT$T$GT$$GT$8split_at17h4bb752f88c1188acE:

0000000000000000 <_ZN108_$LT$rayon..iter..for_each..ForEachConsumer$LT$F$GT$$u20$as$u20$rayon..iter..plumbing..Consumer$LT$T$GT$$GT$8split_at17h4bb752f88c1188acE>:
   0:	aa0003e1 	mov	x1, x0
   4:	d65f03c0 	ret

Disassembly of section .text._ZN15crossbeam_epoch5guard5Guard15defer_unchecked17h5bfe2ae569e470e8E:

0000000000000000 <_ZN15crossbeam_epoch5guard5Guard15defer_unchecked17h5bfe2ae569e470e8E>:
   0:	d100c3ff 	sub	sp, sp, #0x30
   4:	a9024ffe 	stp	x30, x19, [sp,#32]
   8:	aa0003e2 	mov	x2, x0
   c:	f9400000 	ldr	x0, [x0]
  10:	b4000120 	cbz	x0, 34 <_ZN15crossbeam_epoch5guard5Guard15defer_unchecked17h5bfe2ae569e470e8E+0x34>
  14:	90000008 	adrp	x8, 0 <_ZN15crossbeam_epoch8deferred8Deferred3new4call17h380ba1df5be2927bE.llvm.18400554071082863719>
  18:	91000108 	add	x8, x8, #0x0
  1c:	a90007e8 	stp	x8, x1, [sp]
  20:	910003e1 	mov	x1, sp
  24:	94000000 	bl	0 <_ZN15crossbeam_epoch8internal5Local5defer17hcfccdf234394d82aE>
  28:	a9424ffe 	ldp	x30, x19, [sp,#32]
  2c:	9100c3ff 	add	sp, sp, #0x30
  30:	d65f03c0 	ret
  34:	927df033 	and	x19, x1, #0xfffffffffffffff8
  38:	f9400668 	ldr	x8, [x19,#8]
  3c:	b40000c8 	cbz	x8, 54 <_ZN15crossbeam_epoch5guard5Guard15defer_unchecked17h5bfe2ae569e470e8E+0x54>
  40:	d37ced01 	lsl	x1, x8, #4
  44:	b4000081 	cbz	x1, 54 <_ZN15crossbeam_epoch5guard5Guard15defer_unchecked17h5bfe2ae569e470e8E+0x54>
  48:	f9400260 	ldr	x0, [x19]
  4c:	52800102 	mov	w2, #0x8                   	// #8
  50:	94000000 	bl	0 <__rust_dealloc>
  54:	aa1303e0 	mov	x0, x19
  58:	a9424ffe 	ldp	x30, x19, [sp,#32]
  5c:	52800201 	mov	w1, #0x10                  	// #16
  60:	52800102 	mov	w2, #0x8                   	// #8
  64:	9100c3ff 	add	sp, sp, #0x30
  68:	14000000 	b	0 <__rust_dealloc>

Disassembly of section .text._ZN17crossbeam_channel5waker9SyncWaker10disconnect17hab833cece7dd1512E.llvm.9633785243749374995:

0000000000000000 <_ZN17crossbeam_channel5waker9SyncWaker10disconnect17hab833cece7dd1512E.llvm.9633785243749374995>:
   0:	d10243ff 	sub	sp, sp, #0x90
   4:	a9065ffe 	stp	x30, x23, [sp,#96]
   8:	a90757f6 	stp	x22, x21, [sp,#112]
   c:	a9084ff4 	stp	x20, x19, [sp,#128]
  10:	aa0003f3 	mov	x19, x0
  14:	9100c014 	add	x20, x0, #0x30
  18:	52800028 	mov	w8, #0x1                   	// #1
  1c:	085ffe89 	ldaxrb	w9, [x20]
  20:	080a7e88 	stxrb	w10, w8, [x20]
  24:	35ffffca 	cbnz	w10, 1c <_ZN17crossbeam_channel5waker9SyncWaker10disconnect17hab833cece7dd1512E.llvm.9633785243749374995+0x1c>
  28:	34000269 	cbz	w9, 74 <_ZN17crossbeam_channel5waker9SyncWaker10disconnect17hab833cece7dd1512E.llvm.9633785243749374995+0x74>
  2c:	2a1f03f5 	mov	w21, wzr
  30:	52800036 	mov	w22, #0x1                   	// #1
  34:	71001ebf 	cmp	w21, #0x7
  38:	54000102 	b.cs	58 <_ZN17crossbeam_channel5waker9SyncWaker10disconnect17hab833cece7dd1512E.llvm.9633785243749374995+0x58>
  3c:	2a1f03e8 	mov	w8, wzr
  40:	1ad522c9 	lsl	w9, w22, w21
  44:	d503203f 	yield
  48:	11000508 	add	w8, w8, #0x1
  4c:	6b09011f 	cmp	w8, w9
  50:	54ffffab 	b.lt	44 <_ZN17crossbeam_channel5waker9SyncWaker10disconnect17hab833cece7dd1512E.llvm.9633785243749374995+0x44>
  54:	14000002 	b	5c <_ZN17crossbeam_channel5waker9SyncWaker10disconnect17hab833cece7dd1512E.llvm.9633785243749374995+0x5c>
  58:	94000000 	bl	0 <_ZN3std6thread9yield_now17h45e651534fcf7467E>
  5c:	71002ebf 	cmp	w21, #0xb
  60:	1a9526b5 	cinc	w21, w21, cc
  64:	085ffe88 	ldaxrb	w8, [x20]
  68:	08097e96 	stxrb	w9, w22, [x20]
  6c:	35ffffc9 	cbnz	w9, 64 <_ZN17crossbeam_channel5waker9SyncWaker10disconnect17hab833cece7dd1512E.llvm.9633785243749374995+0x64>
  70:	35fffe28 	cbnz	w8, 34 <_ZN17crossbeam_channel5waker9SyncWaker10disconnect17hab833cece7dd1512E.llvm.9633785243749374995+0x34>
  74:	f90003f3 	str	x19, [sp]
  78:	f9400a68 	ldr	x8, [x19,#16]
  7c:	b4000388 	cbz	x8, ec <_ZN17crossbeam_channel5waker9SyncWaker10disconnect17hab833cece7dd1512E.llvm.9633785243749374995+0xec>
  80:	f9400274 	ldr	x20, [x19]
  84:	52800309 	mov	w9, #0x18                  	// #24
  88:	52800055 	mov	w21, #0x2                   	// #2
  8c:	52800037 	mov	w23, #0x1                   	// #1
  90:	9b095116 	madd	x22, x8, x9, x20
  94:	14000004 	b	a4 <_ZN17crossbeam_channel5waker9SyncWaker10disconnect17hab833cece7dd1512E.llvm.9633785243749374995+0xa4>
  98:	d5033f5f 	clrex
  9c:	eb16029f 	cmp	x20, x22
  a0:	54000260 	b.eq	ec <_ZN17crossbeam_channel5waker9SyncWaker10disconnect17hab833cece7dd1512E.llvm.9633785243749374995+0xec>
  a4:	f9400a89 	ldr	x9, [x20,#16]
  a8:	aa1403e8 	mov	x8, x20
  ac:	91006294 	add	x20, x20, #0x18
  b0:	91004129 	add	x9, x9, #0x10
  b4:	c85ffd2a 	ldaxr	x10, [x9]
  b8:	b5ffff0a 	cbnz	x10, 98 <_ZN17crossbeam_channel5waker9SyncWaker10disconnect17hab833cece7dd1512E.llvm.9633785243749374995+0x98>
  bc:	c80afd35 	stlxr	w10, x21, [x9]
  c0:	35ffffaa 	cbnz	w10, b4 <_ZN17crossbeam_channel5waker9SyncWaker10disconnect17hab833cece7dd1512E.llvm.9633785243749374995+0xb4>
  c4:	f9400908 	ldr	x8, [x8,#16]
  c8:	f9401108 	ldr	x8, [x8,#32]
  cc:	9100a100 	add	x0, x8, #0x28
  d0:	885f7c08 	ldxr	w8, [x0]
  d4:	8809fc17 	stlxr	w9, w23, [x0]
  d8:	35ffffc9 	cbnz	w9, d0 <_ZN17crossbeam_channel5waker9SyncWaker10disconnect17hab833cece7dd1512E.llvm.9633785243749374995+0xd0>
  dc:	3100051f 	cmn	w8, #0x1
  e0:	54fffde1 	b.ne	9c <_ZN17crossbeam_channel5waker9SyncWaker10disconnect17hab833cece7dd1512E.llvm.9633785243749374995+0x9c>
  e4:	94000000 	bl	0 <_ZN3std3sys4unix5futex10futex_wake17hb7278f24b3f60cd3E>
  e8:	17ffffed 	b	9c <_ZN17crossbeam_channel5waker9SyncWaker10disconnect17hab833cece7dd1512E.llvm.9633785243749374995+0x9c>
  ec:	aa1303e9 	mov	x9, x19
  f0:	f8418d28 	ldr	x8, [x9,#24]!
  f4:	f940092a 	ldr	x10, [x9,#16]
  f8:	f900093f 	str	xzr, [x9,#16]
  fc:	f90017e9 	str	x9, [sp,#40]
 100:	a900ffea 	stp	x10, xzr, [sp,#8]
 104:	8b0a054a 	add	x10, x10, x10, lsl #1
 108:	d37df14a 	lsl	x10, x10, #3
 10c:	8b0a010b 	add	x11, x8, x10
 110:	a901afe8 	stp	x8, x11, [sp,#24]
 114:	b400058a 	cbz	x10, 1c4 <_ZN17crossbeam_channel5waker9SyncWaker10disconnect17hab833cece7dd1512E.llvm.9633785243749374995+0x1c4>
 118:	910103e9 	add	x9, sp, #0x40
 11c:	91004134 	add	x20, x9, #0x10
 120:	52800035 	mov	w21, #0x1                   	// #1
 124:	14000004 	b	134 <_ZN17crossbeam_channel5waker9SyncWaker10disconnect17hab833cece7dd1512E.llvm.9633785243749374995+0x134>
 128:	a941a7e8 	ldp	x8, x9, [sp,#24]
 12c:	eb09011f 	cmp	x8, x9
 130:	540004a0 	b.eq	1c4 <_ZN17crossbeam_channel5waker9SyncWaker10disconnect17hab833cece7dd1512E.llvm.9633785243749374995+0x1c4>
 134:	91006109 	add	x9, x8, #0x18
 138:	f9000fe9 	str	x9, [sp,#24]
 13c:	3dc00100 	ldr	q0, [x8]
 140:	3d8013e0 	str	q0, [sp,#64]
 144:	f9400909 	ldr	x9, [x8,#16]
 148:	b4000409 	cbz	x9, 1c8 <_ZN17crossbeam_channel5waker9SyncWaker10disconnect17hab833cece7dd1512E.llvm.9633785243749374995+0x1c8>
 14c:	3dc013e0 	ldr	q0, [sp,#64]
 150:	f9002be9 	str	x9, [sp,#80]
 154:	91004129 	add	x9, x9, #0x10
 158:	ad0183e0 	stp	q0, q0, [sp,#48]
 15c:	f94023e8 	ldr	x8, [sp,#64]
 160:	c85ffd2a 	ldaxr	x10, [x9]
 164:	b50001aa 	cbnz	x10, 198 <_ZN17crossbeam_channel5waker9SyncWaker10disconnect17hab833cece7dd1512E.llvm.9633785243749374995+0x198>
 168:	c80afd28 	stlxr	w10, x8, [x9]
 16c:	35ffffaa 	cbnz	w10, 160 <_ZN17crossbeam_channel5waker9SyncWaker10disconnect17hab833cece7dd1512E.llvm.9633785243749374995+0x160>
 170:	f9402be8 	ldr	x8, [sp,#80]
 174:	f9401108 	ldr	x8, [x8,#32]
 178:	9100a100 	add	x0, x8, #0x28
 17c:	885f7c08 	ldxr	w8, [x0]
 180:	8809fc15 	stlxr	w9, w21, [x0]
 184:	35ffffc9 	cbnz	w9, 17c <_ZN17crossbeam_channel5waker9SyncWaker10disconnect17hab833cece7dd1512E.llvm.9633785243749374995+0x17c>
 188:	3100051f 	cmn	w8, #0x1
 18c:	54000081 	b.ne	19c <_ZN17crossbeam_channel5waker9SyncWaker10disconnect17hab833cece7dd1512E.llvm.9633785243749374995+0x19c>
 190:	94000000 	bl	0 <_ZN3std3sys4unix5futex10futex_wake17hb7278f24b3f60cd3E>
 194:	14000002 	b	19c <_ZN17crossbeam_channel5waker9SyncWaker10disconnect17hab833cece7dd1512E.llvm.9633785243749374995+0x19c>
 198:	d5033f5f 	clrex
 19c:	f9402be8 	ldr	x8, [sp,#80]
 1a0:	c85f7d09 	ldxr	x9, [x8]
 1a4:	f1000529 	subs	x9, x9, #0x1
 1a8:	c80afd09 	stlxr	w10, x9, [x8]
 1ac:	35ffffaa 	cbnz	w10, 1a0 <_ZN17crossbeam_channel5waker9SyncWaker10disconnect17hab833cece7dd1512E.llvm.9633785243749374995+0x1a0>
 1b0:	54fffbc1 	b.ne	128 <_ZN17crossbeam_channel5waker9SyncWaker10disconnect17hab833cece7dd1512E.llvm.9633785243749374995+0x128>
 1b4:	d50339bf 	dmb	ishld
 1b8:	aa1403e0 	mov	x0, x20
 1bc:	94000000 	bl	0 <_ZN5alloc4sync12Arc$LT$T$GT$9drop_slow17h9697f7fa84dc4c9bE>
 1c0:	17ffffda 	b	128 <_ZN17crossbeam_channel5waker9SyncWaker10disconnect17hab833cece7dd1512E.llvm.9633785243749374995+0x128>
 1c4:	a9047fff 	stp	xzr, xzr, [sp,#64]
 1c8:	910023e0 	add	x0, sp, #0x8
 1cc:	94000000 	bl	0 <_ZN68_$LT$alloc..vec..Drain$LT$T$GT$$u20$as$u20$core..ops..drop..Drop$GT$4drop17h47af34f858e73c16E>
 1d0:	f94003e8 	ldr	x8, [sp]
 1d4:	f9400909 	ldr	x9, [x8,#16]
 1d8:	b5000069 	cbnz	x9, 1e4 <_ZN17crossbeam_channel5waker9SyncWaker10disconnect17hab833cece7dd1512E.llvm.9633785243749374995+0x1e4>
 1dc:	f9401508 	ldr	x8, [x8,#40]
 1e0:	b4000188 	cbz	x8, 210 <_ZN17crossbeam_channel5waker9SyncWaker10disconnect17hab833cece7dd1512E.llvm.9633785243749374995+0x210>
 1e4:	2a1f03e8 	mov	w8, wzr
 1e8:	9100e269 	add	x9, x19, #0x38
 1ec:	089ffd28 	stlrb	w8, [x9]
 1f0:	f94003e8 	ldr	x8, [sp]
 1f4:	9100c108 	add	x8, x8, #0x30
 1f8:	089ffd1f 	stlrb	wzr, [x8]
 1fc:	a9484ff4 	ldp	x20, x19, [sp,#128]
 200:	a94757f6 	ldp	x22, x21, [sp,#112]
 204:	a9465ffe 	ldp	x30, x23, [sp,#96]
 208:	910243ff 	add	sp, sp, #0x90
 20c:	d65f03c0 	ret
 210:	52800028 	mov	w8, #0x1                   	// #1
 214:	17fffff5 	b	1e8 <_ZN17crossbeam_channel5waker9SyncWaker10disconnect17hab833cece7dd1512E.llvm.9633785243749374995+0x1e8>
 218:	aa0003f3 	mov	x19, x0
 21c:	910103e0 	add	x0, sp, #0x40
 220:	94000000 	bl	0 <_ZN17crossbeam_channel5waker9SyncWaker10disconnect17hab833cece7dd1512E.llvm.9633785243749374995>
 224:	14000003 	b	230 <_ZN17crossbeam_channel5waker9SyncWaker10disconnect17hab833cece7dd1512E.llvm.9633785243749374995+0x230>
 228:	14000005 	b	23c <_ZN17crossbeam_channel5waker9SyncWaker10disconnect17hab833cece7dd1512E.llvm.9633785243749374995+0x23c>
 22c:	aa0003f3 	mov	x19, x0
 230:	910023e0 	add	x0, sp, #0x8
 234:	94000000 	bl	0 <_ZN17crossbeam_channel5waker9SyncWaker10disconnect17hab833cece7dd1512E.llvm.9633785243749374995>
 238:	14000002 	b	240 <_ZN17crossbeam_channel5waker9SyncWaker10disconnect17hab833cece7dd1512E.llvm.9633785243749374995+0x240>
 23c:	aa0003f3 	mov	x19, x0
 240:	910003e0 	mov	x0, sp
 244:	94000000 	bl	0 <_ZN17crossbeam_channel5waker9SyncWaker10disconnect17hab833cece7dd1512E.llvm.9633785243749374995>
 248:	aa1303e0 	mov	x0, x19
 24c:	94000000 	bl	0 <_Unwind_Resume>
 250:	d4200020 	brk	#0x1

Disassembly of section .text._ZN17crossbeam_channel7flavors5array16Channel$LT$T$GT$10disconnect17h786c82409e6c3a1cE:

0000000000000000 <_ZN17crossbeam_channel7flavors5array16Channel$LT$T$GT$10disconnect17h786c82409e6c3a1cE>:
   0:	a9bf4ffe 	stp	x30, x19, [sp,#-16]!
   4:	f9408c08 	ldr	x8, [x0,#280]
   8:	aa0003f3 	mov	x19, x0
   c:	91020009 	add	x9, x0, #0x80
  10:	c85ffd2a 	ldaxr	x10, [x9]
  14:	aa08014b 	orr	x11, x10, x8
  18:	c80cfd2b 	stlxr	w12, x11, [x9]
  1c:	35ffffac 	cbnz	w12, 10 <_ZN17crossbeam_channel7flavors5array16Channel$LT$T$GT$10disconnect17h786c82409e6c3a1cE+0x10>
  20:	f9408e68 	ldr	x8, [x19,#280]
  24:	ea0a011f 	tst	x8, x10
  28:	54000080 	b.eq	38 <_ZN17crossbeam_channel7flavors5array16Channel$LT$T$GT$10disconnect17h786c82409e6c3a1cE+0x38>
  2c:	2a1f03e0 	mov	w0, wzr
  30:	a8c14ffe 	ldp	x30, x19, [sp],#16
  34:	d65f03c0 	ret
  38:	91048260 	add	x0, x19, #0x120
  3c:	94000000 	bl	0 <_ZN17crossbeam_channel7flavors5array16Channel$LT$T$GT$10disconnect17h786c82409e6c3a1cE>
  40:	91058260 	add	x0, x19, #0x160
  44:	94000000 	bl	0 <_ZN17crossbeam_channel7flavors5array16Channel$LT$T$GT$10disconnect17h786c82409e6c3a1cE>
  48:	52800020 	mov	w0, #0x1                   	// #1
  4c:	a8c14ffe 	ldp	x30, x19, [sp],#16
  50:	d65f03c0 	ret

Disassembly of section .text._ZN3std5panic12catch_unwind17h01b9ea559a43e6cdE:

0000000000000000 <_ZN3std5panic12catch_unwind17h01b9ea559a43e6cdE>:
   0:	d10103ff 	sub	sp, sp, #0x40
   4:	f9001bfe 	str	x30, [sp,#48]
   8:	a9402408 	ldp	x8, x9, [x0]
   c:	3941000a 	ldrb	w10, [x0,#64]
  10:	ad408400 	ldp	q0, q1, [x0,#16]
  14:	a943140b 	ldp	x11, x5, [x0,#48]
  18:	f9400100 	ldr	x0, [x8]
  1c:	a9400d22 	ldp	x2, x3, [x9]
  20:	7100015f 	cmp	w10, #0x0
  24:	1a9f07e1 	cset	w1, ne
  28:	f90013eb 	str	x11, [sp,#32]
  2c:	ad0007e0 	stp	q0, q1, [sp]
  30:	910003e4 	mov	x4, sp
  34:	94000000 	bl	0 <_ZN5rayon4iter8plumbing24bridge_producer_consumer6helper17h3e421240823759dfE>
  38:	aa1f03e0 	mov	x0, xzr
  3c:	aa1f03e1 	mov	x1, xzr
  40:	f9401bfe 	ldr	x30, [sp,#48]
  44:	910103ff 	add	sp, sp, #0x40
  48:	d65f03c0 	ret
  4c:	94000000 	bl	0 <_ZN3std9panicking3try7cleanup17h0203421b683548f8E>
  50:	f9401bfe 	ldr	x30, [sp,#48]
  54:	910103ff 	add	sp, sp, #0x40
  58:	d65f03c0 	ret

Disassembly of section .text._ZN3std5panic12catch_unwind17h59d4dedb88a391f0E:

0000000000000000 <_ZN3std5panic12catch_unwind17h59d4dedb88a391f0E>:
   0:	d10103ff 	sub	sp, sp, #0x40
   4:	f9001bfe 	str	x30, [sp,#48]
   8:	a9402408 	ldp	x8, x9, [x0]
   c:	f940080a 	ldr	x10, [x0,#16]
  10:	3cc18000 	ldur	q0, [x0,#24]
  14:	3cc28001 	ldur	q1, [x0,#40]
  18:	f9400108 	ldr	x8, [x8]
  1c:	f9400129 	ldr	x9, [x9]
  20:	a943940b 	ldp	x11, x5, [x0,#56]
  24:	a9400d42 	ldp	x2, x3, [x10]
  28:	ad0007e0 	stp	q0, q1, [sp]
  2c:	cb090100 	sub	x0, x8, x9
  30:	f90013eb 	str	x11, [sp,#32]
  34:	910003e4 	mov	x4, sp
  38:	52800021 	mov	w1, #0x1                   	// #1
  3c:	94000000 	bl	0 <_ZN5rayon4iter8plumbing24bridge_producer_consumer6helper17h3e421240823759dfE>
  40:	aa1f03e0 	mov	x0, xzr
  44:	aa1f03e1 	mov	x1, xzr
  48:	f9401bfe 	ldr	x30, [sp,#48]
  4c:	910103ff 	add	sp, sp, #0x40
  50:	d65f03c0 	ret
  54:	94000000 	bl	0 <_ZN3std9panicking3try7cleanup17h0203421b683548f8E>
  58:	f9401bfe 	ldr	x30, [sp,#48]
  5c:	910103ff 	add	sp, sp, #0x40
  60:	d65f03c0 	ret

Disassembly of section .text._ZN3std5panic12catch_unwind17h657cd0de21b0bd9eE:

0000000000000000 <_ZN3std5panic12catch_unwind17h657cd0de21b0bd9eE>:
   0:	d10283ff 	sub	sp, sp, #0xa0
   4:	ad418400 	ldp	q0, q1, [x0,#48]
   8:	a9402408 	ldp	x8, x9, [x0]
   c:	ad408c02 	ldp	q2, q3, [x0,#16]
  10:	ad429404 	ldp	q4, q5, [x0,#80]
  14:	3c8383e0 	stur	q0, [sp,#56]
  18:	3dc01c00 	ldr	q0, [x0,#112]
  1c:	f940400a 	ldr	x10, [x0,#128]
  20:	3c8483e1 	stur	q1, [sp,#72]
  24:	a900a7e8 	stp	x8, x9, [sp,#8]
  28:	3c8283e3 	stur	q3, [sp,#40]
  2c:	3c8183e2 	stur	q2, [sp,#24]
  30:	a908fbea 	stp	x10, x30, [sp,#136]
  34:	3c8783e0 	stur	q0, [sp,#120]
  38:	3c8683e5 	stur	q5, [sp,#104]
  3c:	3c8583e4 	stur	q4, [sp,#88]
  40:	910023e0 	add	x0, sp, #0x8
  44:	94000000 	bl	0 <_ZN3std5panic12catch_unwind17h657cd0de21b0bd9eE>
  48:	aa1f03e0 	mov	x0, xzr
  4c:	aa1f03e1 	mov	x1, xzr
  50:	f9404bfe 	ldr	x30, [sp,#144]
  54:	910283ff 	add	sp, sp, #0xa0
  58:	d65f03c0 	ret
  5c:	94000000 	bl	0 <_ZN3std9panicking3try7cleanup17h0203421b683548f8E>
  60:	f9404bfe 	ldr	x30, [sp,#144]
  64:	910283ff 	add	sp, sp, #0xa0
  68:	d65f03c0 	ret

Disassembly of section .text._ZN3std5panic12catch_unwind17h7b8f4855cb182d8eE:

0000000000000000 <_ZN3std5panic12catch_unwind17h7b8f4855cb182d8eE>:
   0:	d10183ff 	sub	sp, sp, #0x60
   4:	a9054ffe 	stp	x30, x19, [sp,#80]
   8:	aa0803f3 	mov	x19, x8
   c:	a9402408 	ldp	x8, x9, [x0]
  10:	3941400a 	ldrb	w10, [x0,#80]
  14:	a9411404 	ldp	x4, x5, [x0,#16]
  18:	ad410400 	ldp	q0, q1, [x0,#32]
  1c:	3dc01002 	ldr	q2, [x0,#64]
  20:	f9400100 	ldr	x0, [x8]
  24:	a9400d22 	ldp	x2, x3, [x9]
  28:	7100015f 	cmp	w10, #0x0
  2c:	1a9f07e1 	cset	w1, ne
  30:	ad018be1 	stp	q1, q2, [sp,#48]
  34:	3d800be0 	str	q0, [sp,#32]
  38:	910023e8 	add	x8, sp, #0x8
  3c:	910083e6 	add	x6, sp, #0x20
  40:	94000000 	bl	0 <_ZN5rayon4iter8plumbing24bridge_producer_consumer6helper17h75e51145a76dcbf1E>
  44:	3cc083e0 	ldur	q0, [sp,#8]
  48:	f9400fe9 	ldr	x9, [sp,#24]
  4c:	aa1f03e8 	mov	x8, xzr
  50:	3c808260 	stur	q0, [x19,#8]
  54:	f9000e69 	str	x9, [x19,#24]
  58:	f9000268 	str	x8, [x19]
  5c:	a9454ffe 	ldp	x30, x19, [sp,#80]
  60:	910183ff 	add	sp, sp, #0x60
  64:	d65f03c0 	ret
  68:	94000000 	bl	0 <_ZN3std9panicking3try7cleanup17h0203421b683548f8E>
  6c:	a9008660 	stp	x0, x1, [x19,#8]
  70:	52800028 	mov	w8, #0x1                   	// #1
  74:	f9000268 	str	x8, [x19]
  78:	a9454ffe 	ldp	x30, x19, [sp,#80]
  7c:	910183ff 	add	sp, sp, #0x60
  80:	d65f03c0 	ret

Disassembly of section .text._ZN3std5panic12catch_unwind17h80416d5b6d67ef8eE:

0000000000000000 <_ZN3std5panic12catch_unwind17h80416d5b6d67ef8eE>:
   0:	d100c3ff 	sub	sp, sp, #0x30
   4:	a9024ffe 	stp	x30, x19, [sp,#32]
   8:	aa0803f3 	mov	x19, x8
   c:	a9402408 	ldp	x8, x9, [x0]
  10:	a941100a 	ldp	x10, x4, [x0,#16]
  14:	3cc28000 	ldur	q0, [x0,#40]
  18:	f9401c0b 	ldr	x11, [x0,#56]
  1c:	f9400108 	ldr	x8, [x8]
  20:	f9400129 	ldr	x9, [x9]
  24:	f9401005 	ldr	x5, [x0,#32]
  28:	a9400d42 	ldp	x2, x3, [x10]
  2c:	f9000beb 	str	x11, [sp,#16]
  30:	cb090100 	sub	x0, x8, x9
  34:	3d8003e0 	str	q0, [sp]
  38:	910003e6 	mov	x6, sp
  3c:	52800021 	mov	w1, #0x1                   	// #1
  40:	94000000 	bl	0 <_ZN5rayon4iter8plumbing24bridge_producer_consumer6helper17h4ffad98548c58f69E>
  44:	aa1f03e8 	mov	x8, xzr
  48:	a9008660 	stp	x0, x1, [x19,#8]
  4c:	f9000268 	str	x8, [x19]
  50:	a9424ffe 	ldp	x30, x19, [sp,#32]
  54:	9100c3ff 	add	sp, sp, #0x30
  58:	d65f03c0 	ret
  5c:	94000000 	bl	0 <_ZN3std9panicking3try7cleanup17h0203421b683548f8E>
  60:	a9008660 	stp	x0, x1, [x19,#8]
  64:	52800028 	mov	w8, #0x1                   	// #1
  68:	f9000268 	str	x8, [x19]
  6c:	a9424ffe 	ldp	x30, x19, [sp,#32]
  70:	9100c3ff 	add	sp, sp, #0x30
  74:	d65f03c0 	ret

Disassembly of section .text._ZN3std5panic12catch_unwind17hc589cd0c2cbce6b4E:

0000000000000000 <_ZN3std5panic12catch_unwind17hc589cd0c2cbce6b4E>:
   0:	d10183ff 	sub	sp, sp, #0x60
   4:	a9054ffe 	stp	x30, x19, [sp,#80]
   8:	aa0803f3 	mov	x19, x8
   c:	a9402408 	ldp	x8, x9, [x0]
  10:	a941100a 	ldp	x10, x4, [x0,#16]
  14:	3cc28000 	ldur	q0, [x0,#40]
  18:	3cc38001 	ldur	q1, [x0,#56]
  1c:	f9400108 	ldr	x8, [x8]
  20:	f9400129 	ldr	x9, [x9]
  24:	3cc48002 	ldur	q2, [x0,#72]
  28:	f9401005 	ldr	x5, [x0,#32]
  2c:	a9400d42 	ldp	x2, x3, [x10]
  30:	cb090100 	sub	x0, x8, x9
  34:	ad018be1 	stp	q1, q2, [sp,#48]
  38:	3d800be0 	str	q0, [sp,#32]
  3c:	910023e8 	add	x8, sp, #0x8
  40:	910083e6 	add	x6, sp, #0x20
  44:	52800021 	mov	w1, #0x1                   	// #1
  48:	94000000 	bl	0 <_ZN5rayon4iter8plumbing24bridge_producer_consumer6helper17h75e51145a76dcbf1E>
  4c:	3cc083e0 	ldur	q0, [sp,#8]
  50:	f9400fe9 	ldr	x9, [sp,#24]
  54:	aa1f03e8 	mov	x8, xzr
  58:	3c808260 	stur	q0, [x19,#8]
  5c:	f9000e69 	str	x9, [x19,#24]
  60:	f9000268 	str	x8, [x19]
  64:	a9454ffe 	ldp	x30, x19, [sp,#80]
  68:	910183ff 	add	sp, sp, #0x60
  6c:	d65f03c0 	ret
  70:	94000000 	bl	0 <_ZN3std9panicking3try7cleanup17h0203421b683548f8E>
  74:	a9008660 	stp	x0, x1, [x19,#8]
  78:	52800028 	mov	w8, #0x1                   	// #1
  7c:	f9000268 	str	x8, [x19]
  80:	a9454ffe 	ldp	x30, x19, [sp,#80]
  84:	910183ff 	add	sp, sp, #0x60
  88:	d65f03c0 	ret

Disassembly of section .text._ZN3std5panic12catch_unwind17hebcc9bcc8dff5321E:

0000000000000000 <_ZN3std5panic12catch_unwind17hebcc9bcc8dff5321E>:
   0:	a9be7bfd 	stp	x29, x30, [sp,#-32]!
   4:	a9014ff4 	stp	x20, x19, [sp,#16]
   8:	d10843ff 	sub	sp, sp, #0x210
   c:	ad410803 	ldp	q3, q2, [x0,#32]
  10:	ad419005 	ldp	q5, q4, [x0,#48]
  14:	ad421807 	ldp	q7, q6, [x0,#64]
  18:	ad42c011 	ldp	q17, q16, [x0,#80]
  1c:	ad408400 	ldp	q0, q1, [x0,#16]
  20:	ad0113e2 	stp	q2, q4, [sp,#32]
  24:	ad438804 	ldp	q4, q2, [x0,#112]
  28:	ad0243e6 	stp	q6, q16, [sp,#64]
  2c:	ad441810 	ldp	q16, q6, [x0,#128]
  30:	ad434813 	ldp	q19, q18, [x0,#96]
  34:	ad0007e0 	stp	q0, q1, [sp]
  38:	3dc02400 	ldr	q0, [x0,#144]
  3c:	ad039be2 	stp	q2, q6, [sp,#112]
  40:	3dc00402 	ldr	q2, [x0,#16]
  44:	3d801bf2 	str	q18, [sp,#96]
  48:	aa0803f3 	mov	x19, x8
  4c:	a9402408 	ldp	x8, x9, [x0]
  50:	ad050fe2 	stp	q2, q3, [sp,#160]
  54:	ad0883f0 	stp	q16, q0, [sp,#272]
  58:	ad4307e0 	ldp	q0, q1, [sp,#96]
  5c:	3dc023e2 	ldr	q2, [sp,#128]
  60:	9104e3f4 	add	x20, sp, #0x138
  64:	f940500a 	ldr	x10, [x0,#160]
  68:	f940500b 	ldr	x11, [x0,#160]
  6c:	ad061fe5 	stp	q5, q7, [sp,#192]
  70:	3d8043e4 	str	q4, [sp,#256]
  74:	a916a7e8 	stp	x8, x9, [sp,#360]
  78:	ad4113e3 	ldp	q3, q4, [sp,#32]
  7c:	ad050680 	stp	q0, q1, [x20,#160]
  80:	ad4203e5 	ldp	q5, q0, [sp,#64]
  84:	3d803282 	str	q2, [x20,#192]
  88:	ad400be1 	ldp	q1, q2, [sp]
  8c:	aa0a03e8 	mov	x8, x10
  90:	f9004bea 	str	x10, [sp,#144]
  94:	ad074ff1 	stp	q17, q19, [sp,#224]
  98:	f9009beb 	str	x11, [sp,#304]
  9c:	ad031283 	stp	q3, q4, [x20,#96]
  a0:	f90107e8 	str	x8, [sp,#520]
  a4:	ad040285 	stp	q5, q0, [x20,#128]
  a8:	ad020a81 	stp	q1, q2, [x20,#64]
  ac:	9104e3e8 	add	x8, sp, #0x138
  b0:	9105a3e0 	add	x0, sp, #0x168
  b4:	94000000 	bl	0 <_ZN3std5panic12catch_unwind17hebcc9bcc8dff5321E>
  b8:	ad408680 	ldp	q0, q1, [x20,#16]
  bc:	a953abe9 	ldp	x9, x10, [sp,#312]
  c0:	aa1f03e8 	mov	x8, xzr
  c4:	ad0507e0 	stp	q0, q1, [sp,#160]
  c8:	ad4503e1 	ldp	q1, q0, [sp,#160]
  cc:	a900aa69 	stp	x9, x10, [x19,#8]
  d0:	3c828260 	stur	q0, [x19,#40]
  d4:	3c818261 	stur	q1, [x19,#24]
  d8:	f9000268 	str	x8, [x19]
  dc:	910843ff 	add	sp, sp, #0x210
  e0:	a9414ff4 	ldp	x20, x19, [sp,#16]
  e4:	a8c27bfd 	ldp	x29, x30, [sp],#32
  e8:	d65f03c0 	ret
  ec:	94000000 	bl	0 <_ZN3std9panicking3try7cleanup17h0203421b683548f8E>
  f0:	a9008660 	stp	x0, x1, [x19,#8]
  f4:	52800028 	mov	w8, #0x1                   	// #1
  f8:	17fffff8 	b	d8 <_ZN3std5panic12catch_unwind17hebcc9bcc8dff5321E+0xd8>

Disassembly of section .text._ZN3std5panic12catch_unwind17hf45fb54513a77558E:

0000000000000000 <_ZN3std5panic12catch_unwind17hf45fb54513a77558E>:
   0:	d100c3ff 	sub	sp, sp, #0x30
   4:	a9024ffe 	stp	x30, x19, [sp,#32]
   8:	aa0803f3 	mov	x19, x8
   c:	a9402408 	ldp	x8, x9, [x0]
  10:	3940e00a 	ldrb	w10, [x0,#56]
  14:	a9411404 	ldp	x4, x5, [x0,#16]
  18:	3dc00800 	ldr	q0, [x0,#32]
  1c:	f940180b 	ldr	x11, [x0,#48]
  20:	f9400100 	ldr	x0, [x8]
  24:	a9400d22 	ldp	x2, x3, [x9]
  28:	7100015f 	cmp	w10, #0x0
  2c:	1a9f07e1 	cset	w1, ne
  30:	f9000beb 	str	x11, [sp,#16]
  34:	3d8003e0 	str	q0, [sp]
  38:	910003e6 	mov	x6, sp
  3c:	94000000 	bl	0 <_ZN5rayon4iter8plumbing24bridge_producer_consumer6helper17h4ffad98548c58f69E>
  40:	aa1f03e8 	mov	x8, xzr
  44:	a9008660 	stp	x0, x1, [x19,#8]
  48:	f9000268 	str	x8, [x19]
  4c:	a9424ffe 	ldp	x30, x19, [sp,#32]
  50:	9100c3ff 	add	sp, sp, #0x30
  54:	d65f03c0 	ret
  58:	94000000 	bl	0 <_ZN3std9panicking3try7cleanup17h0203421b683548f8E>
  5c:	a9008660 	stp	x0, x1, [x19,#8]
  60:	52800028 	mov	w8, #0x1                   	// #1
  64:	f9000268 	str	x8, [x19]
  68:	a9424ffe 	ldp	x30, x19, [sp,#32]
  6c:	9100c3ff 	add	sp, sp, #0x30
  70:	d65f03c0 	ret

Disassembly of section .text._ZN3std5panic12catch_unwind17hf8632587664db8f4E:

0000000000000000 <_ZN3std5panic12catch_unwind17hf8632587664db8f4E>:
   0:	d10643ff 	sub	sp, sp, #0x190
   4:	a9177bfd 	stp	x29, x30, [sp,#368]
   8:	a9184ff4 	stp	x20, x19, [sp,#384]
   c:	ad428006 	ldp	q6, q0, [x0,#80]
  10:	ad418404 	ldp	q4, q1, [x0,#48]
  14:	ad408c02 	ldp	q2, q3, [x0,#16]
  18:	ad424007 	ldp	q7, q16, [x0,#64]
  1c:	ad0203e6 	stp	q6, q0, [sp,#64]
  20:	ad410005 	ldp	q5, q0, [x0,#32]
  24:	ad0107e4 	stp	q4, q1, [sp,#32]
  28:	3dc00401 	ldr	q1, [x0,#16]
  2c:	ad000fe2 	stp	q2, q3, [sp]
  30:	3dc01802 	ldr	q2, [x0,#96]
  34:	aa0803f3 	mov	x19, x8
  38:	a9402408 	ldp	x8, x9, [x0]
  3c:	ad0397e1 	stp	q1, q5, [sp,#112]
  40:	ad058bf0 	stp	q16, q2, [sp,#176]
  44:	ad049fe0 	stp	q0, q7, [sp,#144]
  48:	ad4187e0 	ldp	q0, q1, [sp,#48]
  4c:	3dc017e2 	ldr	q2, [sp,#80]
  50:	910363f4 	add	x20, sp, #0xd8
  54:	f940380a 	ldr	x10, [x0,#112]
  58:	f940380b 	ldr	x11, [x0,#112]
  5c:	a90fa7e8 	stp	x8, x9, [sp,#248]
  60:	ad4013e3 	ldp	q3, q4, [sp]
  64:	ad038a81 	stp	q1, q2, [x20,#112]
  68:	3dc00be1 	ldr	q1, [sp,#32]
  6c:	aa0a03e8 	mov	x8, x10
  70:	f90033ea 	str	x10, [sp,#96]
  74:	f9006beb 	str	x11, [sp,#208]
  78:	f900b7e8 	str	x8, [sp,#360]
  7c:	ad019283 	stp	q3, q4, [x20,#48]
  80:	ad028281 	stp	q1, q0, [x20,#80]
  84:	910363e8 	add	x8, sp, #0xd8
  88:	9103e3e0 	add	x0, sp, #0xf8
  8c:	94000000 	bl	0 <_ZN3std5panic12catch_unwind17hf8632587664db8f4E>
  90:	3dc00680 	ldr	q0, [x20,#16]
  94:	a94dabe9 	ldp	x9, x10, [sp,#216]
  98:	aa1f03e8 	mov	x8, xzr
  9c:	3d801fe0 	str	q0, [sp,#112]
  a0:	3dc01fe0 	ldr	q0, [sp,#112]
  a4:	a900aa69 	stp	x9, x10, [x19,#8]
  a8:	3c818260 	stur	q0, [x19,#24]
  ac:	f9000268 	str	x8, [x19]
  b0:	a9584ff4 	ldp	x20, x19, [sp,#384]
  b4:	a9577bfd 	ldp	x29, x30, [sp,#368]
  b8:	910643ff 	add	sp, sp, #0x190
  bc:	d65f03c0 	ret
  c0:	94000000 	bl	0 <_ZN3std9panicking3try7cleanup17h0203421b683548f8E>
  c4:	a9008660 	stp	x0, x1, [x19,#8]
  c8:	52800028 	mov	w8, #0x1                   	// #1
  cc:	17fffff8 	b	ac <_ZN3std5panic12catch_unwind17hf8632587664db8f4E+0xac>

Disassembly of section .text._ZN4core3ptr13drop_in_place17h2430047d9c51ddf1E.llvm.9633785243749374995:

0000000000000000 <_ZN4core3ptr13drop_in_place17h2430047d9c51ddf1E.llvm.9633785243749374995>:
   0:	f9400000 	ldr	x0, [x0]
   4:	52800201 	mov	w1, #0x10                  	// #16
   8:	52800102 	mov	w2, #0x8                   	// #8
   c:	14000000 	b	0 <__rust_dealloc>

Disassembly of section .text._ZN4core3ptr13drop_in_place17h25b89eea6684faecE:

0000000000000000 <_ZN4core3ptr13drop_in_place17h25b89eea6684faecE>:
   0:	14000000 	b	0 <_ZN68_$LT$alloc..vec..Drain$LT$T$GT$$u20$as$u20$core..ops..drop..Drop$GT$4drop17h47af34f858e73c16E>

Disassembly of section .text._ZN4core3ptr13drop_in_place17h2e4a0f9b14541a2bE.llvm.9633785243749374995:

0000000000000000 <_ZN4core3ptr13drop_in_place17h2e4a0f9b14541a2bE.llvm.9633785243749374995>:
   0:	a9bb6ffe 	stp	x30, x27, [sp,#-80]!
   4:	a90167fa 	stp	x26, x25, [sp,#16]
   8:	a9025ff8 	stp	x24, x23, [sp,#32]
   c:	a90357f6 	stp	x22, x21, [sp,#48]
  10:	a9044ff4 	stp	x20, x19, [sp,#64]
  14:	f9400008 	ldr	x8, [x0]
  18:	f9400113 	ldr	x19, [x8]
  1c:	b40006b3 	cbz	x19, f0 <_ZN4core3ptr13drop_in_place17h2e4a0f9b14541a2bE.llvm.9633785243749374995+0xf0>
  20:	aa0003f5 	mov	x21, x0
  24:	52800317 	mov	w23, #0x18                  	// #24
  28:	14000008 	b	48 <_ZN4core3ptr13drop_in_place17h2e4a0f9b14541a2bE.llvm.9633785243749374995+0x48>
  2c:	52800501 	mov	w1, #0x28                  	// #40
  30:	52800102 	mov	w2, #0x8                   	// #8
  34:	aa1303e0 	mov	x0, x19
  38:	94000000 	bl	0 <__rust_dealloc>
  3c:	f94002a8 	ldr	x8, [x21]
  40:	f9400113 	ldr	x19, [x8]
  44:	b4000573 	cbz	x19, f0 <_ZN4core3ptr13drop_in_place17h2e4a0f9b14541a2bE.llvm.9633785243749374995+0xf0>
  48:	f9400269 	ldr	x9, [x19]
  4c:	9100210a 	add	x10, x8, #0x8
  50:	aa1303f4 	mov	x20, x19
  54:	9100212b 	add	x11, x9, #0x8
  58:	f100013f 	cmp	x9, #0x0
  5c:	f9000109 	str	x9, [x8]
  60:	9a8b0149 	csel	x9, x10, x11, eq
  64:	f900013f 	str	xzr, [x9]
  68:	f9400909 	ldr	x9, [x8,#16]
  6c:	d1000529 	sub	x9, x9, #0x1
  70:	f9000909 	str	x9, [x8,#16]
  74:	f8410e88 	ldr	x8, [x20,#16]!
  78:	f9400a89 	ldr	x9, [x20,#16]
  7c:	9100611a 	add	x26, x8, #0x18
  80:	9b177d29 	mul	x9, x9, x23
  84:	d1006139 	sub	x25, x9, #0x18
  88:	b100633f 	cmn	x25, #0x18
  8c:	54000200 	b.eq	cc <_ZN4core3ptr13drop_in_place17h2e4a0f9b14541a2bE.llvm.9633785243749374995+0xcc>
  90:	f9400909 	ldr	x9, [x8,#16]
  94:	aa1903f8 	mov	x24, x25
  98:	aa1a03f6 	mov	x22, x26
  9c:	d37afd29 	lsr	x9, x9, #58
  a0:	b5000349 	cbnz	x9, 108 <_ZN4core3ptr13drop_in_place17h2e4a0f9b14541a2bE.llvm.9633785243749374995+0x108>
  a4:	f9400509 	ldr	x9, [x8,#8]
  a8:	d1006319 	sub	x25, x24, #0x18
  ac:	910062da 	add	x26, x22, #0x18
  b0:	9100611b 	add	x27, x8, #0x18
  b4:	92400929 	and	x9, x9, #0x7
  b8:	f9000509 	str	x9, [x8,#8]
  bc:	aa0803e0 	mov	x0, x8
  c0:	94000000 	bl	0 <_ZN6bitvec3vec19BitVec$LT$O$C$T$GT$8with_vec17hd029b1133e4d954cE>
  c4:	aa1b03e8 	mov	x8, x27
  c8:	17fffff0 	b	88 <_ZN4core3ptr13drop_in_place17h2e4a0f9b14541a2bE.llvm.9633785243749374995+0x88>
  cc:	f9400e68 	ldr	x8, [x19,#24]
  d0:	b4fffae8 	cbz	x8, 2c <_ZN4core3ptr13drop_in_place17h2e4a0f9b14541a2bE.llvm.9633785243749374995+0x2c>
  d4:	8b080508 	add	x8, x8, x8, lsl #1
  d8:	d37df101 	lsl	x1, x8, #3
  dc:	b4fffa81 	cbz	x1, 2c <_ZN4core3ptr13drop_in_place17h2e4a0f9b14541a2bE.llvm.9633785243749374995+0x2c>
  e0:	f9400280 	ldr	x0, [x20]
  e4:	52800102 	mov	w2, #0x8                   	// #8
  e8:	94000000 	bl	0 <__rust_dealloc>
  ec:	17ffffd0 	b	2c <_ZN4core3ptr13drop_in_place17h2e4a0f9b14541a2bE.llvm.9633785243749374995+0x2c>
  f0:	a9444ff4 	ldp	x20, x19, [sp,#64]
  f4:	a94357f6 	ldp	x22, x21, [sp,#48]
  f8:	a9425ff8 	ldp	x24, x23, [sp,#32]
  fc:	a94167fa 	ldp	x26, x25, [sp,#16]
 100:	a8c56ffe 	ldp	x30, x27, [sp],#80
 104:	d65f03c0 	ret
 108:	90000000 	adrp	x0, 0 <anon.10617ddde09110abf4a7a1b83bc6ca7e.3.llvm.11575308234008418851>
 10c:	90000002 	adrp	x2, 0 <anon.10617ddde09110abf4a7a1b83bc6ca7e.4.llvm.11575308234008418851>
 110:	91000000 	add	x0, x0, #0x0
 114:	91000042 	add	x2, x2, #0x0
 118:	52800301 	mov	w1, #0x18                  	// #24
 11c:	94000000 	bl	0 <_ZN4core6option13expect_failed17hc91abc95c5a246ebE>
 120:	d4200020 	brk	#0x1
 124:	14000001 	b	128 <_ZN4core3ptr13drop_in_place17h2e4a0f9b14541a2bE.llvm.9633785243749374995+0x128>
 128:	aa0003f5 	mov	x21, x0
 12c:	b40000d8 	cbz	x24, 144 <_ZN4core3ptr13drop_in_place17h2e4a0f9b14541a2bE.llvm.9633785243749374995+0x144>
 130:	aa1603e0 	mov	x0, x22
 134:	94000000 	bl	0 <_ZN4core3ptr13drop_in_place17h52626138cea8f2b9E.llvm.11575308234008418851>
 138:	f1006318 	subs	x24, x24, #0x18
 13c:	910062d6 	add	x22, x22, #0x18
 140:	54ffff81 	b.ne	130 <_ZN4core3ptr13drop_in_place17h2e4a0f9b14541a2bE.llvm.9633785243749374995+0x130>
 144:	aa1403e0 	mov	x0, x20
 148:	94000000 	bl	0 <_ZN4core3ptr13drop_in_place17h2e4a0f9b14541a2bE.llvm.9633785243749374995>
 14c:	aa1303e0 	mov	x0, x19
 150:	94000000 	bl	0 <_ZN4core3ptr13drop_in_place17h2e4a0f9b14541a2bE.llvm.9633785243749374995>
 154:	aa1503e0 	mov	x0, x21
 158:	94000000 	bl	0 <_Unwind_Resume>
 15c:	d4200020 	brk	#0x1
 160:	aa0003f5 	mov	x21, x0
 164:	17fffff8 	b	144 <_ZN4core3ptr13drop_in_place17h2e4a0f9b14541a2bE.llvm.9633785243749374995+0x144>

Disassembly of section .text._ZN4core3ptr13drop_in_place17h32f554acc0888400E:

0000000000000000 <_ZN4core3ptr13drop_in_place17h32f554acc0888400E>:
   0:	a9bd5ffe 	stp	x30, x23, [sp,#-48]!
   4:	a90157f6 	stp	x22, x21, [sp,#16]
   8:	a9024ff4 	stp	x20, x19, [sp,#32]
   c:	f9403008 	ldr	x8, [x0,#96]
  10:	b40004c8 	cbz	x8, a8 <_ZN4core3ptr13drop_in_place17h32f554acc0888400E+0xa8>
  14:	aa0003f3 	mov	x19, x0
  18:	f100051f 	cmp	x8, #0x1
  1c:	540002e1 	b.ne	78 <_ZN4core3ptr13drop_in_place17h32f554acc0888400E+0x78>
  20:	a946a668 	ldp	x8, x9, [x19,#104]
  24:	5280030a 	mov	w10, #0x18                  	// #24
  28:	9b0a7d29 	mul	x9, x9, x10
  2c:	d1006134 	sub	x20, x9, #0x18
  30:	91006116 	add	x22, x8, #0x18
  34:	b100629f 	cmn	x20, #0x18
  38:	54000380 	b.eq	a8 <_ZN4core3ptr13drop_in_place17h32f554acc0888400E+0xa8>
  3c:	f9400909 	ldr	x9, [x8,#16]
  40:	aa1403f5 	mov	x21, x20
  44:	aa1603f3 	mov	x19, x22
  48:	d37afd29 	lsr	x9, x9, #58
  4c:	b5000369 	cbnz	x9, b8 <_ZN4core3ptr13drop_in_place17h32f554acc0888400E+0xb8>
  50:	f9400509 	ldr	x9, [x8,#8]
  54:	d10062b4 	sub	x20, x21, #0x18
  58:	91006276 	add	x22, x19, #0x18
  5c:	91006117 	add	x23, x8, #0x18
  60:	92400929 	and	x9, x9, #0x7
  64:	f9000509 	str	x9, [x8,#8]
  68:	aa0803e0 	mov	x0, x8
  6c:	94000000 	bl	0 <_ZN6bitvec3vec19BitVec$LT$O$C$T$GT$8with_vec17hd029b1133e4d954cE>
  70:	aa1703e8 	mov	x8, x23
  74:	17fffff0 	b	34 <_ZN4core3ptr13drop_in_place17h32f554acc0888400E+0x34>
  78:	a946a260 	ldp	x0, x8, [x19,#104]
  7c:	f9400108 	ldr	x8, [x8]
  80:	d63f0100 	blr	x8
  84:	f9403a68 	ldr	x8, [x19,#112]
  88:	f9400501 	ldr	x1, [x8,#8]
  8c:	b40000e1 	cbz	x1, a8 <_ZN4core3ptr13drop_in_place17h32f554acc0888400E+0xa8>
  90:	f9403660 	ldr	x0, [x19,#104]
  94:	f9400902 	ldr	x2, [x8,#16]
  98:	a9424ff4 	ldp	x20, x19, [sp,#32]
  9c:	a94157f6 	ldp	x22, x21, [sp,#16]
  a0:	a8c35ffe 	ldp	x30, x23, [sp],#48
  a4:	14000000 	b	0 <__rust_dealloc>
  a8:	a9424ff4 	ldp	x20, x19, [sp,#32]
  ac:	a94157f6 	ldp	x22, x21, [sp,#16]
  b0:	a8c35ffe 	ldp	x30, x23, [sp],#48
  b4:	d65f03c0 	ret
  b8:	90000000 	adrp	x0, 0 <anon.7ec6c23f66af455d80129188e54c088e.7.llvm.16365666833129853675>
  bc:	90000002 	adrp	x2, 0 <anon.7ec6c23f66af455d80129188e54c088e.8.llvm.16365666833129853675>
  c0:	91000000 	add	x0, x0, #0x0
  c4:	91000042 	add	x2, x2, #0x0
  c8:	52800301 	mov	w1, #0x18                  	// #24
  cc:	94000000 	bl	0 <_ZN4core6option13expect_failed17hc91abc95c5a246ebE>
  d0:	d4200020 	brk	#0x1
  d4:	14000006 	b	ec <_ZN4core3ptr13drop_in_place17h32f554acc0888400E+0xec>
  d8:	a9468668 	ldp	x8, x1, [x19,#104]
  dc:	aa0003f4 	mov	x20, x0
  e0:	aa0803e0 	mov	x0, x8
  e4:	94000000 	bl	0 <_ZN4core3ptr13drop_in_place17h32f554acc0888400E>
  e8:	14000009 	b	10c <_ZN4core3ptr13drop_in_place17h32f554acc0888400E+0x10c>
  ec:	aa0003f4 	mov	x20, x0
  f0:	b40000f5 	cbz	x21, 10c <_ZN4core3ptr13drop_in_place17h32f554acc0888400E+0x10c>
  f4:	aa1303e0 	mov	x0, x19
  f8:	91006276 	add	x22, x19, #0x18
  fc:	94000000 	bl	0 <_ZN4core3ptr13drop_in_place17h52626138cea8f2b9E.llvm.16365666833129853675>
 100:	f10062b5 	subs	x21, x21, #0x18
 104:	aa1603f3 	mov	x19, x22
 108:	54ffff61 	b.ne	f4 <_ZN4core3ptr13drop_in_place17h32f554acc0888400E+0xf4>
 10c:	aa1403e0 	mov	x0, x20
 110:	94000000 	bl	0 <_Unwind_Resume>
 114:	d4200020 	brk	#0x1

Disassembly of section .text._ZN4core3ptr13drop_in_place17h3aeb0071b4ef60b1E:

0000000000000000 <_ZN4core3ptr13drop_in_place17h3aeb0071b4ef60b1E>:
   0:	14000000 	b	0 <_ZN4core3ptr13drop_in_place17h3aeb0071b4ef60b1E>

Disassembly of section .text._ZN4core3ptr13drop_in_place17h551fcc9845b36f1dE:

0000000000000000 <_ZN4core3ptr13drop_in_place17h551fcc9845b36f1dE>:
   0:	a9bf4ffe 	stp	x30, x19, [sp,#-16]!
   4:	f9403c08 	ldr	x8, [x0,#120]
   8:	b4000228 	cbz	x8, 4c <_ZN4core3ptr13drop_in_place17h551fcc9845b36f1dE+0x4c>
   c:	aa0003f3 	mov	x19, x0
  10:	f100051f 	cmp	x8, #0x1
  14:	54000081 	b.ne	24 <_ZN4core3ptr13drop_in_place17h551fcc9845b36f1dE+0x24>
  18:	91020260 	add	x0, x19, #0x80
  1c:	a8c14ffe 	ldp	x30, x19, [sp],#16
  20:	14000000 	b	0 <_ZN4core3ptr13drop_in_place17h551fcc9845b36f1dE>
  24:	a9482260 	ldp	x0, x8, [x19,#128]
  28:	f9400108 	ldr	x8, [x8]
  2c:	d63f0100 	blr	x8
  30:	f9404668 	ldr	x8, [x19,#136]
  34:	f9400501 	ldr	x1, [x8,#8]
  38:	b40000a1 	cbz	x1, 4c <_ZN4core3ptr13drop_in_place17h551fcc9845b36f1dE+0x4c>
  3c:	f9404260 	ldr	x0, [x19,#128]
  40:	f9400902 	ldr	x2, [x8,#16]
  44:	a8c14ffe 	ldp	x30, x19, [sp],#16
  48:	14000000 	b	0 <__rust_dealloc>
  4c:	a8c14ffe 	ldp	x30, x19, [sp],#16
  50:	d65f03c0 	ret
  54:	a9480668 	ldp	x8, x1, [x19,#128]
  58:	aa0003f3 	mov	x19, x0
  5c:	aa0803e0 	mov	x0, x8
  60:	94000000 	bl	0 <_ZN4core3ptr13drop_in_place17h551fcc9845b36f1dE>
  64:	aa1303e0 	mov	x0, x19
  68:	94000000 	bl	0 <_Unwind_Resume>
  6c:	d4200020 	brk	#0x1

Disassembly of section .text._ZN4core3ptr13drop_in_place17h70bfbfe1fce20c61E.llvm.9633785243749374995:

0000000000000000 <_ZN4core3ptr13drop_in_place17h70bfbfe1fce20c61E.llvm.9633785243749374995>:
   0:	f9400408 	ldr	x8, [x0,#8]
   4:	b40000e8 	cbz	x8, 20 <_ZN4core3ptr13drop_in_place17h70bfbfe1fce20c61E.llvm.9633785243749374995+0x20>
   8:	8b080508 	add	x8, x8, x8, lsl #1
   c:	d37df101 	lsl	x1, x8, #3
  10:	b4000081 	cbz	x1, 20 <_ZN4core3ptr13drop_in_place17h70bfbfe1fce20c61E.llvm.9633785243749374995+0x20>
  14:	f9400000 	ldr	x0, [x0]
  18:	52800102 	mov	w2, #0x8                   	// #8
  1c:	14000000 	b	0 <__rust_dealloc>
  20:	d65f03c0 	ret

Disassembly of section .text._ZN4core3ptr13drop_in_place17h821056b8446babbeE:

0000000000000000 <_ZN4core3ptr13drop_in_place17h821056b8446babbeE>:
   0:	f9400008 	ldr	x8, [x0]
   4:	9100c108 	add	x8, x8, #0x30
   8:	089ffd1f 	stlrb	wzr, [x8]
   c:	d65f03c0 	ret

Disassembly of section .text._ZN4core3ptr13drop_in_place17hab293c7997335421E:

0000000000000000 <_ZN4core3ptr13drop_in_place17hab293c7997335421E>:
   0:	a9bd5ffe 	stp	x30, x23, [sp,#-48]!
   4:	a90157f6 	stp	x22, x21, [sp,#16]
   8:	a9024ff4 	stp	x20, x19, [sp,#32]
   c:	a9402408 	ldp	x8, x9, [x0]
  10:	5280030a 	mov	w10, #0x18                  	// #24
  14:	9b0a7d29 	mul	x9, x9, x10
  18:	d1006134 	sub	x20, x9, #0x18
  1c:	91006116 	add	x22, x8, #0x18
  20:	b100629f 	cmn	x20, #0x18
  24:	54000200 	b.eq	64 <_ZN4core3ptr13drop_in_place17hab293c7997335421E+0x64>
  28:	f9400909 	ldr	x9, [x8,#16]
  2c:	aa1403f5 	mov	x21, x20
  30:	aa1603f3 	mov	x19, x22
  34:	d37afd29 	lsr	x9, x9, #58
  38:	b50001e9 	cbnz	x9, 74 <_ZN4core3ptr13drop_in_place17hab293c7997335421E+0x74>
  3c:	f9400509 	ldr	x9, [x8,#8]
  40:	d10062b4 	sub	x20, x21, #0x18
  44:	91006276 	add	x22, x19, #0x18
  48:	91006117 	add	x23, x8, #0x18
  4c:	92400929 	and	x9, x9, #0x7
  50:	f9000509 	str	x9, [x8,#8]
  54:	aa0803e0 	mov	x0, x8
  58:	94000000 	bl	0 <_ZN6bitvec3vec19BitVec$LT$O$C$T$GT$8with_vec17hd029b1133e4d954cE>
  5c:	aa1703e8 	mov	x8, x23
  60:	17fffff0 	b	20 <_ZN4core3ptr13drop_in_place17hab293c7997335421E+0x20>
  64:	a9424ff4 	ldp	x20, x19, [sp,#32]
  68:	a94157f6 	ldp	x22, x21, [sp,#16]
  6c:	a8c35ffe 	ldp	x30, x23, [sp],#48
  70:	d65f03c0 	ret
  74:	90000000 	adrp	x0, 0 <anon.7ec6c23f66af455d80129188e54c088e.7.llvm.16365666833129853675>
  78:	90000002 	adrp	x2, 0 <anon.7ec6c23f66af455d80129188e54c088e.8.llvm.16365666833129853675>
  7c:	91000000 	add	x0, x0, #0x0
  80:	91000042 	add	x2, x2, #0x0
  84:	52800301 	mov	w1, #0x18                  	// #24
  88:	94000000 	bl	0 <_ZN4core6option13expect_failed17hc91abc95c5a246ebE>
  8c:	d4200020 	brk	#0x1
  90:	14000001 	b	94 <_ZN4core3ptr13drop_in_place17hab293c7997335421E+0x94>
  94:	aa0003f4 	mov	x20, x0
  98:	b40000f5 	cbz	x21, b4 <_ZN4core3ptr13drop_in_place17hab293c7997335421E+0xb4>
  9c:	aa1303e0 	mov	x0, x19
  a0:	91006276 	add	x22, x19, #0x18
  a4:	94000000 	bl	0 <_ZN4core3ptr13drop_in_place17h52626138cea8f2b9E.llvm.16365666833129853675>
  a8:	f10062b5 	subs	x21, x21, #0x18
  ac:	aa1603f3 	mov	x19, x22
  b0:	54ffff61 	b.ne	9c <_ZN4core3ptr13drop_in_place17hab293c7997335421E+0x9c>
  b4:	aa1403e0 	mov	x0, x20
  b8:	94000000 	bl	0 <_Unwind_Resume>
  bc:	d4200020 	brk	#0x1

Disassembly of section .text._ZN4core3ptr13drop_in_place17hb166669170a81697E:

0000000000000000 <_ZN4core3ptr13drop_in_place17hb166669170a81697E>:
   0:	a9bf4ffe 	stp	x30, x19, [sp,#-16]!
   4:	f9403408 	ldr	x8, [x0,#104]
   8:	f100091f 	cmp	x8, #0x2
   c:	54000183 	b.cc	3c <_ZN4core3ptr13drop_in_place17hb166669170a81697E+0x3c>
  10:	aa0003f3 	mov	x19, x0
  14:	a9472000 	ldp	x0, x8, [x0,#112]
  18:	f9400108 	ldr	x8, [x8]
  1c:	d63f0100 	blr	x8
  20:	f9403e68 	ldr	x8, [x19,#120]
  24:	f9400501 	ldr	x1, [x8,#8]
  28:	b40000a1 	cbz	x1, 3c <_ZN4core3ptr13drop_in_place17hb166669170a81697E+0x3c>
  2c:	f9403a60 	ldr	x0, [x19,#112]
  30:	f9400902 	ldr	x2, [x8,#16]
  34:	a8c14ffe 	ldp	x30, x19, [sp],#16
  38:	14000000 	b	0 <__rust_dealloc>
  3c:	a8c14ffe 	ldp	x30, x19, [sp],#16
  40:	d65f03c0 	ret
  44:	a9470668 	ldp	x8, x1, [x19,#112]
  48:	aa0003f3 	mov	x19, x0
  4c:	aa0803e0 	mov	x0, x8
  50:	94000000 	bl	0 <_ZN4core3ptr13drop_in_place17hb166669170a81697E>
  54:	aa1303e0 	mov	x0, x19
  58:	94000000 	bl	0 <_Unwind_Resume>
  5c:	d4200020 	brk	#0x1

Disassembly of section .text._ZN4core3ptr13drop_in_place17hfcf1d3f0e80c4926E:

0000000000000000 <_ZN4core3ptr13drop_in_place17hfcf1d3f0e80c4926E>:
   0:	f8410c08 	ldr	x8, [x0,#16]!
   4:	c85f7d09 	ldxr	x9, [x8]
   8:	f1000529 	subs	x9, x9, #0x1
   c:	c80afd09 	stlxr	w10, x9, [x8]
  10:	35ffffaa 	cbnz	w10, 4 <_ZN4core3ptr13drop_in_place17hfcf1d3f0e80c4926E+0x4>
  14:	54000061 	b.ne	20 <_ZN4core3ptr13drop_in_place17hfcf1d3f0e80c4926E+0x20>
  18:	d50339bf 	dmb	ishld
  1c:	14000000 	b	0 <_ZN5alloc4sync12Arc$LT$T$GT$9drop_slow17h9697f7fa84dc4c9bE>
  20:	d65f03c0 	ret

Disassembly of section .text._ZN5alloc11collections11linked_list19LinkedList$LT$T$GT$6append17h08db6d21b6e4b667E:

0000000000000000 <_ZN5alloc11collections11linked_list19LinkedList$LT$T$GT$6append17h08db6d21b6e4b667E>:
   0:	d10083ff 	sub	sp, sp, #0x20
   4:	f9400408 	ldr	x8, [x0,#8]
   8:	b4000208 	cbz	x8, 48 <_ZN5alloc11collections11linked_list19LinkedList$LT$T$GT$6append17h08db6d21b6e4b667E+0x48>
   c:	f9400029 	ldr	x9, [x1]
  10:	f900003f 	str	xzr, [x1]
  14:	b4000169 	cbz	x9, 40 <_ZN5alloc11collections11linked_list19LinkedList$LT$T$GT$6append17h08db6d21b6e4b667E+0x40>
  18:	f9000109 	str	x9, [x8]
  1c:	f9000528 	str	x8, [x9,#8]
  20:	f9400428 	ldr	x8, [x1,#8]
  24:	f900043f 	str	xzr, [x1,#8]
  28:	f9000408 	str	x8, [x0,#8]
  2c:	f9400828 	ldr	x8, [x1,#16]
  30:	f900083f 	str	xzr, [x1,#16]
  34:	f9400809 	ldr	x9, [x0,#16]
  38:	8b080128 	add	x8, x9, x8
  3c:	f9000808 	str	x8, [x0,#16]
  40:	910083ff 	add	sp, sp, #0x20
  44:	d65f03c0 	ret
  48:	f9400808 	ldr	x8, [x0,#16]
  4c:	3dc00000 	ldr	q0, [x0]
  50:	f9000be8 	str	x8, [sp,#16]
  54:	3d8003e0 	str	q0, [sp]
  58:	f9400828 	ldr	x8, [x1,#16]
  5c:	3dc00020 	ldr	q0, [x1]
  60:	f9000808 	str	x8, [x0,#16]
  64:	3d800000 	str	q0, [x0]
  68:	f9400be8 	ldr	x8, [sp,#16]
  6c:	3dc003e0 	ldr	q0, [sp]
  70:	f9000828 	str	x8, [x1,#16]
  74:	3d800020 	str	q0, [x1]
  78:	910083ff 	add	sp, sp, #0x20
  7c:	d65f03c0 	ret

Disassembly of section .text._ZN5alloc11collections11linked_list19LinkedList$LT$T$GT$9pop_front17h51f2675a2db9439dE:

0000000000000000 <_ZN5alloc11collections11linked_list19LinkedList$LT$T$GT$9pop_front17h51f2675a2db9439dE>:
   0:	aa0003e9 	mov	x9, x0
   4:	f9400000 	ldr	x0, [x0]
   8:	b4000240 	cbz	x0, 50 <_ZN5alloc11collections11linked_list19LinkedList$LT$T$GT$9pop_front17h51f2675a2db9439dE+0x50>
   c:	f940000a 	ldr	x10, [x0]
  10:	9100212b 	add	x11, x9, #0x8
  14:	52800501 	mov	w1, #0x28                  	// #40
  18:	52800102 	mov	w2, #0x8                   	// #8
  1c:	9100214c 	add	x12, x10, #0x8
  20:	f100015f 	cmp	x10, #0x0
  24:	f900012a 	str	x10, [x9]
  28:	9a8c016a 	csel	x10, x11, x12, eq
  2c:	f900015f 	str	xzr, [x10]
  30:	f940092a 	ldr	x10, [x9,#16]
  34:	d100054a 	sub	x10, x10, #0x1
  38:	f900092a 	str	x10, [x9,#16]
  3c:	f9401009 	ldr	x9, [x0,#32]
  40:	3dc00400 	ldr	q0, [x0,#16]
  44:	f9000909 	str	x9, [x8,#16]
  48:	3d800100 	str	q0, [x8]
  4c:	14000000 	b	0 <__rust_dealloc>
  50:	a9007d1f 	stp	xzr, xzr, [x8]
  54:	f900091f 	str	xzr, [x8,#16]
  58:	d65f03c0 	ret

Disassembly of section .text._ZN5alloc11collections11linked_list19LinkedList$LT$T$GT$9push_back17h19a63638c5f56c36E:

0000000000000000 <_ZN5alloc11collections11linked_list19LinkedList$LT$T$GT$9push_back17h19a63638c5f56c36E>:
   0:	f81e0ffe 	str	x30, [sp,#-32]!
   4:	a9014ff4 	stp	x20, x19, [sp,#16]
   8:	aa0103f4 	mov	x20, x1
   c:	aa0003f3 	mov	x19, x0
  10:	52800500 	mov	w0, #0x28                  	// #40
  14:	52800101 	mov	w1, #0x8                   	// #8
  18:	94000000 	bl	0 <__rust_alloc>
  1c:	b4000200 	cbz	x0, 5c <_ZN5alloc11collections11linked_list19LinkedList$LT$T$GT$9push_back17h19a63638c5f56c36E+0x5c>
  20:	f9400a88 	ldr	x8, [x20,#16]
  24:	3dc00280 	ldr	q0, [x20]
  28:	f9001008 	str	x8, [x0,#32]
  2c:	3d800400 	str	q0, [x0,#16]
  30:	f9400668 	ldr	x8, [x19,#8]
  34:	f100011f 	cmp	x8, #0x0
  38:	a900201f 	stp	xzr, x8, [x0]
  3c:	9a880268 	csel	x8, x19, x8, eq
  40:	f9000100 	str	x0, [x8]
  44:	f9400a68 	ldr	x8, [x19,#16]
  48:	91000508 	add	x8, x8, #0x1
  4c:	a900a260 	stp	x0, x8, [x19,#8]
  50:	a9414ff4 	ldp	x20, x19, [sp,#16]
  54:	f84207fe 	ldr	x30, [sp],#32
  58:	d65f03c0 	ret
  5c:	52800500 	mov	w0, #0x28                  	// #40
  60:	52800101 	mov	w1, #0x8                   	// #8
  64:	94000000 	bl	0 <_ZN5alloc5alloc18handle_alloc_error17hdcf25d948d4c5cd4E>
  68:	d4200020 	brk	#0x1

Disassembly of section .text._ZN5alloc5alloc8box_free17h7c7cbab10da77cccE.llvm.9633785243749374995:

0000000000000000 <_ZN5alloc5alloc8box_free17h7c7cbab10da77cccE.llvm.9633785243749374995>:
   0:	52800501 	mov	w1, #0x28                  	// #40
   4:	52800102 	mov	w2, #0x8                   	// #8
   8:	14000000 	b	0 <__rust_dealloc>

Disassembly of section .text._ZN5alloc5alloc8box_free17hcbacdf09322f2dc2E:

0000000000000000 <_ZN5alloc5alloc8box_free17hcbacdf09322f2dc2E>:
   0:	aa0103e8 	mov	x8, x1
   4:	f9400421 	ldr	x1, [x1,#8]
   8:	b4000061 	cbz	x1, 14 <_ZN5alloc5alloc8box_free17hcbacdf09322f2dc2E+0x14>
   c:	f9400902 	ldr	x2, [x8,#16]
  10:	14000000 	b	0 <__rust_dealloc>
  14:	d65f03c0 	ret

Disassembly of section .text._ZN5rayon4iter8for_each8for_each17h056bbc76631f23c0E:

0000000000000000 <_ZN5rayon4iter8for_each8for_each17h056bbc76631f23c0E>:
   0:	d10103ff 	sub	sp, sp, #0x40
   4:	a940ac02 	ldp	x2, x11, [x0,#8]
   8:	a941a809 	ldp	x9, x10, [x0,#24]
   c:	f9400008 	ldr	x8, [x0]
  10:	910023e0 	add	x0, sp, #0x8
  14:	eb09005f 	cmp	x2, x9
  18:	a901afea 	stp	x10, x11, [sp,#24]
  1c:	9a82812a 	csel	x10, x9, x2, hi
  20:	a90087ea 	stp	x10, x1, [sp,#8]
  24:	aa0803e1 	mov	x1, x8
  28:	a902fbe9 	stp	x9, x30, [sp,#40]
  2c:	94000000 	bl	0 <_ZN202_$LT$$LT$rayon..iter..zip..Zip$LT$A$C$B$GT$$u20$as$u20$rayon..iter..IndexedParallelIterator$GT$..with_producer..CallbackA$LT$CB$C$B$GT$$u20$as$u20$rayon..iter..plumbing..ProducerCallback$LT$ITEM$GT$$GT$8callback17ha84c5f3fa6626ea7E>
  30:	f9401bfe 	ldr	x30, [sp,#48]
  34:	910103ff 	add	sp, sp, #0x40
  38:	d65f03c0 	ret

Disassembly of section .text._ZN93_$LT$crossbeam_channel..flavors..array..Channel$LT$T$GT$$u20$as$u20$core..ops..drop..Drop$GT$4drop17h4f98202c4e512bdbE:

0000000000000000 <_ZN93_$LT$crossbeam_channel..flavors..array..Channel$LT$T$GT$$u20$as$u20$core..ops..drop..Drop$GT$4drop17h4f98202c4e512bdbE>:
   0:	f940001f 	ldr	xzr, [x0]
   4:	91020008 	add	x8, x0, #0x80
   8:	c8dffd09 	ldar	x9, [x8]
   c:	c8dffc1f 	ldar	xzr, [x0]
  10:	c8dffd08 	ldar	x8, [x8]
  14:	eb09011f 	cmp	x8, x9
  18:	54ffff61 	b.ne	4 <_ZN93_$LT$crossbeam_channel..flavors..array..Channel$LT$T$GT$$u20$as$u20$core..ops..drop..Drop$GT$4drop17h4f98202c4e512bdbE+0x4>
  1c:	f9408408 	ldr	x8, [x0,#264]
  20:	d37be901 	lsl	x1, x8, #5
  24:	b4000081 	cbz	x1, 34 <_ZN93_$LT$crossbeam_channel..flavors..array..Channel$LT$T$GT$$u20$as$u20$core..ops..drop..Drop$GT$4drop17h4f98202c4e512bdbE+0x34>
  28:	f9408000 	ldr	x0, [x0,#256]
  2c:	52800102 	mov	w2, #0x8                   	// #8
  30:	14000000 	b	0 <__rust_dealloc>
  34:	d65f03c0 	ret

Disassembly of section .text._ZN94_$LT$alloc..collections..linked_list..LinkedList$LT$T$GT$$u20$as$u20$core..ops..drop..Drop$GT$4drop17h5831681bbd6595d2E:

0000000000000000 <_ZN94_$LT$alloc..collections..linked_list..LinkedList$LT$T$GT$$u20$as$u20$core..ops..drop..Drop$GT$4drop17h5831681bbd6595d2E>:
   0:	f81a0ffe 	str	x30, [sp,#-96]!
   4:	a9016ffc 	stp	x28, x27, [sp,#16]
   8:	a90267fa 	stp	x26, x25, [sp,#32]
   c:	a9035ff8 	stp	x24, x23, [sp,#48]
  10:	a90457f6 	stp	x22, x21, [sp,#64]
  14:	a9054ff4 	stp	x20, x19, [sp,#80]
  18:	f9400013 	ldr	x19, [x0]
  1c:	b40006b3 	cbz	x19, f0 <_ZN94_$LT$alloc..collections..linked_list..LinkedList$LT$T$GT$$u20$as$u20$core..ops..drop..Drop$GT$4drop17h5831681bbd6595d2E+0xf0>
  20:	aa0003f5 	mov	x21, x0
  24:	91002017 	add	x23, x0, #0x8
  28:	52800318 	mov	w24, #0x18                  	// #24
  2c:	14000007 	b	48 <_ZN94_$LT$alloc..collections..linked_list..LinkedList$LT$T$GT$$u20$as$u20$core..ops..drop..Drop$GT$4drop17h5831681bbd6595d2E+0x48>
  30:	52800501 	mov	w1, #0x28                  	// #40
  34:	52800102 	mov	w2, #0x8                   	// #8
  38:	aa1303e0 	mov	x0, x19
  3c:	94000000 	bl	0 <__rust_dealloc>
  40:	f94002b3 	ldr	x19, [x21]
  44:	b4000573 	cbz	x19, f0 <_ZN94_$LT$alloc..collections..linked_list..LinkedList$LT$T$GT$$u20$as$u20$core..ops..drop..Drop$GT$4drop17h5831681bbd6595d2E+0xf0>
  48:	f9400268 	ldr	x8, [x19]
  4c:	aa1303f4 	mov	x20, x19
  50:	91002109 	add	x9, x8, #0x8
  54:	f100011f 	cmp	x8, #0x0
  58:	f90002a8 	str	x8, [x21]
  5c:	9a8902e8 	csel	x8, x23, x9, eq
  60:	f900011f 	str	xzr, [x8]
  64:	f9400aa8 	ldr	x8, [x21,#16]
  68:	d1000508 	sub	x8, x8, #0x1
  6c:	f9000aa8 	str	x8, [x21,#16]
  70:	f90007f5 	str	x21, [sp,#8]
  74:	f8410e88 	ldr	x8, [x20,#16]!
  78:	f9400a89 	ldr	x9, [x20,#16]
  7c:	9100611b 	add	x27, x8, #0x18
  80:	9b187d29 	mul	x9, x9, x24
  84:	d100613a 	sub	x26, x9, #0x18
  88:	b100635f 	cmn	x26, #0x18
  8c:	54000200 	b.eq	cc <_ZN94_$LT$alloc..collections..linked_list..LinkedList$LT$T$GT$$u20$as$u20$core..ops..drop..Drop$GT$4drop17h5831681bbd6595d2E+0xcc>
  90:	f9400909 	ldr	x9, [x8,#16]
  94:	aa1a03f9 	mov	x25, x26
  98:	aa1b03f6 	mov	x22, x27
  9c:	d37afd29 	lsr	x9, x9, #58
  a0:	b5000369 	cbnz	x9, 10c <_ZN94_$LT$alloc..collections..linked_list..LinkedList$LT$T$GT$$u20$as$u20$core..ops..drop..Drop$GT$4drop17h5831681bbd6595d2E+0x10c>
  a4:	f9400509 	ldr	x9, [x8,#8]
  a8:	d100633a 	sub	x26, x25, #0x18
  ac:	910062db 	add	x27, x22, #0x18
  b0:	9100611c 	add	x28, x8, #0x18
  b4:	92400929 	and	x9, x9, #0x7
  b8:	f9000509 	str	x9, [x8,#8]
  bc:	aa0803e0 	mov	x0, x8
  c0:	94000000 	bl	0 <_ZN6bitvec3vec19BitVec$LT$O$C$T$GT$8with_vec17hd029b1133e4d954cE>
  c4:	aa1c03e8 	mov	x8, x28
  c8:	17fffff0 	b	88 <_ZN94_$LT$alloc..collections..linked_list..LinkedList$LT$T$GT$$u20$as$u20$core..ops..drop..Drop$GT$4drop17h5831681bbd6595d2E+0x88>
  cc:	f9400e68 	ldr	x8, [x19,#24]
  d0:	b4fffb08 	cbz	x8, 30 <_ZN94_$LT$alloc..collections..linked_list..LinkedList$LT$T$GT$$u20$as$u20$core..ops..drop..Drop$GT$4drop17h5831681bbd6595d2E+0x30>
  d4:	8b080508 	add	x8, x8, x8, lsl #1
  d8:	d37df101 	lsl	x1, x8, #3
  dc:	b4fffaa1 	cbz	x1, 30 <_ZN94_$LT$alloc..collections..linked_list..LinkedList$LT$T$GT$$u20$as$u20$core..ops..drop..Drop$GT$4drop17h5831681bbd6595d2E+0x30>
  e0:	f9400280 	ldr	x0, [x20]
  e4:	52800102 	mov	w2, #0x8                   	// #8
  e8:	94000000 	bl	0 <__rust_dealloc>
  ec:	17ffffd1 	b	30 <_ZN94_$LT$alloc..collections..linked_list..LinkedList$LT$T$GT$$u20$as$u20$core..ops..drop..Drop$GT$4drop17h5831681bbd6595d2E+0x30>
  f0:	a9454ff4 	ldp	x20, x19, [sp,#80]
  f4:	a94457f6 	ldp	x22, x21, [sp,#64]
  f8:	a9435ff8 	ldp	x24, x23, [sp,#48]
  fc:	a94267fa 	ldp	x26, x25, [sp,#32]
 100:	a9416ffc 	ldp	x28, x27, [sp,#16]
 104:	f84607fe 	ldr	x30, [sp],#96
 108:	d65f03c0 	ret
 10c:	90000000 	adrp	x0, 0 <anon.10617ddde09110abf4a7a1b83bc6ca7e.3.llvm.11575308234008418851>
 110:	90000002 	adrp	x2, 0 <anon.10617ddde09110abf4a7a1b83bc6ca7e.4.llvm.11575308234008418851>
 114:	91000000 	add	x0, x0, #0x0
 118:	91000042 	add	x2, x2, #0x0
 11c:	52800301 	mov	w1, #0x18                  	// #24
 120:	94000000 	bl	0 <_ZN4core6option13expect_failed17hc91abc95c5a246ebE>
 124:	d4200020 	brk	#0x1
 128:	14000001 	b	12c <_ZN94_$LT$alloc..collections..linked_list..LinkedList$LT$T$GT$$u20$as$u20$core..ops..drop..Drop$GT$4drop17h5831681bbd6595d2E+0x12c>
 12c:	aa0003f5 	mov	x21, x0
 130:	b40000d9 	cbz	x25, 148 <_ZN94_$LT$alloc..collections..linked_list..LinkedList$LT$T$GT$$u20$as$u20$core..ops..drop..Drop$GT$4drop17h5831681bbd6595d2E+0x148>
 134:	aa1603e0 	mov	x0, x22
 138:	94000000 	bl	0 <_ZN4core3ptr13drop_in_place17h52626138cea8f2b9E.llvm.11575308234008418851>
 13c:	f1006339 	subs	x25, x25, #0x18
 140:	910062d6 	add	x22, x22, #0x18
 144:	54ffff81 	b.ne	134 <_ZN94_$LT$alloc..collections..linked_list..LinkedList$LT$T$GT$$u20$as$u20$core..ops..drop..Drop$GT$4drop17h5831681bbd6595d2E+0x134>
 148:	aa1403e0 	mov	x0, x20
 14c:	94000000 	bl	0 <_ZN94_$LT$alloc..collections..linked_list..LinkedList$LT$T$GT$$u20$as$u20$core..ops..drop..Drop$GT$4drop17h5831681bbd6595d2E>
 150:	aa1303e0 	mov	x0, x19
 154:	94000000 	bl	0 <_ZN94_$LT$alloc..collections..linked_list..LinkedList$LT$T$GT$$u20$as$u20$core..ops..drop..Drop$GT$4drop17h5831681bbd6595d2E>
 158:	910023e0 	add	x0, sp, #0x8
 15c:	94000000 	bl	0 <_ZN94_$LT$alloc..collections..linked_list..LinkedList$LT$T$GT$$u20$as$u20$core..ops..drop..Drop$GT$4drop17h5831681bbd6595d2E>
 160:	aa1503e0 	mov	x0, x21
 164:	94000000 	bl	0 <_Unwind_Resume>
 168:	d4200020 	brk	#0x1
 16c:	aa0003f5 	mov	x21, x0
 170:	17fffff6 	b	148 <_ZN94_$LT$alloc..collections..linked_list..LinkedList$LT$T$GT$$u20$as$u20$core..ops..drop..Drop$GT$4drop17h5831681bbd6595d2E+0x148>

Disassembly of section .group:

0000000000000000 <.group>:
   0:	00000001 	.inst	0x00000001 ; undefined
   4:	0000005c 	.inst	0x0000005c ; undefined

Disassembly of section .text._ZN4core3ptr13drop_in_place17h135cd0901b23fda6E:

0000000000000000 <_ZN4core3ptr13drop_in_place17h135cd0901b23fda6E>:
   0:	a9be57fe 	stp	x30, x21, [sp,#-32]!
   4:	a9014ff4 	stp	x20, x19, [sp,#16]
   8:	f9400008 	ldr	x8, [x0]
   c:	f9404009 	ldr	x9, [x0,#128]
  10:	f9400400 	ldr	x0, [x0,#8]
  14:	927ff913 	and	x19, x8, #0xfffffffffffffffe
  18:	927ff934 	and	x20, x9, #0xfffffffffffffffe
  1c:	eb14027f 	cmp	x19, x20
  20:	54000121 	b.ne	44 <_ZN4core3ptr13drop_in_place17h135cd0901b23fda6E+0x44>
  24:	a9414ff4 	ldp	x20, x19, [sp,#16]
  28:	5280be01 	mov	w1, #0x5f0                 	// #1520
  2c:	52800102 	mov	w2, #0x8                   	// #8
  30:	a8c257fe 	ldp	x30, x21, [sp],#32
  34:	14000000 	b	0 <__rust_dealloc>
  38:	91000a73 	add	x19, x19, #0x2
  3c:	eb13029f 	cmp	x20, x19
  40:	54ffff20 	b.eq	24 <_ZN4core3ptr13drop_in_place17h135cd0901b23fda6E+0x24>
  44:	2a3303e8 	mvn	w8, w19
  48:	f27f151f 	tst	x8, #0x7e
  4c:	54ffff61 	b.ne	38 <_ZN4core3ptr13drop_in_place17h135cd0901b23fda6E+0x38>
  50:	f9400015 	ldr	x21, [x0]
  54:	5280be01 	mov	w1, #0x5f0                 	// #1520
  58:	52800102 	mov	w2, #0x8                   	// #8
  5c:	94000000 	bl	0 <__rust_dealloc>
  60:	aa1503e0 	mov	x0, x21
  64:	17fffff5 	b	38 <_ZN4core3ptr13drop_in_place17h135cd0901b23fda6E+0x38>

Disassembly of section .text._ZN4core3ptr13drop_in_place17h2913e57f77a57595E:

0000000000000000 <_ZN4core3ptr13drop_in_place17h2913e57f77a57595E>:
   0:	f9400408 	ldr	x8, [x0,#8]
   4:	b40000c8 	cbz	x8, 1c <_ZN4core3ptr13drop_in_place17h2913e57f77a57595E+0x1c>
   8:	d379e101 	lsl	x1, x8, #7
   c:	b4000081 	cbz	x1, 1c <_ZN4core3ptr13drop_in_place17h2913e57f77a57595E+0x1c>
  10:	f9400000 	ldr	x0, [x0]
  14:	52801002 	mov	w2, #0x80                  	// #128
  18:	14000000 	b	0 <__rust_dealloc>
  1c:	d65f03c0 	ret

Disassembly of section .text._ZN4core3ptr13drop_in_place17h4e60b9410ba440deE:

0000000000000000 <_ZN4core3ptr13drop_in_place17h4e60b9410ba440deE>:
   0:	a9bf4ffe 	stp	x30, x19, [sp,#-16]!
   4:	aa0003f3 	mov	x19, x0
   8:	f9400000 	ldr	x0, [x0]
   c:	b4000160 	cbz	x0, 38 <_ZN4core3ptr13drop_in_place17h4e60b9410ba440deE+0x38>
  10:	f9400668 	ldr	x8, [x19,#8]
  14:	f9400108 	ldr	x8, [x8]
  18:	d63f0100 	blr	x8
  1c:	f9400668 	ldr	x8, [x19,#8]
  20:	f9400501 	ldr	x1, [x8,#8]
  24:	b40000a1 	cbz	x1, 38 <_ZN4core3ptr13drop_in_place17h4e60b9410ba440deE+0x38>
  28:	f9400260 	ldr	x0, [x19]
  2c:	f9400902 	ldr	x2, [x8,#16]
  30:	a8c14ffe 	ldp	x30, x19, [sp],#16
  34:	14000000 	b	0 <__rust_dealloc>
  38:	a8c14ffe 	ldp	x30, x19, [sp],#16
  3c:	d65f03c0 	ret
