In archive target/armv7-linux-androideabi/release/libraidpir.rlib:

raidpir-40e7ec1fc217dede.raidpir.9yw77drg-cgu.0.rcgu.o:     file format elf32-littlearm


Disassembly of section .text._ZN4core3ptr13drop_in_place17h1c56b046bd207b14E.llvm.13327563362513294482:

00000000 <_ZN4core3ptr13drop_in_place17h1c56b046bd207b14E.llvm.13327563362513294482>:
   0:	4770      	bx	lr

Disassembly of section .text._ZN5alloc7raw_vec11finish_grow17h13d13bb9c411b68dE.llvm.13327563362513294482:

00000000 <_ZN5alloc7raw_vec11finish_grow17h13d13bb9c411b68dE.llvm.13327563362513294482>:
   0:	b5f0      	push	{r4, r5, r6, r7, lr}
   2:	b081      	sub	sp, #4
   4:	4604      	mov	r4, r0
   6:	2a00      	cmp	r2, #0
   8:	4617      	mov	r7, r2
   a:	bf18      	it	ne
   c:	460f      	movne	r7, r1
   e:	d010      	beq.n	32 <_ZN5alloc7raw_vec11finish_grow17h13d13bb9c411b68dE.llvm.13327563362513294482+0x32>
  10:	2f00      	cmp	r7, #0
  12:	d415      	bmi.n	40 <_ZN5alloc7raw_vec11finish_grow17h13d13bb9c411b68dE.llvm.13327563362513294482+0x40>
  14:	6818      	ldr	r0, [r3, #0]
  16:	4616      	mov	r6, r2
  18:	460d      	mov	r5, r1
  1a:	2800      	cmp	r0, #0
  1c:	bf1c      	itt	ne
  1e:	6859      	ldrne	r1, [r3, #4]
  20:	2900      	cmpne	r1, #0
  22:	d114      	bne.n	4e <_ZN5alloc7raw_vec11finish_grow17h13d13bb9c411b68dE.llvm.13327563362513294482+0x4e>
  24:	b1ff      	cbz	r7, 66 <_ZN5alloc7raw_vec11finish_grow17h13d13bb9c411b68dE.llvm.13327563362513294482+0x66>
  26:	4638      	mov	r0, r7
  28:	4631      	mov	r1, r6
  2a:	f7ff fffe 	bl	0 <__rust_alloc>
  2e:	b9e0      	cbnz	r0, 6a <_ZN5alloc7raw_vec11finish_grow17h13d13bb9c411b68dE.llvm.13327563362513294482+0x6a>
  30:	e012      	b.n	58 <_ZN5alloc7raw_vec11finish_grow17h13d13bb9c411b68dE.llvm.13327563362513294482+0x58>
  32:	2001      	movs	r0, #1
  34:	2500      	movs	r5, #0
  36:	6067      	str	r7, [r4, #4]
  38:	6020      	str	r0, [r4, #0]
  3a:	60a5      	str	r5, [r4, #8]
  3c:	b001      	add	sp, #4
  3e:	bdf0      	pop	{r4, r5, r6, r7, pc}
  40:	2500      	movs	r5, #0
  42:	2001      	movs	r0, #1
  44:	6065      	str	r5, [r4, #4]
  46:	6020      	str	r0, [r4, #0]
  48:	60a5      	str	r5, [r4, #8]
  4a:	b001      	add	sp, #4
  4c:	bdf0      	pop	{r4, r5, r6, r7, pc}
  4e:	4632      	mov	r2, r6
  50:	463b      	mov	r3, r7
  52:	f7ff fffe 	bl	0 <__rust_realloc>
  56:	b940      	cbnz	r0, 6a <_ZN5alloc7raw_vec11finish_grow17h13d13bb9c411b68dE.llvm.13327563362513294482+0x6a>
  58:	6067      	str	r7, [r4, #4]
  5a:	2001      	movs	r0, #1
  5c:	4635      	mov	r5, r6
  5e:	6020      	str	r0, [r4, #0]
  60:	60a5      	str	r5, [r4, #8]
  62:	b001      	add	sp, #4
  64:	bdf0      	pop	{r4, r5, r6, r7, pc}
  66:	2500      	movs	r5, #0
  68:	4630      	mov	r0, r6
  6a:	6060      	str	r0, [r4, #4]
  6c:	2000      	movs	r0, #0
  6e:	6020      	str	r0, [r4, #0]
  70:	60a5      	str	r5, [r4, #8]
  72:	b001      	add	sp, #4
  74:	bdf0      	pop	{r4, r5, r6, r7, pc}

Disassembly of section .text._ZN5alloc7raw_vec19RawVec$LT$T$C$A$GT$11allocate_in17h33e39e98330f8089E:

00000000 <_ZN5alloc7raw_vec19RawVec$LT$T$C$A$GT$11allocate_in17h33e39e98330f8089E>:
   0:	b510      	push	{r4, lr}
   2:	f1b0 3fff 	cmp.w	r0, #4294967295	; 0xffffffff
   6:	dd18      	ble.n	3a <_ZN5alloc7raw_vec19RawVec$LT$T$C$A$GT$11allocate_in17h33e39e98330f8089E+0x3a>
   8:	4604      	mov	r4, r0
   a:	b129      	cbz	r1, 18 <_ZN5alloc7raw_vec19RawVec$LT$T$C$A$GT$11allocate_in17h33e39e98330f8089E+0x18>
   c:	b194      	cbz	r4, 34 <_ZN5alloc7raw_vec19RawVec$LT$T$C$A$GT$11allocate_in17h33e39e98330f8089E+0x34>
   e:	4620      	mov	r0, r4
  10:	2101      	movs	r1, #1
  12:	f7ff fffe 	bl	0 <__rust_alloc_zeroed>
  16:	e004      	b.n	22 <_ZN5alloc7raw_vec19RawVec$LT$T$C$A$GT$11allocate_in17h33e39e98330f8089E+0x22>
  18:	b164      	cbz	r4, 34 <_ZN5alloc7raw_vec19RawVec$LT$T$C$A$GT$11allocate_in17h33e39e98330f8089E+0x34>
  1a:	4620      	mov	r0, r4
  1c:	2101      	movs	r1, #1
  1e:	f7ff fffe 	bl	0 <__rust_alloc>
  22:	2800      	cmp	r0, #0
  24:	bf1c      	itt	ne
  26:	4621      	movne	r1, r4
  28:	bd10      	popne	{r4, pc}
  2a:	4620      	mov	r0, r4
  2c:	2101      	movs	r1, #1
  2e:	f7ff fffe 	bl	0 <_ZN5alloc5alloc18handle_alloc_error17ha86af5c1874b681eE>
  32:	defe      	udf	#254	; 0xfe
  34:	2001      	movs	r0, #1
  36:	4621      	mov	r1, r4
  38:	bd10      	pop	{r4, pc}
  3a:	f7ff fffe 	bl	0 <_ZN5alloc7raw_vec17capacity_overflow17hc75ec95415a61168E>
  3e:	defe      	udf	#254	; 0xfe

Disassembly of section .text._ZN5alloc7raw_vec19RawVec$LT$T$C$A$GT$11allocate_in17ha0e854b6b49ade65E:

00000000 <_ZN5alloc7raw_vec19RawVec$LT$T$C$A$GT$11allocate_in17ha0e854b6b49ade65E>:
   0:	b510      	push	{r4, lr}
   2:	0f42      	lsrs	r2, r0, #29
   4:	d11b      	bne.n	3e <_ZN5alloc7raw_vec19RawVec$LT$T$C$A$GT$11allocate_in17ha0e854b6b49ade65E+0x3e>
   6:	00c4      	lsls	r4, r0, #3
   8:	f1b4 3fff 	cmp.w	r4, #4294967295	; 0xffffffff
   c:	dd17      	ble.n	3e <_ZN5alloc7raw_vec19RawVec$LT$T$C$A$GT$11allocate_in17ha0e854b6b49ade65E+0x3e>
   e:	b129      	cbz	r1, 1c <_ZN5alloc7raw_vec19RawVec$LT$T$C$A$GT$11allocate_in17ha0e854b6b49ade65E+0x1c>
  10:	b194      	cbz	r4, 38 <_ZN5alloc7raw_vec19RawVec$LT$T$C$A$GT$11allocate_in17ha0e854b6b49ade65E+0x38>
  12:	4620      	mov	r0, r4
  14:	2104      	movs	r1, #4
  16:	f7ff fffe 	bl	0 <__rust_alloc_zeroed>
  1a:	e004      	b.n	26 <_ZN5alloc7raw_vec19RawVec$LT$T$C$A$GT$11allocate_in17ha0e854b6b49ade65E+0x26>
  1c:	b164      	cbz	r4, 38 <_ZN5alloc7raw_vec19RawVec$LT$T$C$A$GT$11allocate_in17ha0e854b6b49ade65E+0x38>
  1e:	4620      	mov	r0, r4
  20:	2104      	movs	r1, #4
  22:	f7ff fffe 	bl	0 <__rust_alloc>
  26:	2800      	cmp	r0, #0
  28:	bf1c      	itt	ne
  2a:	08e1      	lsrne	r1, r4, #3
  2c:	bd10      	popne	{r4, pc}
  2e:	4620      	mov	r0, r4
  30:	2104      	movs	r1, #4
  32:	f7ff fffe 	bl	0 <_ZN5alloc5alloc18handle_alloc_error17ha86af5c1874b681eE>
  36:	defe      	udf	#254	; 0xfe
  38:	2004      	movs	r0, #4
  3a:	08e1      	lsrs	r1, r4, #3
  3c:	bd10      	pop	{r4, pc}
  3e:	f7ff fffe 	bl	0 <_ZN5alloc7raw_vec17capacity_overflow17hc75ec95415a61168E>
  42:	defe      	udf	#254	; 0xfe

Disassembly of section .text._ZN5alloc7raw_vec19RawVec$LT$T$C$A$GT$11allocate_in17hc3c3c8c379fb1c94E:

00000000 <_ZN5alloc7raw_vec19RawVec$LT$T$C$A$GT$11allocate_in17hc3c3c8c379fb1c94E>:
   0:	b510      	push	{r4, lr}
   2:	0f82      	lsrs	r2, r0, #30
   4:	d11b      	bne.n	3e <_ZN5alloc7raw_vec19RawVec$LT$T$C$A$GT$11allocate_in17hc3c3c8c379fb1c94E+0x3e>
   6:	0084      	lsls	r4, r0, #2
   8:	f1b4 3fff 	cmp.w	r4, #4294967295	; 0xffffffff
   c:	dd17      	ble.n	3e <_ZN5alloc7raw_vec19RawVec$LT$T$C$A$GT$11allocate_in17hc3c3c8c379fb1c94E+0x3e>
   e:	b129      	cbz	r1, 1c <_ZN5alloc7raw_vec19RawVec$LT$T$C$A$GT$11allocate_in17hc3c3c8c379fb1c94E+0x1c>
  10:	b194      	cbz	r4, 38 <_ZN5alloc7raw_vec19RawVec$LT$T$C$A$GT$11allocate_in17hc3c3c8c379fb1c94E+0x38>
  12:	4620      	mov	r0, r4
  14:	2104      	movs	r1, #4
  16:	f7ff fffe 	bl	0 <__rust_alloc_zeroed>
  1a:	e004      	b.n	26 <_ZN5alloc7raw_vec19RawVec$LT$T$C$A$GT$11allocate_in17hc3c3c8c379fb1c94E+0x26>
  1c:	b164      	cbz	r4, 38 <_ZN5alloc7raw_vec19RawVec$LT$T$C$A$GT$11allocate_in17hc3c3c8c379fb1c94E+0x38>
  1e:	4620      	mov	r0, r4
  20:	2104      	movs	r1, #4
  22:	f7ff fffe 	bl	0 <__rust_alloc>
  26:	2800      	cmp	r0, #0
  28:	bf1c      	itt	ne
  2a:	08a1      	lsrne	r1, r4, #2
  2c:	bd10      	popne	{r4, pc}
  2e:	4620      	mov	r0, r4
  30:	2104      	movs	r1, #4
  32:	f7ff fffe 	bl	0 <_ZN5alloc5alloc18handle_alloc_error17ha86af5c1874b681eE>
  36:	defe      	udf	#254	; 0xfe
  38:	2004      	movs	r0, #4
  3a:	08a1      	lsrs	r1, r4, #2
  3c:	bd10      	pop	{r4, pc}
  3e:	f7ff fffe 	bl	0 <_ZN5alloc7raw_vec17capacity_overflow17hc75ec95415a61168E>
  42:	defe      	udf	#254	; 0xfe

Disassembly of section .text._ZN5alloc7raw_vec19RawVec$LT$T$C$A$GT$3ptr17h24de12ab5448efc0E:

00000000 <_ZN5alloc7raw_vec19RawVec$LT$T$C$A$GT$3ptr17h24de12ab5448efc0E>:
   0:	6800      	ldr	r0, [r0, #0]
   2:	4770      	bx	lr

Disassembly of section .text._ZN5alloc7raw_vec19RawVec$LT$T$C$A$GT$3ptr17h42f014c23c042104E:

00000000 <_ZN5alloc7raw_vec19RawVec$LT$T$C$A$GT$3ptr17h42f014c23c042104E>:
   0:	6800      	ldr	r0, [r0, #0]
   2:	4770      	bx	lr

Disassembly of section .text._ZN5alloc7raw_vec19RawVec$LT$T$C$A$GT$7reserve17h46e523c3d1c35368E:

00000000 <_ZN5alloc7raw_vec19RawVec$LT$T$C$A$GT$7reserve17h46e523c3d1c35368E>:
   0:	b570      	push	{r4, r5, r6, lr}
   2:	6843      	ldr	r3, [r0, #4]
   4:	4604      	mov	r4, r0
   6:	1a58      	subs	r0, r3, r1
   8:	4290      	cmp	r0, r2
   a:	bf28      	it	cs
   c:	bd70      	popcs	{r4, r5, r6, pc}
   e:	1888      	adds	r0, r1, r2
  10:	d23b      	bcs.n	8a <_ZN5alloc7raw_vec19RawVec$LT$T$C$A$GT$7reserve17h46e523c3d1c35368E+0x8a>
  12:	ebb0 0f43 	cmp.w	r0, r3, lsl #1
  16:	bf38      	it	cc
  18:	0058      	lslcc	r0, r3, #1
  1a:	2504      	movs	r5, #4
  1c:	2804      	cmp	r0, #4
  1e:	bf98      	it	ls
  20:	4628      	movls	r0, r5
  22:	210c      	movs	r1, #12
  24:	fba0 6001 	umull	r6, r0, r0, r1
  28:	2800      	cmp	r0, #0
  2a:	4601      	mov	r1, r0
  2c:	bf18      	it	ne
  2e:	2101      	movne	r1, #1
  30:	2900      	cmp	r1, #0
  32:	bf1c      	itt	ne
  34:	2600      	movne	r6, #0
  36:	2500      	movne	r5, #0
  38:	bb38      	cbnz	r0, 8a <_ZN5alloc7raw_vec19RawVec$LT$T$C$A$GT$7reserve17h46e523c3d1c35368E+0x8a>
  3a:	2e00      	cmp	r6, #0
  3c:	d425      	bmi.n	8a <_ZN5alloc7raw_vec19RawVec$LT$T$C$A$GT$7reserve17h46e523c3d1c35368E+0x8a>
  3e:	6820      	ldr	r0, [r4, #0]
  40:	2b00      	cmp	r3, #0
  42:	bf08      	it	eq
  44:	4618      	moveq	r0, r3
  46:	2800      	cmp	r0, #0
  48:	bf1c      	itt	ne
  4a:	eb03 0143 	addne.w	r1, r3, r3, lsl #1
  4e:	ea5f 0181 	movsne.w	r1, r1, lsl #2
  52:	d105      	bne.n	60 <_ZN5alloc7raw_vec19RawVec$LT$T$C$A$GT$7reserve17h46e523c3d1c35368E+0x60>
  54:	b176      	cbz	r6, 74 <_ZN5alloc7raw_vec19RawVec$LT$T$C$A$GT$7reserve17h46e523c3d1c35368E+0x74>
  56:	4630      	mov	r0, r6
  58:	4629      	mov	r1, r5
  5a:	f7ff fffe 	bl	0 <__rust_alloc>
  5e:	e003      	b.n	68 <_ZN5alloc7raw_vec19RawVec$LT$T$C$A$GT$7reserve17h46e523c3d1c35368E+0x68>
  60:	462a      	mov	r2, r5
  62:	4633      	mov	r3, r6
  64:	f7ff fffe 	bl	0 <__rust_realloc>
  68:	b928      	cbnz	r0, 76 <_ZN5alloc7raw_vec19RawVec$LT$T$C$A$GT$7reserve17h46e523c3d1c35368E+0x76>
  6a:	4630      	mov	r0, r6
  6c:	4629      	mov	r1, r5
  6e:	f7ff fffe 	bl	0 <_ZN5alloc5alloc18handle_alloc_error17ha86af5c1874b681eE>
  72:	defe      	udf	#254	; 0xfe
  74:	4628      	mov	r0, r5
  76:	f64a 21ab 	movw	r1, #43691	; 0xaaab
  7a:	f6ca 21aa 	movt	r1, #43690	; 0xaaaa
  7e:	fba6 1201 	umull	r1, r2, r6, r1
  82:	08d1      	lsrs	r1, r2, #3
  84:	e9c4 0100 	strd	r0, r1, [r4]
  88:	bd70      	pop	{r4, r5, r6, pc}
  8a:	f7ff fffe 	bl	0 <_ZN5alloc7raw_vec17capacity_overflow17hc75ec95415a61168E>
  8e:	defe      	udf	#254	; 0xfe

Disassembly of section .text._ZN5alloc7raw_vec19RawVec$LT$T$C$A$GT$7reserve17hd6f4a4503671ebc9E:

00000000 <_ZN5alloc7raw_vec19RawVec$LT$T$C$A$GT$7reserve17hd6f4a4503671ebc9E>:
   0:	b5b0      	push	{r4, r5, r7, lr}
   2:	460b      	mov	r3, r1
   4:	6841      	ldr	r1, [r0, #4]
   6:	4604      	mov	r4, r0
   8:	1ac8      	subs	r0, r1, r3
   a:	4290      	cmp	r0, r2
   c:	bf28      	it	cs
   e:	bdb0      	popcs	{r4, r5, r7, pc}
  10:	189d      	adds	r5, r3, r2
  12:	d223      	bcs.n	5c <_ZN5alloc7raw_vec19RawVec$LT$T$C$A$GT$7reserve17hd6f4a4503671ebc9E+0x5c>
  14:	ebb5 0f41 	cmp.w	r5, r1, lsl #1
  18:	bf38      	it	cc
  1a:	004d      	lslcc	r5, r1, #1
  1c:	2d08      	cmp	r5, #8
  1e:	bf98      	it	ls
  20:	2508      	movls	r5, #8
  22:	2d00      	cmp	r5, #0
  24:	d41a      	bmi.n	5c <_ZN5alloc7raw_vec19RawVec$LT$T$C$A$GT$7reserve17hd6f4a4503671ebc9E+0x5c>
  26:	6820      	ldr	r0, [r4, #0]
  28:	2900      	cmp	r1, #0
  2a:	bf08      	it	eq
  2c:	4608      	moveq	r0, r1
  2e:	2800      	cmp	r0, #0
  30:	bf18      	it	ne
  32:	2900      	cmpne	r1, #0
  34:	d107      	bne.n	46 <_ZN5alloc7raw_vec19RawVec$LT$T$C$A$GT$7reserve17hd6f4a4503671ebc9E+0x46>
  36:	4628      	mov	r0, r5
  38:	2101      	movs	r1, #1
  3a:	f7ff fffe 	bl	0 <__rust_alloc>
  3e:	b140      	cbz	r0, 52 <_ZN5alloc7raw_vec19RawVec$LT$T$C$A$GT$7reserve17hd6f4a4503671ebc9E+0x52>
  40:	e9c4 0500 	strd	r0, r5, [r4]
  44:	bdb0      	pop	{r4, r5, r7, pc}
  46:	2201      	movs	r2, #1
  48:	462b      	mov	r3, r5
  4a:	f7ff fffe 	bl	0 <__rust_realloc>
  4e:	2800      	cmp	r0, #0
  50:	d1f6      	bne.n	40 <_ZN5alloc7raw_vec19RawVec$LT$T$C$A$GT$7reserve17hd6f4a4503671ebc9E+0x40>
  52:	4628      	mov	r0, r5
  54:	2101      	movs	r1, #1
  56:	f7ff fffe 	bl	0 <_ZN5alloc5alloc18handle_alloc_error17ha86af5c1874b681eE>
  5a:	defe      	udf	#254	; 0xfe
  5c:	f7ff fffe 	bl	0 <_ZN5alloc7raw_vec17capacity_overflow17hc75ec95415a61168E>
  60:	defe      	udf	#254	; 0xfe

Disassembly of section .text._ZN5alloc7raw_vec19RawVec$LT$T$C$A$GT$7reserve17heea3c8bb56d5c9eeE:

00000000 <_ZN5alloc7raw_vec19RawVec$LT$T$C$A$GT$7reserve17heea3c8bb56d5c9eeE>:
   0:	b570      	push	{r4, r5, r6, lr}
   2:	6843      	ldr	r3, [r0, #4]
   4:	4604      	mov	r4, r0
   6:	1a58      	subs	r0, r3, r1
   8:	4290      	cmp	r0, r2
   a:	bf28      	it	cs
   c:	bd70      	popcs	{r4, r5, r6, pc}
   e:	1888      	adds	r0, r1, r2
  10:	d233      	bcs.n	7a <_ZN5alloc7raw_vec19RawVec$LT$T$C$A$GT$7reserve17heea3c8bb56d5c9eeE+0x7a>
  12:	ebb0 0f43 	cmp.w	r0, r3, lsl #1
  16:	bf38      	it	cc
  18:	0058      	lslcc	r0, r3, #1
  1a:	2504      	movs	r5, #4
  1c:	2804      	cmp	r0, #4
  1e:	bf98      	it	ls
  20:	4628      	movls	r0, r5
  22:	f020 4140 	bic.w	r1, r0, #3221225472	; 0xc0000000
  26:	1a41      	subs	r1, r0, r1
  28:	ea4f 0680 	mov.w	r6, r0, lsl #2
  2c:	bf18      	it	ne
  2e:	2101      	movne	r1, #1
  30:	2900      	cmp	r1, #0
  32:	bf1c      	itt	ne
  34:	2600      	movne	r6, #0
  36:	2500      	movne	r5, #0
  38:	0f80      	lsrs	r0, r0, #30
  3a:	d11e      	bne.n	7a <_ZN5alloc7raw_vec19RawVec$LT$T$C$A$GT$7reserve17heea3c8bb56d5c9eeE+0x7a>
  3c:	2e00      	cmp	r6, #0
  3e:	d41c      	bmi.n	7a <_ZN5alloc7raw_vec19RawVec$LT$T$C$A$GT$7reserve17heea3c8bb56d5c9eeE+0x7a>
  40:	6820      	ldr	r0, [r4, #0]
  42:	2b00      	cmp	r3, #0
  44:	bf08      	it	eq
  46:	4618      	moveq	r0, r3
  48:	2800      	cmp	r0, #0
  4a:	bf18      	it	ne
  4c:	ea5f 0183 	movsne.w	r1, r3, lsl #2
  50:	d105      	bne.n	5e <_ZN5alloc7raw_vec19RawVec$LT$T$C$A$GT$7reserve17heea3c8bb56d5c9eeE+0x5e>
  52:	b16e      	cbz	r6, 70 <_ZN5alloc7raw_vec19RawVec$LT$T$C$A$GT$7reserve17heea3c8bb56d5c9eeE+0x70>
  54:	4630      	mov	r0, r6
  56:	4629      	mov	r1, r5
  58:	f7ff fffe 	bl	0 <__rust_alloc>
  5c:	e003      	b.n	66 <_ZN5alloc7raw_vec19RawVec$LT$T$C$A$GT$7reserve17heea3c8bb56d5c9eeE+0x66>
  5e:	462a      	mov	r2, r5
  60:	4633      	mov	r3, r6
  62:	f7ff fffe 	bl	0 <__rust_realloc>
  66:	b158      	cbz	r0, 80 <_ZN5alloc7raw_vec19RawVec$LT$T$C$A$GT$7reserve17heea3c8bb56d5c9eeE+0x80>
  68:	08b1      	lsrs	r1, r6, #2
  6a:	e9c4 0100 	strd	r0, r1, [r4]
  6e:	bd70      	pop	{r4, r5, r6, pc}
  70:	4628      	mov	r0, r5
  72:	08b1      	lsrs	r1, r6, #2
  74:	e9c4 0100 	strd	r0, r1, [r4]
  78:	bd70      	pop	{r4, r5, r6, pc}
  7a:	f7ff fffe 	bl	0 <_ZN5alloc7raw_vec17capacity_overflow17hc75ec95415a61168E>
  7e:	defe      	udf	#254	; 0xfe
  80:	4630      	mov	r0, r6
  82:	4629      	mov	r1, r5
  84:	f7ff fffe 	bl	0 <_ZN5alloc5alloc18handle_alloc_error17ha86af5c1874b681eE>
  88:	defe      	udf	#254	; 0xfe

Disassembly of section .text._ZN77_$LT$alloc..raw_vec..RawVec$LT$T$C$A$GT$$u20$as$u20$core..ops..drop..Drop$GT$4drop17h0b4d224df2f6e70eE:

00000000 <_ZN77_$LT$alloc..raw_vec..RawVec$LT$T$C$A$GT$$u20$as$u20$core..ops..drop..Drop$GT$4drop17h0b4d224df2f6e70eE>:
   0:	6841      	ldr	r1, [r0, #4]
   2:	2900      	cmp	r1, #0
   4:	bf1d      	ittte	ne
   6:	eb01 0141 	addne.w	r1, r1, r1, lsl #1
   a:	2200      	movne	r2, #0
   c:	ebb2 1f01 	cmpne.w	r2, r1, lsl #4
  10:	4770      	bxeq	lr
  12:	6800      	ldr	r0, [r0, #0]
  14:	0109      	lsls	r1, r1, #4
  16:	2204      	movs	r2, #4
  18:	f7ff bffe 	b.w	0 <__rust_dealloc>

Disassembly of section .text._ZN77_$LT$alloc..raw_vec..RawVec$LT$T$C$A$GT$$u20$as$u20$core..ops..drop..Drop$GT$4drop17h13050b9bb6fe6453E:

00000000 <_ZN77_$LT$alloc..raw_vec..RawVec$LT$T$C$A$GT$$u20$as$u20$core..ops..drop..Drop$GT$4drop17h13050b9bb6fe6453E>:
   0:	6841      	ldr	r1, [r0, #4]
   2:	2900      	cmp	r1, #0
   4:	bf1a      	itte	ne
   6:	2200      	movne	r2, #0
   8:	ebb2 0fc1 	cmpne.w	r2, r1, lsl #3
   c:	4770      	bxeq	lr
   e:	6800      	ldr	r0, [r0, #0]
  10:	00c9      	lsls	r1, r1, #3
  12:	2204      	movs	r2, #4
  14:	f7ff bffe 	b.w	0 <__rust_dealloc>

Disassembly of section .text._ZN77_$LT$alloc..raw_vec..RawVec$LT$T$C$A$GT$$u20$as$u20$core..ops..drop..Drop$GT$4drop17h167034950e53ac8bE:

00000000 <_ZN77_$LT$alloc..raw_vec..RawVec$LT$T$C$A$GT$$u20$as$u20$core..ops..drop..Drop$GT$4drop17h167034950e53ac8bE>:
   0:	6841      	ldr	r1, [r0, #4]
   2:	2900      	cmp	r1, #0
   4:	bf1a      	itte	ne
   6:	2200      	movne	r2, #0
   8:	ebb2 1f81 	cmpne.w	r2, r1, lsl #6
   c:	4770      	bxeq	lr
   e:	6800      	ldr	r0, [r0, #0]
  10:	0189      	lsls	r1, r1, #6
  12:	2240      	movs	r2, #64	; 0x40
  14:	f7ff bffe 	b.w	0 <__rust_dealloc>

Disassembly of section .text._ZN77_$LT$alloc..raw_vec..RawVec$LT$T$C$A$GT$$u20$as$u20$core..ops..drop..Drop$GT$4drop17h3e84c7e0095e6b46E:

00000000 <_ZN77_$LT$alloc..raw_vec..RawVec$LT$T$C$A$GT$$u20$as$u20$core..ops..drop..Drop$GT$4drop17h3e84c7e0095e6b46E>:
   0:	6841      	ldr	r1, [r0, #4]
   2:	2900      	cmp	r1, #0
   4:	bf1d      	ittte	ne
   6:	eb01 0141 	addne.w	r1, r1, r1, lsl #1
   a:	2200      	movne	r2, #0
   c:	ebb2 0f81 	cmpne.w	r2, r1, lsl #2
  10:	4770      	bxeq	lr
  12:	6800      	ldr	r0, [r0, #0]
  14:	0089      	lsls	r1, r1, #2
  16:	2204      	movs	r2, #4
  18:	f7ff bffe 	b.w	0 <__rust_dealloc>

Disassembly of section .text._ZN77_$LT$alloc..raw_vec..RawVec$LT$T$C$A$GT$$u20$as$u20$core..ops..drop..Drop$GT$4drop17h696f9dc4ee86677dE:

00000000 <_ZN77_$LT$alloc..raw_vec..RawVec$LT$T$C$A$GT$$u20$as$u20$core..ops..drop..Drop$GT$4drop17h696f9dc4ee86677dE>:
   0:	6841      	ldr	r1, [r0, #4]
   2:	2900      	cmp	r1, #0
   4:	bf1e      	ittt	ne
   6:	6800      	ldrne	r0, [r0, #0]
   8:	2201      	movne	r2, #1
   a:	f7ff bffe 	bne.w	0 <__rust_dealloc>
   e:	4770      	bx	lr

Disassembly of section .text._ZN77_$LT$alloc..raw_vec..RawVec$LT$T$C$A$GT$$u20$as$u20$core..ops..drop..Drop$GT$4drop17h984731bc4bac98d4E:

00000000 <_ZN77_$LT$alloc..raw_vec..RawVec$LT$T$C$A$GT$$u20$as$u20$core..ops..drop..Drop$GT$4drop17h984731bc4bac98d4E>:
   0:	6841      	ldr	r1, [r0, #4]
   2:	2900      	cmp	r1, #0
   4:	bf1a      	itte	ne
   6:	2200      	movne	r2, #0
   8:	ebb2 0f81 	cmpne.w	r2, r1, lsl #2
   c:	4770      	bxeq	lr
   e:	6800      	ldr	r0, [r0, #0]
  10:	0089      	lsls	r1, r1, #2
  12:	2204      	movs	r2, #4
  14:	f7ff bffe 	b.w	0 <__rust_dealloc>

Disassembly of section .text._ZN4core3ptr13drop_in_place17h080f012eff91130eE:

00000000 <_ZN4core3ptr13drop_in_place17h080f012eff91130eE>:
   0:	b570      	push	{r4, r5, r6, lr}
   2:	b084      	sub	sp, #16
   4:	6806      	ldr	r6, [r0, #0]
   6:	4604      	mov	r4, r0
   8:	e9d6 0102 	ldrd	r0, r1, [r6, #8]
   c:	4288      	cmp	r0, r1
   e:	d023      	beq.n	58 <_ZN4core3ptr13drop_in_place17h080f012eff91130eE+0x58>
  10:	4669      	mov	r1, sp
  12:	f101 0508 	add.w	r5, r1, #8
  16:	e003      	b.n	20 <_ZN4core3ptr13drop_in_place17h080f012eff91130eE+0x20>
  18:	e9d6 0102 	ldrd	r0, r1, [r6, #8]
  1c:	4288      	cmp	r0, r1
  1e:	d01a      	beq.n	56 <_ZN4core3ptr13drop_in_place17h080f012eff91130eE+0x56>
  20:	f100 010c 	add.w	r1, r0, #12
  24:	60b1      	str	r1, [r6, #8]
  26:	6881      	ldr	r1, [r0, #8]
  28:	b1a9      	cbz	r1, 56 <_ZN4core3ptr13drop_in_place17h080f012eff91130eE+0x56>
  2a:	e9d0 2000 	ldrd	r2, r0, [r0]
  2e:	e9cd 2000 	strd	r2, r0, [sp]
  32:	9102      	str	r1, [sp, #8]
  34:	f3bf 8f5b 	dmb	ish
  38:	e851 0f00 	ldrex	r0, [r1]
  3c:	1e42      	subs	r2, r0, #1
  3e:	e841 2300 	strex	r3, r2, [r1]
  42:	2b00      	cmp	r3, #0
  44:	d1f8      	bne.n	38 <_ZN4core3ptr13drop_in_place17h080f012eff91130eE+0x38>
  46:	2801      	cmp	r0, #1
  48:	d1e6      	bne.n	18 <_ZN4core3ptr13drop_in_place17h080f012eff91130eE+0x18>
  4a:	4628      	mov	r0, r5
  4c:	f3bf 8f5b 	dmb	ish
  50:	f7ff fffe 	bl	0 <_ZN5alloc4sync12Arc$LT$T$GT$9drop_slow17h90beade0048c5cbaE>
  54:	e7e0      	b.n	18 <_ZN4core3ptr13drop_in_place17h080f012eff91130eE+0x18>
  56:	6826      	ldr	r6, [r4, #0]
  58:	6872      	ldr	r2, [r6, #4]
  5a:	b1b2      	cbz	r2, 8a <_ZN4core3ptr13drop_in_place17h080f012eff91130eE+0x8a>
  5c:	6935      	ldr	r5, [r6, #16]
  5e:	6831      	ldr	r1, [r6, #0]
  60:	68ae      	ldr	r6, [r5, #8]
  62:	42b1      	cmp	r1, r6
  64:	d00f      	beq.n	86 <_ZN4core3ptr13drop_in_place17h080f012eff91130eE+0x86>
  66:	682b      	ldr	r3, [r5, #0]
  68:	eb06 0046 	add.w	r0, r6, r6, lsl #1
  6c:	eb01 0141 	add.w	r1, r1, r1, lsl #1
  70:	eb02 0242 	add.w	r2, r2, r2, lsl #1
  74:	eb03 0080 	add.w	r0, r3, r0, lsl #2
  78:	eb03 0181 	add.w	r1, r3, r1, lsl #2
  7c:	0092      	lsls	r2, r2, #2
  7e:	f7ff fffe 	bl	0 <__aeabi_memmove4>
  82:	6820      	ldr	r0, [r4, #0]
  84:	6842      	ldr	r2, [r0, #4]
  86:	1990      	adds	r0, r2, r6
  88:	60a8      	str	r0, [r5, #8]
  8a:	b004      	add	sp, #16
  8c:	bd70      	pop	{r4, r5, r6, pc}

Disassembly of section .text._ZN4core3ptr13drop_in_place17h10a3434e0374a386E.llvm.7409013006954644867:

00000000 <_ZN4core3ptr13drop_in_place17h10a3434e0374a386E.llvm.7409013006954644867>:
   0:	b5b0      	push	{r4, r5, r7, lr}
   2:	4604      	mov	r4, r0
   4:	f7ff fffe 	bl	0 <_ZN78_$LT$std..sys_common..mutex..MovableMutex$u20$as$u20$core..ops..drop..Drop$GT$4drop17h13c345475114c4aaE>
   8:	f854 0b08 	ldr.w	r0, [r4], #8
   c:	2104      	movs	r1, #4
   e:	2204      	movs	r2, #4
  10:	f7ff fffe 	bl	0 <__rust_dealloc>
  14:	4620      	mov	r0, r4
  16:	f7ff fffe 	bl	0 <_ZN69_$LT$std..sync..condvar..Condvar$u20$as$u20$core..ops..drop..Drop$GT$4drop17hc44db4e0c212ea68E>
  1a:	6820      	ldr	r0, [r4, #0]
  1c:	2104      	movs	r1, #4
  1e:	2204      	movs	r2, #4
  20:	e8bd 40b0 	ldmia.w	sp!, {r4, r5, r7, lr}
  24:	f7ff bffe 	b.w	0 <__rust_dealloc>
  28:	4605      	mov	r5, r0
  2a:	4620      	mov	r0, r4
  2c:	f7ff fffe 	bl	0 <_ZN4core3ptr13drop_in_place17h10a3434e0374a386E.llvm.7409013006954644867>
  30:	e007      	b.n	42 <_ZN4core3ptr13drop_in_place17h10a3434e0374a386E.llvm.7409013006954644867+0x42>
  32:	4605      	mov	r5, r0
  34:	4620      	mov	r0, r4
  36:	f7ff fffe 	bl	0 <_ZN4core3ptr13drop_in_place17h10a3434e0374a386E.llvm.7409013006954644867>
  3a:	f104 0008 	add.w	r0, r4, #8
  3e:	f7ff fffe 	bl	0 <_ZN4core3ptr13drop_in_place17h10a3434e0374a386E.llvm.7409013006954644867>
  42:	4628      	mov	r0, r5
  44:	f7ff fffe 	bl	0 <_Unwind_Resume>
  48:	defe      	udf	#254	; 0xfe

Disassembly of section .text._ZN4core3ptr13drop_in_place17h2b59b2658813787eE.llvm.7409013006954644867:

00000000 <_ZN4core3ptr13drop_in_place17h2b59b2658813787eE.llvm.7409013006954644867>:
   0:	6800      	ldr	r0, [r0, #0]
   2:	2104      	movs	r1, #4
   4:	2204      	movs	r2, #4
   6:	f7ff bffe 	b.w	0 <__rust_dealloc>

Disassembly of section .text._ZN4core3ptr13drop_in_place17h2f0f18296d589835E.llvm.7409013006954644867:

00000000 <_ZN4core3ptr13drop_in_place17h2f0f18296d589835E.llvm.7409013006954644867>:
   0:	f850 cf08 	ldr.w	ip, [r0, #8]!
   4:	f3bf 8f5b 	dmb	ish
   8:	e85c 2f00 	ldrex	r2, [ip]
   c:	1e53      	subs	r3, r2, #1
   e:	e84c 3100 	strex	r1, r3, [ip]
  12:	2900      	cmp	r1, #0
  14:	d1f8      	bne.n	8 <_ZN4core3ptr13drop_in_place17h2f0f18296d589835E.llvm.7409013006954644867+0x8>
  16:	2a01      	cmp	r2, #1
  18:	bf04      	itt	eq
  1a:	f3bf 8f5b 	dmbeq	ish
  1e:	f7ff bffe 	beq.w	0 <_ZN5alloc4sync12Arc$LT$T$GT$9drop_slow17h90beade0048c5cbaE>
  22:	4770      	bx	lr

Disassembly of section .text._ZN4core3ptr13drop_in_place17h3f9246ef1f58b575E.llvm.7409013006954644867:

00000000 <_ZN4core3ptr13drop_in_place17h3f9246ef1f58b575E.llvm.7409013006954644867>:
   0:	6001      	str	r1, [r0, #0]
   2:	4770      	bx	lr

Disassembly of section .text._ZN4core3ptr13drop_in_place17h546d6c64894fc129E.llvm.7409013006954644867:

00000000 <_ZN4core3ptr13drop_in_place17h546d6c64894fc129E.llvm.7409013006954644867>:
   0:	6841      	ldr	r1, [r0, #4]
   2:	2900      	cmp	r1, #0
   4:	bf1e      	ittt	ne
   6:	6800      	ldrne	r0, [r0, #0]
   8:	2201      	movne	r2, #1
   a:	f7ff bffe 	bne.w	0 <__rust_dealloc>
   e:	4770      	bx	lr

Disassembly of section .text._ZN4core3ptr13drop_in_place17h776269b40ed867d8E.llvm.7409013006954644867:

00000000 <_ZN4core3ptr13drop_in_place17h776269b40ed867d8E.llvm.7409013006954644867>:
   0:	6841      	ldr	r1, [r0, #4]
   2:	2900      	cmp	r1, #0
   4:	bf1d      	ittte	ne
   6:	eb01 0141 	addne.w	r1, r1, r1, lsl #1
   a:	2200      	movne	r2, #0
   c:	ebb2 0f81 	cmpne.w	r2, r1, lsl #2
  10:	4770      	bxeq	lr
  12:	6800      	ldr	r0, [r0, #0]
  14:	0089      	lsls	r1, r1, #2
  16:	2204      	movs	r2, #4
  18:	f7ff bffe 	b.w	0 <__rust_dealloc>

Disassembly of section .text._ZN4core3ptr13drop_in_place17h7d30362af5f95d77E.llvm.7409013006954644867:

00000000 <_ZN4core3ptr13drop_in_place17h7d30362af5f95d77E.llvm.7409013006954644867>:
   0:	e92d 4ff0 	stmdb	sp!, {r4, r5, r6, r7, r8, r9, sl, fp, lr}
   4:	b081      	sub	sp, #4
   6:	4682      	mov	sl, r0
   8:	6880      	ldr	r0, [r0, #8]
   a:	b340      	cbz	r0, 5e <_ZN4core3ptr13drop_in_place17h7d30362af5f95d77E.llvm.7409013006954644867+0x5e>
   c:	eb00 0040 	add.w	r0, r0, r0, lsl #1
  10:	f8da b000 	ldr.w	fp, [sl]
  14:	f06f 010b 	mvn.w	r1, #11
  18:	2500      	movs	r5, #0
  1a:	ea4f 0880 	mov.w	r8, r0, lsl #2
  1e:	eb01 0180 	add.w	r1, r1, r0, lsl #2
  22:	9100      	str	r1, [sp, #0]
  24:	e006      	b.n	34 <_ZN4core3ptr13drop_in_place17h7d30362af5f95d77E.llvm.7409013006954644867+0x34>
  26:	f84b 6005 	str.w	r6, [fp, r5]
  2a:	350c      	adds	r5, #12
  2c:	45a8      	cmp	r8, r5
  2e:	e9c4 9701 	strd	r9, r7, [r4, #4]
  32:	d014      	beq.n	5e <_ZN4core3ptr13drop_in_place17h7d30362af5f95d77E.llvm.7409013006954644867+0x5e>
  34:	eb0b 0405 	add.w	r4, fp, r5
  38:	68a7      	ldr	r7, [r4, #8]
  3a:	0ef8      	lsrs	r0, r7, #27
  3c:	d125      	bne.n	8a <_ZN4core3ptr13drop_in_place17h7d30362af5f95d77E.llvm.7409013006954644867+0x8a>
  3e:	6860      	ldr	r0, [r4, #4]
  40:	2f00      	cmp	r7, #0
  42:	f85b 6005 	ldr.w	r6, [fp, r5]
  46:	f000 0907 	and.w	r9, r0, #7
  4a:	f8c4 9004 	str.w	r9, [r4, #4]
  4e:	d0ea      	beq.n	26 <_ZN4core3ptr13drop_in_place17h7d30362af5f95d77E.llvm.7409013006954644867+0x26>
  50:	f026 0003 	bic.w	r0, r6, #3
  54:	00b9      	lsls	r1, r7, #2
  56:	2204      	movs	r2, #4
  58:	f7ff fffe 	bl	0 <__rust_dealloc>
  5c:	e7e3      	b.n	26 <_ZN4core3ptr13drop_in_place17h7d30362af5f95d77E.llvm.7409013006954644867+0x26>
  5e:	f8da 0004 	ldr.w	r0, [sl, #4]
  62:	2800      	cmp	r0, #0
  64:	bf1e      	ittt	ne
  66:	eb00 0040 	addne.w	r0, r0, r0, lsl #1
  6a:	2100      	movne	r1, #0
  6c:	ebb1 0f80 	cmpne.w	r1, r0, lsl #2
  70:	d102      	bne.n	78 <_ZN4core3ptr13drop_in_place17h7d30362af5f95d77E.llvm.7409013006954644867+0x78>
  72:	b001      	add	sp, #4
  74:	e8bd 8ff0 	ldmia.w	sp!, {r4, r5, r6, r7, r8, r9, sl, fp, pc}
  78:	0081      	lsls	r1, r0, #2
  7a:	f8da 0000 	ldr.w	r0, [sl]
  7e:	2204      	movs	r2, #4
  80:	b001      	add	sp, #4
  82:	e8bd 4ff0 	ldmia.w	sp!, {r4, r5, r6, r7, r8, r9, sl, fp, lr}
  86:	f7ff bffe 	b.w	0 <__rust_dealloc>
  8a:	480f      	ldr	r0, [pc, #60]	; (c8 <_ZN4core3ptr13drop_in_place17h7d30362af5f95d77E.llvm.7409013006954644867+0xc8>)
  8c:	f104 060c 	add.w	r6, r4, #12
  90:	4a0e      	ldr	r2, [pc, #56]	; (cc <_ZN4core3ptr13drop_in_place17h7d30362af5f95d77E.llvm.7409013006954644867+0xcc>)
  92:	9900      	ldr	r1, [sp, #0]
  94:	4478      	add	r0, pc
  96:	447a      	add	r2, pc
  98:	1b4f      	subs	r7, r1, r5
  9a:	2118      	movs	r1, #24
  9c:	f7ff fffe 	bl	0 <_ZN4core6option13expect_failed17hccecd099e19e7451E>
  a0:	defe      	udf	#254	; 0xfe
  a2:	4680      	mov	r8, r0
  a4:	9800      	ldr	r0, [sp, #0]
  a6:	42a8      	cmp	r0, r5
  a8:	d005      	beq.n	b6 <_ZN4core3ptr13drop_in_place17h7d30362af5f95d77E.llvm.7409013006954644867+0xb6>
  aa:	4630      	mov	r0, r6
  ac:	f7ff fffe 	bl	0 <_ZN4core3ptr13drop_in_place17h7d30362af5f95d77E.llvm.7409013006954644867>
  b0:	360c      	adds	r6, #12
  b2:	3f0c      	subs	r7, #12
  b4:	d1f9      	bne.n	aa <_ZN4core3ptr13drop_in_place17h7d30362af5f95d77E.llvm.7409013006954644867+0xaa>
  b6:	4650      	mov	r0, sl
  b8:	f7ff fffe 	bl	0 <_ZN4core3ptr13drop_in_place17h7d30362af5f95d77E.llvm.7409013006954644867>
  bc:	4640      	mov	r0, r8
  be:	f7ff fffe 	bl	0 <_Unwind_Resume>
  c2:	defe      	udf	#254	; 0xfe
  c4:	4680      	mov	r8, r0
  c6:	e7f6      	b.n	b6 <_ZN4core3ptr13drop_in_place17h7d30362af5f95d77E.llvm.7409013006954644867+0xb6>
  c8:	00000030 	andeq	r0, r0, r0, lsr r0
  cc:	00000032 	andeq	r0, r0, r2, lsr r0

Disassembly of section .text._ZN4core3ptr13drop_in_place17hc626a7558a9f9cc0E.llvm.7409013006954644867:

00000000 <_ZN4core3ptr13drop_in_place17hc626a7558a9f9cc0E.llvm.7409013006954644867>:
   0:	b570      	push	{r4, r5, r6, lr}
   2:	4604      	mov	r4, r0
   4:	f7ff fffe 	bl	0 <_ZN78_$LT$std..sys_common..mutex..MovableMutex$u20$as$u20$core..ops..drop..Drop$GT$4drop17h13c345475114c4aaE>
   8:	4626      	mov	r6, r4
   a:	2104      	movs	r1, #4
   c:	f856 0b08 	ldr.w	r0, [r6], #8
  10:	2204      	movs	r2, #4
  12:	f7ff fffe 	bl	0 <__rust_dealloc>
  16:	4630      	mov	r0, r6
  18:	f7ff fffe 	bl	0 <_ZN69_$LT$std..sync..condvar..Condvar$u20$as$u20$core..ops..drop..Drop$GT$4drop17hc44db4e0c212ea68E>
  1c:	68a0      	ldr	r0, [r4, #8]
  1e:	2104      	movs	r1, #4
  20:	2204      	movs	r2, #4
  22:	f7ff fffe 	bl	0 <__rust_dealloc>
  26:	f104 0610 	add.w	r6, r4, #16
  2a:	4630      	mov	r0, r6
  2c:	f7ff fffe 	bl	0 <_ZN78_$LT$std..sys_common..mutex..MovableMutex$u20$as$u20$core..ops..drop..Drop$GT$4drop17h13c345475114c4aaE>
  30:	6920      	ldr	r0, [r4, #16]
  32:	2104      	movs	r1, #4
  34:	2204      	movs	r2, #4
  36:	f7ff fffe 	bl	0 <__rust_dealloc>
  3a:	f104 0618 	add.w	r6, r4, #24
  3e:	4630      	mov	r0, r6
  40:	f7ff fffe 	bl	0 <_ZN69_$LT$std..sync..condvar..Condvar$u20$as$u20$core..ops..drop..Drop$GT$4drop17hc44db4e0c212ea68E>
  44:	69a0      	ldr	r0, [r4, #24]
  46:	2104      	movs	r1, #4
  48:	2204      	movs	r2, #4
  4a:	f7ff fffe 	bl	0 <__rust_dealloc>
  4e:	f854 0f28 	ldr.w	r0, [r4, #40]!
  52:	f3bf 8f5b 	dmb	ish
  56:	e850 1f00 	ldrex	r1, [r0]
  5a:	1e4a      	subs	r2, r1, #1
  5c:	e840 2300 	strex	r3, r2, [r0]
  60:	2b00      	cmp	r3, #0
  62:	d1f8      	bne.n	56 <_ZN4core3ptr13drop_in_place17hc626a7558a9f9cc0E.llvm.7409013006954644867+0x56>
  64:	2901      	cmp	r1, #1
  66:	bf18      	it	ne
  68:	bd70      	popne	{r4, r5, r6, pc}
  6a:	f3bf 8f5b 	dmb	ish
  6e:	4620      	mov	r0, r4
  70:	e8bd 4070 	ldmia.w	sp!, {r4, r5, r6, lr}
  74:	f7ff bffe 	b.w	0 <_ZN5alloc4sync12Arc$LT$T$GT$9drop_slow17h3dd9a06d9e762585E>
  78:	4605      	mov	r5, r0
  7a:	4630      	mov	r0, r6
  7c:	f7ff fffe 	bl	0 <_ZN4core3ptr13drop_in_place17hc626a7558a9f9cc0E.llvm.7409013006954644867>
  80:	e01b      	b.n	ba <_ZN4core3ptr13drop_in_place17hc626a7558a9f9cc0E.llvm.7409013006954644867+0xba>
  82:	4605      	mov	r5, r0
  84:	4630      	mov	r0, r6
  86:	f7ff fffe 	bl	0 <_ZN4core3ptr13drop_in_place17hc626a7558a9f9cc0E.llvm.7409013006954644867>
  8a:	f104 0018 	add.w	r0, r4, #24
  8e:	f7ff fffe 	bl	0 <_ZN4core3ptr13drop_in_place17hc626a7558a9f9cc0E.llvm.7409013006954644867>
  92:	e012      	b.n	ba <_ZN4core3ptr13drop_in_place17hc626a7558a9f9cc0E.llvm.7409013006954644867+0xba>
  94:	4605      	mov	r5, r0
  96:	e010      	b.n	ba <_ZN4core3ptr13drop_in_place17hc626a7558a9f9cc0E.llvm.7409013006954644867+0xba>
  98:	4605      	mov	r5, r0
  9a:	4630      	mov	r0, r6
  9c:	f7ff fffe 	bl	0 <_ZN4core3ptr13drop_in_place17hc626a7558a9f9cc0E.llvm.7409013006954644867>
  a0:	e007      	b.n	b2 <_ZN4core3ptr13drop_in_place17hc626a7558a9f9cc0E.llvm.7409013006954644867+0xb2>
  a2:	4605      	mov	r5, r0
  a4:	4620      	mov	r0, r4
  a6:	f7ff fffe 	bl	0 <_ZN4core3ptr13drop_in_place17hc626a7558a9f9cc0E.llvm.7409013006954644867>
  aa:	f104 0008 	add.w	r0, r4, #8
  ae:	f7ff fffe 	bl	0 <_ZN4core3ptr13drop_in_place17hc626a7558a9f9cc0E.llvm.7409013006954644867>
  b2:	f104 0010 	add.w	r0, r4, #16
  b6:	f7ff fffe 	bl	0 <_ZN4core3ptr13drop_in_place17hc626a7558a9f9cc0E.llvm.7409013006954644867>
  ba:	f104 0028 	add.w	r0, r4, #40	; 0x28
  be:	f7ff fffe 	bl	0 <_ZN4core3ptr13drop_in_place17hc626a7558a9f9cc0E.llvm.7409013006954644867>
  c2:	4628      	mov	r0, r5
  c4:	f7ff fffe 	bl	0 <_Unwind_Resume>
  c8:	defe      	udf	#254	; 0xfe
  ca:	4605      	mov	r5, r0
  cc:	e7f1      	b.n	b2 <_ZN4core3ptr13drop_in_place17hc626a7558a9f9cc0E.llvm.7409013006954644867+0xb2>

Disassembly of section .text._ZN4core3ptr13drop_in_place17hc738c0c3fb771626E.llvm.7409013006954644867:

00000000 <_ZN4core3ptr13drop_in_place17hc738c0c3fb771626E.llvm.7409013006954644867>:
   0:	f8d0 c000 	ldr.w	ip, [r0]
   4:	f3bf 8f5b 	dmb	ish
   8:	e85c 2f00 	ldrex	r2, [ip]
   c:	1e53      	subs	r3, r2, #1
   e:	e84c 3100 	strex	r1, r3, [ip]
  12:	2900      	cmp	r1, #0
  14:	d1f8      	bne.n	8 <_ZN4core3ptr13drop_in_place17hc738c0c3fb771626E.llvm.7409013006954644867+0x8>
  16:	2a01      	cmp	r2, #1
  18:	bf04      	itt	eq
  1a:	f3bf 8f5b 	dmbeq	ish
  1e:	f7ff bffe 	beq.w	0 <_ZN5alloc4sync12Arc$LT$T$GT$9drop_slow17h3dd9a06d9e762585E>
  22:	4770      	bx	lr

Disassembly of section .text._ZN4core3ptr13drop_in_place17hd6959efb6c96269fE.llvm.7409013006954644867:

00000000 <_ZN4core3ptr13drop_in_place17hd6959efb6c96269fE.llvm.7409013006954644867>:
   0:	b5b0      	push	{r4, r5, r7, lr}
   2:	4604      	mov	r4, r0
   4:	f7ff fffe 	bl	0 <_ZN69_$LT$std..sync..condvar..Condvar$u20$as$u20$core..ops..drop..Drop$GT$4drop17hc44db4e0c212ea68E>
   8:	6820      	ldr	r0, [r4, #0]
   a:	2104      	movs	r1, #4
   c:	2204      	movs	r2, #4
   e:	e8bd 40b0 	ldmia.w	sp!, {r4, r5, r7, lr}
  12:	f7ff bffe 	b.w	0 <__rust_dealloc>
  16:	4605      	mov	r5, r0
  18:	4620      	mov	r0, r4
  1a:	f7ff fffe 	bl	0 <_ZN4core3ptr13drop_in_place17hd6959efb6c96269fE.llvm.7409013006954644867>
  1e:	4628      	mov	r0, r5
  20:	f7ff fffe 	bl	0 <_Unwind_Resume>
  24:	defe      	udf	#254	; 0xfe

Disassembly of section .text._ZN4core3ptr13drop_in_place17he17d0f0fd0b258bcE.llvm.7409013006954644867:

00000000 <_ZN4core3ptr13drop_in_place17he17d0f0fd0b258bcE.llvm.7409013006954644867>:
   0:	b5f0      	push	{r4, r5, r6, r7, lr}
   2:	b081      	sub	sp, #4
   4:	6885      	ldr	r5, [r0, #8]
   6:	4604      	mov	r4, r0
   8:	0ee8      	lsrs	r0, r5, #27
   a:	d110      	bne.n	2e <_ZN4core3ptr13drop_in_place17he17d0f0fd0b258bcE.llvm.7409013006954644867+0x2e>
   c:	e9d4 6000 	ldrd	r6, r0, [r4]
  10:	f000 0707 	and.w	r7, r0, #7
  14:	6067      	str	r7, [r4, #4]
  16:	b12d      	cbz	r5, 24 <_ZN4core3ptr13drop_in_place17he17d0f0fd0b258bcE.llvm.7409013006954644867+0x24>
  18:	f026 0003 	bic.w	r0, r6, #3
  1c:	00a9      	lsls	r1, r5, #2
  1e:	2204      	movs	r2, #4
  20:	f7ff fffe 	bl	0 <__rust_dealloc>
  24:	e9c4 6700 	strd	r6, r7, [r4]
  28:	60a5      	str	r5, [r4, #8]
  2a:	b001      	add	sp, #4
  2c:	bdf0      	pop	{r4, r5, r6, r7, pc}
  2e:	4804      	ldr	r0, [pc, #16]	; (40 <_ZN4core3ptr13drop_in_place17he17d0f0fd0b258bcE.llvm.7409013006954644867+0x40>)
  30:	2118      	movs	r1, #24
  32:	4a04      	ldr	r2, [pc, #16]	; (44 <_ZN4core3ptr13drop_in_place17he17d0f0fd0b258bcE.llvm.7409013006954644867+0x44>)
  34:	4478      	add	r0, pc
  36:	447a      	add	r2, pc
  38:	f7ff fffe 	bl	0 <_ZN4core6option13expect_failed17hccecd099e19e7451E>
  3c:	defe      	udf	#254	; 0xfe
  3e:	bf00      	nop
  40:	00000008 	andeq	r0, r0, r8
  44:	0000000a 	andeq	r0, r0, sl

Disassembly of section .text._ZN4core3ptr13drop_in_place17he9e0735a60414826E.llvm.7409013006954644867:

00000000 <_ZN4core3ptr13drop_in_place17he9e0735a60414826E.llvm.7409013006954644867>:
   0:	6841      	ldr	r1, [r0, #4]
   2:	2900      	cmp	r1, #0
   4:	bf1e      	ittt	ne
   6:	6800      	ldrne	r0, [r0, #0]
   8:	2201      	movne	r2, #1
   a:	f7ff bffe 	bne.w	0 <__rust_dealloc>
   e:	4770      	bx	lr

Disassembly of section .text._ZN4core4iter8adapters3zip19TrustedRandomAccess4size17h155c3e187f39a743E:

00000000 <_ZN4core4iter8adapters3zip19TrustedRandomAccess4size17h155c3e187f39a743E>:
   0:	e9d0 1002 	ldrd	r1, r0, [r0, #8]
   4:	1a40      	subs	r0, r0, r1
   6:	4770      	bx	lr

Disassembly of section .text._ZN58_$LT$I$u20$as$u20$rayon..iter..IntoParallelRefIterator$GT$8par_iter17h21b3c2e14ff0c00eE:

00000000 <_ZN58_$LT$I$u20$as$u20$rayon..iter..IntoParallelRefIterator$GT$8par_iter17h21b3c2e14ff0c00eE>:
   0:	6802      	ldr	r2, [r0, #0]
   2:	6881      	ldr	r1, [r0, #8]
   4:	4610      	mov	r0, r2
   6:	4770      	bx	lr

Disassembly of section .text._ZN5alloc3vec12Vec$LT$T$GT$14from_raw_parts17h190e13e5f768813eE:

00000000 <_ZN5alloc3vec12Vec$LT$T$GT$14from_raw_parts17h190e13e5f768813eE>:
   0:	e9c0 1300 	strd	r1, r3, [r0]
   4:	6082      	str	r2, [r0, #8]
   6:	4770      	bx	lr

Disassembly of section .text._ZN5alloc3vec12Vec$LT$T$GT$17extend_from_slice17h955d7da1f7b0a9e6E:

00000000 <_ZN5alloc3vec12Vec$LT$T$GT$17extend_from_slice17h955d7da1f7b0a9e6E>:
   0:	b570      	push	{r4, r5, r6, lr}
   2:	460d      	mov	r5, r1
   4:	6881      	ldr	r1, [r0, #8]
   6:	4614      	mov	r4, r2
   8:	4606      	mov	r6, r0
   a:	f7ff fffe 	bl	0 <_ZN5alloc7raw_vec19RawVec$LT$T$C$A$GT$7reserve17heea3c8bb56d5c9eeE>
   e:	68b1      	ldr	r1, [r6, #8]
  10:	00a2      	lsls	r2, r4, #2
  12:	6830      	ldr	r0, [r6, #0]
  14:	eb00 0081 	add.w	r0, r0, r1, lsl #2
  18:	4629      	mov	r1, r5
  1a:	f7ff fffe 	bl	0 <__aeabi_memcpy4>
  1e:	68b0      	ldr	r0, [r6, #8]
  20:	4420      	add	r0, r4
  22:	60b0      	str	r0, [r6, #8]
  24:	bd70      	pop	{r4, r5, r6, pc}

Disassembly of section .text._ZN5alloc3vec12Vec$LT$T$GT$5drain17h6df0f853118e7543E:

00000000 <_ZN5alloc3vec12Vec$LT$T$GT$5drain17h6df0f853118e7543E>:
   0:	b580      	push	{r7, lr}
   2:	688b      	ldr	r3, [r1, #8]
   4:	f04f 0c00 	mov.w	ip, #0
   8:	f8d1 e000 	ldr.w	lr, [r1]
   c:	f8c1 c008 	str.w	ip, [r1, #8]
  10:	eb03 0243 	add.w	r2, r3, r3, lsl #1
  14:	e880 5008 	stmia.w	r0, {r3, ip, lr}
  18:	eb0e 0282 	add.w	r2, lr, r2, lsl #2
  1c:	e9c0 2103 	strd	r2, r1, [r0, #12]
  20:	bd80      	pop	{r7, pc}

Disassembly of section .text._ZN5alloc3vec12Vec$LT$T$GT$6resize17he32efb57183d6994E:

00000000 <_ZN5alloc3vec12Vec$LT$T$GT$6resize17he32efb57183d6994E>:
   0:	e92d 41f0 	stmdb	sp!, {r4, r5, r6, r7, r8, lr}
   4:	b088      	sub	sp, #32
   6:	6885      	ldr	r5, [r0, #8]
   8:	4604      	mov	r4, r0
   a:	428d      	cmp	r5, r1
   c:	d215      	bcs.n	3a <_ZN5alloc3vec12Vec$LT$T$GT$6resize17he32efb57183d6994E+0x3a>
   e:	6860      	ldr	r0, [r4, #4]
  10:	1b4f      	subs	r7, r1, r5
  12:	4690      	mov	r8, r2
  14:	1b41      	subs	r1, r0, r5
  16:	42b9      	cmp	r1, r7
  18:	d214      	bcs.n	44 <_ZN5alloc3vec12Vec$LT$T$GT$6resize17he32efb57183d6994E+0x44>
  1a:	19e9      	adds	r1, r5, r7
  1c:	d23d      	bcs.n	9a <_ZN5alloc3vec12Vec$LT$T$GT$6resize17he32efb57183d6994E+0x9a>
  1e:	ebb1 0f40 	cmp.w	r1, r0, lsl #1
  22:	bf38      	it	cc
  24:	0041      	lslcc	r1, r0, #1
  26:	2908      	cmp	r1, #8
  28:	bf98      	it	ls
  2a:	2108      	movls	r1, #8
  2c:	b1b8      	cbz	r0, 5e <_ZN5alloc3vec12Vec$LT$T$GT$6resize17he32efb57183d6994E+0x5e>
  2e:	2201      	movs	r2, #1
  30:	9206      	str	r2, [sp, #24]
  32:	6822      	ldr	r2, [r4, #0]
  34:	e9cd 2004 	strd	r2, r0, [sp, #16]
  38:	e015      	b.n	66 <_ZN5alloc3vec12Vec$LT$T$GT$6resize17he32efb57183d6994E+0x66>
  3a:	460d      	mov	r5, r1
  3c:	60a5      	str	r5, [r4, #8]
  3e:	b008      	add	sp, #32
  40:	e8bd 81f0 	ldmia.w	sp!, {r4, r5, r6, r7, r8, pc}
  44:	6826      	ldr	r6, [r4, #0]
  46:	1970      	adds	r0, r6, r5
  48:	2f02      	cmp	r7, #2
  4a:	d31c      	bcc.n	86 <_ZN5alloc3vec12Vec$LT$T$GT$6resize17he32efb57183d6994E+0x86>
  4c:	3f01      	subs	r7, #1
  4e:	fa5f f288 	uxtb.w	r2, r8
  52:	4639      	mov	r1, r7
  54:	f7ff fffe 	bl	0 <__aeabi_memset>
  58:	443d      	add	r5, r7
  5a:	1970      	adds	r0, r6, r5
  5c:	e015      	b.n	8a <_ZN5alloc3vec12Vec$LT$T$GT$6resize17he32efb57183d6994E+0x8a>
  5e:	2000      	movs	r0, #0
  60:	9006      	str	r0, [sp, #24]
  62:	e9cd 0004 	strd	r0, r0, [sp, #16]
  66:	a801      	add	r0, sp, #4
  68:	ab04      	add	r3, sp, #16
  6a:	2201      	movs	r2, #1
  6c:	f7ff fffe 	bl	0 <_ZN5alloc7raw_vec11finish_grow17h13d13bb9c411b68dE.llvm.13327563362513294482>
  70:	e9dd 0601 	ldrd	r0, r6, [sp, #4]
  74:	9903      	ldr	r1, [sp, #12]
  76:	2801      	cmp	r0, #1
  78:	d00e      	beq.n	98 <_ZN5alloc3vec12Vec$LT$T$GT$6resize17he32efb57183d6994E+0x98>
  7a:	68a5      	ldr	r5, [r4, #8]
  7c:	e9c4 6100 	strd	r6, r1, [r4]
  80:	1970      	adds	r0, r6, r5
  82:	2f02      	cmp	r7, #2
  84:	d2e2      	bcs.n	4c <_ZN5alloc3vec12Vec$LT$T$GT$6resize17he32efb57183d6994E+0x4c>
  86:	2f00      	cmp	r7, #0
  88:	d0d8      	beq.n	3c <_ZN5alloc3vec12Vec$LT$T$GT$6resize17he32efb57183d6994E+0x3c>
  8a:	3501      	adds	r5, #1
  8c:	f880 8000 	strb.w	r8, [r0]
  90:	60a5      	str	r5, [r4, #8]
  92:	b008      	add	sp, #32
  94:	e8bd 81f0 	ldmia.w	sp!, {r4, r5, r6, r7, r8, pc}
  98:	b911      	cbnz	r1, 8 <_ZN5alloc7raw_vec17capacity_overflow17hc75ec95415a61168E+0x8>
  9a:	f7ff fffe 	bl	0 <_ZN5alloc7raw_vec17capacity_overflow17hc75ec95415a61168E>
  9e:	defe      	udf	#254	; 0xfe
  a0:	4630      	mov	r0, r6
  a2:	f7ff fffe 	bl	0 <_ZN5alloc5alloc18handle_alloc_error17ha86af5c1874b681eE>
  a6:	defe      	udf	#254	; 0xfe

Disassembly of section .text._ZN5alloc3vec12Vec$LT$T$GT$7reserve17h02f7d57271af5479E:

00000000 <_ZN5alloc3vec12Vec$LT$T$GT$7reserve17h02f7d57271af5479E>:
   0:	460a      	mov	r2, r1
   2:	6881      	ldr	r1, [r0, #8]
   4:	f7ff bffe 	b.w	0 <_ZN5alloc7raw_vec19RawVec$LT$T$C$A$GT$7reserve17h46e523c3d1c35368E>

Disassembly of section .text._ZN5alloc3vec12Vec$LT$T$GT$7reserve17h7b024f97f2190b15E:

00000000 <_ZN5alloc3vec12Vec$LT$T$GT$7reserve17h7b024f97f2190b15E>:
   0:	460a      	mov	r2, r1
   2:	6881      	ldr	r1, [r0, #8]
   4:	f7ff bffe 	b.w	0 <_ZN5alloc7raw_vec19RawVec$LT$T$C$A$GT$7reserve17heea3c8bb56d5c9eeE>

Disassembly of section .text._ZN5alloc3vec12Vec$LT$T$GT$8is_empty17h9159e106f56ec6b5E:

00000000 <_ZN5alloc3vec12Vec$LT$T$GT$8is_empty17h9159e106f56ec6b5E>:
   0:	6880      	ldr	r0, [r0, #8]
   2:	fab0 f080 	clz	r0, r0
   6:	0940      	lsrs	r0, r0, #5
   8:	4770      	bx	lr

Disassembly of section .text._ZN5rayon4iter13from_par_iter97_$LT$impl$u20$rayon..iter..FromParallelIterator$LT$T$GT$$u20$for$u20$alloc..vec..Vec$LT$T$GT$$GT$13from_par_iter17hd08d6e12da905e09E:

00000000 <_ZN5rayon4iter13from_par_iter97_$LT$impl$u20$rayon..iter..FromParallelIterator$LT$T$GT$$u20$for$u20$alloc..vec..Vec$LT$T$GT$$GT$13from_par_iter17hd08d6e12da905e09E>:
   0:	b5b0      	push	{r4, r5, r7, lr}
   2:	b084      	sub	sp, #16
   4:	4604      	mov	r4, r0
   6:	e9d1 3200 	ldrd	r3, r2, [r1]
   a:	e9d1 5102 	ldrd	r5, r1, [r1, #8]
   e:	2004      	movs	r0, #4
  10:	f04f 0c00 	mov.w	ip, #0
  14:	e9cd 5102 	strd	r5, r1, [sp, #8]
  18:	e9c4 0c00 	strd	r0, ip, [r4]
  1c:	f8c4 c008 	str.w	ip, [r4, #8]
  20:	e9cd 3200 	strd	r3, r2, [sp]
  24:	4611      	mov	r1, r2
  26:	4668      	mov	r0, sp
  28:	4622      	mov	r2, r4
  2a:	f7ff fffe 	bl	0 <_ZN5rayon4iter7collect14special_extend17h33e6da11744420b0E>
  2e:	b004      	add	sp, #16
  30:	bdb0      	pop	{r4, r5, r7, pc}
  32:	4605      	mov	r5, r0
  34:	4620      	mov	r0, r4
  36:	f7ff fffe 	bl	0 <_ZN4core3ptr13drop_in_place17h7d30362af5f95d77E.llvm.17693747169733049325>
  3a:	4628      	mov	r0, r5
  3c:	f7ff fffe 	bl	0 <_Unwind_Resume>
  40:	defe      	udf	#254	; 0xfe

Disassembly of section .text._ZN5rayon4iter7collect91_$LT$impl$u20$rayon..iter..ParallelExtend$LT$T$GT$$u20$for$u20$alloc..vec..Vec$LT$T$GT$$GT$10par_extend17h491206059805d11dE:

00000000 <_ZN5rayon4iter7collect91_$LT$impl$u20$rayon..iter..ParallelExtend$LT$T$GT$$u20$for$u20$alloc..vec..Vec$LT$T$GT$$GT$10par_extend17h491206059805d11dE>:
   0:	b580      	push	{r7, lr}
   2:	b084      	sub	sp, #16
   4:	4684      	mov	ip, r0
   6:	e9d1 0300 	ldrd	r0, r3, [r1]
   a:	e9d1 2102 	ldrd	r2, r1, [r1, #8]
   e:	e9cd 2102 	strd	r2, r1, [sp, #8]
  12:	4619      	mov	r1, r3
  14:	e9cd 0300 	strd	r0, r3, [sp]
  18:	4668      	mov	r0, sp
  1a:	4662      	mov	r2, ip
  1c:	f7ff fffe 	bl	0 <_ZN5rayon4iter7collect14special_extend17h33e6da11744420b0E>
  20:	b004      	add	sp, #16
  22:	bd80      	pop	{r7, pc}

Disassembly of section .text._ZN61_$LT$alloc..vec..Vec$LT$T$GT$$u20$as$u20$core..fmt..Debug$GT$3fmt17h3fdb7a5870bee797E:

00000000 <_ZN61_$LT$alloc..vec..Vec$LT$T$GT$$u20$as$u20$core..fmt..Debug$GT$3fmt17h3fdb7a5870bee797E>:
   0:	e92d 41f0 	stmdb	sp!, {r4, r5, r6, r7, r8, lr}
   4:	b084      	sub	sp, #16
   6:	6807      	ldr	r7, [r0, #0]
   8:	6884      	ldr	r4, [r0, #8]
   a:	a801      	add	r0, sp, #4
   c:	f7ff fffe 	bl	0 <_ZN4core3fmt9Formatter10debug_list17h3208104380081eccE>
  10:	b17c      	cbz	r4, 32 <_ZN61_$LT$alloc..vec..Vec$LT$T$GT$$u20$as$u20$core..fmt..Debug$GT$3fmt17h3fdb7a5870bee797E+0x32>
  12:	00a5      	lsls	r5, r4, #2
  14:	4c0a      	ldr	r4, [pc, #40]	; (40 <_ZN61_$LT$alloc..vec..Vec$LT$T$GT$$u20$as$u20$core..fmt..Debug$GT$3fmt17h3fdb7a5870bee797E+0x40>)
  16:	f10d 0804 	add.w	r8, sp, #4
  1a:	ae03      	add	r6, sp, #12
  1c:	447c      	add	r4, pc
  1e:	4640      	mov	r0, r8
  20:	4631      	mov	r1, r6
  22:	4622      	mov	r2, r4
  24:	9703      	str	r7, [sp, #12]
  26:	f7ff fffe 	bl	0 <_ZN4core3fmt8builders9DebugList5entry17h5c95c716e4662f8dE>
  2a:	3d04      	subs	r5, #4
  2c:	f107 0704 	add.w	r7, r7, #4
  30:	d1f5      	bne.n	1e <_ZN61_$LT$alloc..vec..Vec$LT$T$GT$$u20$as$u20$core..fmt..Debug$GT$3fmt17h3fdb7a5870bee797E+0x1e>
  32:	a801      	add	r0, sp, #4
  34:	f7ff fffe 	bl	0 <_ZN4core3fmt8builders9DebugList6finish17hb95591cac64326aaE>
  38:	b004      	add	sp, #16
  3a:	e8bd 81f0 	ldmia.w	sp!, {r4, r5, r6, r7, r8, pc}
  3e:	bf00      	nop
  40:	00000020 	andeq	r0, r0, r0, lsr #32

Disassembly of section .text._ZN61_$LT$alloc..vec..Vec$LT$T$GT$$u20$as$u20$core..fmt..Debug$GT$3fmt17hcd69d7ac28e0f522E:

00000000 <_ZN61_$LT$alloc..vec..Vec$LT$T$GT$$u20$as$u20$core..fmt..Debug$GT$3fmt17hcd69d7ac28e0f522E>:
   0:	e92d 41f0 	stmdb	sp!, {r4, r5, r6, r7, r8, lr}
   4:	b084      	sub	sp, #16
   6:	6807      	ldr	r7, [r0, #0]
   8:	6885      	ldr	r5, [r0, #8]
   a:	a801      	add	r0, sp, #4
   c:	f7ff fffe 	bl	0 <_ZN4core3fmt9Formatter10debug_list17h3208104380081eccE>
  10:	b175      	cbz	r5, 30 <_ZN61_$LT$alloc..vec..Vec$LT$T$GT$$u20$as$u20$core..fmt..Debug$GT$3fmt17hcd69d7ac28e0f522E+0x30>
  12:	4c0a      	ldr	r4, [pc, #40]	; (3c <_ZN61_$LT$alloc..vec..Vec$LT$T$GT$$u20$as$u20$core..fmt..Debug$GT$3fmt17hcd69d7ac28e0f522E+0x3c>)
  14:	f10d 0804 	add.w	r8, sp, #4
  18:	ae03      	add	r6, sp, #12
  1a:	447c      	add	r4, pc
  1c:	4640      	mov	r0, r8
  1e:	4631      	mov	r1, r6
  20:	4622      	mov	r2, r4
  22:	9703      	str	r7, [sp, #12]
  24:	f7ff fffe 	bl	0 <_ZN4core3fmt8builders9DebugList5entry17h5c95c716e4662f8dE>
  28:	3d01      	subs	r5, #1
  2a:	f107 0701 	add.w	r7, r7, #1
  2e:	d1f5      	bne.n	1c <_ZN61_$LT$alloc..vec..Vec$LT$T$GT$$u20$as$u20$core..fmt..Debug$GT$3fmt17hcd69d7ac28e0f522E+0x1c>
  30:	a801      	add	r0, sp, #4
  32:	f7ff fffe 	bl	0 <_ZN4core3fmt8builders9DebugList6finish17hb95591cac64326aaE>
  36:	b004      	add	sp, #16
  38:	e8bd 81f0 	ldmia.w	sp!, {r4, r5, r6, r7, r8, pc}
  3c:	0000001e 	andeq	r0, r0, lr, lsl r0

Disassembly of section .text._ZN63_$LT$I$u20$as$u20$core..iter..traits..collect..IntoIterator$GT$9into_iter17h96340f1c06ff194aE:

00000000 <_ZN63_$LT$I$u20$as$u20$core..iter..traits..collect..IntoIterator$GT$9into_iter17h96340f1c06ff194aE>:
   0:	b510      	push	{r4, lr}
   2:	e891 501c 	ldmia.w	r1, {r2, r3, r4, ip, lr}
   6:	e880 501c 	stmia.w	r0, {r2, r3, r4, ip, lr}
   a:	bd10      	pop	{r4, pc}

Disassembly of section .text._ZN63_$LT$I$u20$as$u20$core..iter..traits..collect..IntoIterator$GT$9into_iter17he4aab7f30bc60f82E:

00000000 <_ZN63_$LT$I$u20$as$u20$core..iter..traits..collect..IntoIterator$GT$9into_iter17he4aab7f30bc60f82E>:
   0:	e891 100c 	ldmia.w	r1, {r2, r3, ip}
   4:	68c9      	ldr	r1, [r1, #12]
   6:	e880 100c 	stmia.w	r0, {r2, r3, ip}
   a:	60c1      	str	r1, [r0, #12]
   c:	4770      	bx	lr

Disassembly of section .text._ZN63_$LT$alloc..vec..Vec$LT$T$GT$$u20$as$u20$core..clone..Clone$GT$5clone17h966c0222c9706ba1E:

00000000 <_ZN63_$LT$alloc..vec..Vec$LT$T$GT$$u20$as$u20$core..clone..Clone$GT$5clone17h966c0222c9706ba1E>:
   0:	b570      	push	{r4, r5, r6, lr}
   2:	688c      	ldr	r4, [r1, #8]
   4:	f1b4 3fff 	cmp.w	r4, #4294967295	; 0xffffffff
   8:	dd15      	ble.n	36 <_ZN63_$LT$alloc..vec..Vec$LT$T$GT$$u20$as$u20$core..clone..Clone$GT$5clone17h966c0222c9706ba1E+0x36>
   a:	680e      	ldr	r6, [r1, #0]
   c:	4605      	mov	r5, r0
   e:	b14c      	cbz	r4, 24 <_ZN63_$LT$alloc..vec..Vec$LT$T$GT$$u20$as$u20$core..clone..Clone$GT$5clone17h966c0222c9706ba1E+0x24>
  10:	4620      	mov	r0, r4
  12:	2101      	movs	r1, #1
  14:	f7ff fffe 	bl	0 <__rust_alloc>
  18:	b928      	cbnz	r0, 26 <_ZN63_$LT$alloc..vec..Vec$LT$T$GT$$u20$as$u20$core..clone..Clone$GT$5clone17h966c0222c9706ba1E+0x26>
  1a:	4620      	mov	r0, r4
  1c:	2101      	movs	r1, #1
  1e:	f7ff fffe 	bl	0 <_ZN5alloc5alloc18handle_alloc_error17ha86af5c1874b681eE>
  22:	defe      	udf	#254	; 0xfe
  24:	2001      	movs	r0, #1
  26:	4631      	mov	r1, r6
  28:	4622      	mov	r2, r4
  2a:	e9c5 0400 	strd	r0, r4, [r5]
  2e:	f7ff fffe 	bl	0 <__aeabi_memcpy>
  32:	60ac      	str	r4, [r5, #8]
  34:	bd70      	pop	{r4, r5, r6, pc}
  36:	f7ff fffe 	bl	0 <_ZN5alloc7raw_vec17capacity_overflow17hc75ec95415a61168E>
  3a:	defe      	udf	#254	; 0xfe

Disassembly of section .text._ZN66_$LT$alloc..vec..Vec$LT$T$GT$$u20$as$u20$core..ops..drop..Drop$GT$4drop17h37bc05e84055ed7fE:

00000000 <_ZN66_$LT$alloc..vec..Vec$LT$T$GT$$u20$as$u20$core..ops..drop..Drop$GT$4drop17h37bc05e84055ed7fE>:
   0:	4770      	bx	lr

Disassembly of section .text._ZN66_$LT$alloc..vec..Vec$LT$T$GT$$u20$as$u20$core..ops..drop..Drop$GT$4drop17h3979fb44b95ae646E:

00000000 <_ZN66_$LT$alloc..vec..Vec$LT$T$GT$$u20$as$u20$core..ops..drop..Drop$GT$4drop17h3979fb44b95ae646E>:
   0:	e92d 4ff0 	stmdb	sp!, {r4, r5, r6, r7, r8, r9, sl, fp, lr}
   4:	b081      	sub	sp, #4
   6:	6881      	ldr	r1, [r0, #8]
   8:	b331      	cbz	r1, 58 <_ZN66_$LT$alloc..vec..Vec$LT$T$GT$$u20$as$u20$core..ops..drop..Drop$GT$4drop17h3979fb44b95ae646E+0x58>
   a:	f8d0 a000 	ldr.w	sl, [r0]
   e:	eb01 0041 	add.w	r0, r1, r1, lsl #1
  12:	f06f 010b 	mvn.w	r1, #11
  16:	2700      	movs	r7, #0
  18:	eb01 0980 	add.w	r9, r1, r0, lsl #2
  1c:	ea4f 0880 	mov.w	r8, r0, lsl #2
  20:	e006      	b.n	30 <_ZN66_$LT$alloc..vec..Vec$LT$T$GT$$u20$as$u20$core..ops..drop..Drop$GT$4drop17h3979fb44b95ae646E+0x30>
  22:	f84a b007 	str.w	fp, [sl, r7]
  26:	370c      	adds	r7, #12
  28:	45b8      	cmp	r8, r7
  2a:	e9c6 4501 	strd	r4, r5, [r6, #4]
  2e:	d013      	beq.n	58 <_ZN66_$LT$alloc..vec..Vec$LT$T$GT$$u20$as$u20$core..ops..drop..Drop$GT$4drop17h3979fb44b95ae646E+0x58>
  30:	eb0a 0607 	add.w	r6, sl, r7
  34:	68b5      	ldr	r5, [r6, #8]
  36:	0ee8      	lsrs	r0, r5, #27
  38:	d111      	bne.n	5e <_ZN66_$LT$alloc..vec..Vec$LT$T$GT$$u20$as$u20$core..ops..drop..Drop$GT$4drop17h3979fb44b95ae646E+0x5e>
  3a:	6870      	ldr	r0, [r6, #4]
  3c:	2d00      	cmp	r5, #0
  3e:	f85a b007 	ldr.w	fp, [sl, r7]
  42:	f000 0407 	and.w	r4, r0, #7
  46:	6074      	str	r4, [r6, #4]
  48:	d0eb      	beq.n	22 <_ZN66_$LT$alloc..vec..Vec$LT$T$GT$$u20$as$u20$core..ops..drop..Drop$GT$4drop17h3979fb44b95ae646E+0x22>
  4a:	f02b 0003 	bic.w	r0, fp, #3
  4e:	00a9      	lsls	r1, r5, #2
  50:	2204      	movs	r2, #4
  52:	f7ff fffe 	bl	0 <__rust_dealloc>
  56:	e7e4      	b.n	22 <_ZN66_$LT$alloc..vec..Vec$LT$T$GT$$u20$as$u20$core..ops..drop..Drop$GT$4drop17h3979fb44b95ae646E+0x22>
  58:	b001      	add	sp, #4
  5a:	e8bd 8ff0 	ldmia.w	sp!, {r4, r5, r6, r7, r8, r9, sl, fp, pc}
  5e:	480d      	ldr	r0, [pc, #52]	; (94 <_ZN66_$LT$alloc..vec..Vec$LT$T$GT$$u20$as$u20$core..ops..drop..Drop$GT$4drop17h3979fb44b95ae646E+0x94>)
  60:	eba9 0507 	sub.w	r5, r9, r7
  64:	4a0c      	ldr	r2, [pc, #48]	; (98 <_ZN66_$LT$alloc..vec..Vec$LT$T$GT$$u20$as$u20$core..ops..drop..Drop$GT$4drop17h3979fb44b95ae646E+0x98>)
  66:	f106 040c 	add.w	r4, r6, #12
  6a:	4478      	add	r0, pc
  6c:	447a      	add	r2, pc
  6e:	2118      	movs	r1, #24
  70:	f7ff fffe 	bl	0 <_ZN4core6option13expect_failed17hccecd099e19e7451E>
  74:	defe      	udf	#254	; 0xfe
  76:	4680      	mov	r8, r0
  78:	45b9      	cmp	r9, r7
  7a:	d006      	beq.n	8a <_ZN66_$LT$alloc..vec..Vec$LT$T$GT$$u20$as$u20$core..ops..drop..Drop$GT$4drop17h3979fb44b95ae646E+0x8a>
  7c:	4620      	mov	r0, r4
  7e:	f7ff fffe 	bl	0 <_ZN66_$LT$alloc..vec..Vec$LT$T$GT$$u20$as$u20$core..ops..drop..Drop$GT$4drop17h3979fb44b95ae646E>
  82:	3d0c      	subs	r5, #12
  84:	f104 040c 	add.w	r4, r4, #12
  88:	d1f8      	bne.n	7c <_ZN66_$LT$alloc..vec..Vec$LT$T$GT$$u20$as$u20$core..ops..drop..Drop$GT$4drop17h3979fb44b95ae646E+0x7c>
  8a:	4640      	mov	r0, r8
  8c:	f7ff fffe 	bl	0 <_Unwind_Resume>
  90:	defe      	udf	#254	; 0xfe
  92:	bf00      	nop
  94:	00000026 	andeq	r0, r0, r6, lsr #32
  98:	00000028 	andeq	r0, r0, r8, lsr #32

Disassembly of section .text._ZN66_$LT$alloc..vec..Vec$LT$T$GT$$u20$as$u20$core..ops..drop..Drop$GT$4drop17h64fa1b47f84b2d19E:

00000000 <_ZN66_$LT$alloc..vec..Vec$LT$T$GT$$u20$as$u20$core..ops..drop..Drop$GT$4drop17h64fa1b47f84b2d19E>:
   0:	e92d 43f0 	stmdb	sp!, {r4, r5, r6, r7, r8, r9, lr}
   4:	b081      	sub	sp, #4
   6:	6881      	ldr	r1, [r0, #8]
   8:	2900      	cmp	r1, #0
   a:	d048      	beq.n	9e <_ZN66_$LT$alloc..vec..Vec$LT$T$GT$$u20$as$u20$core..ops..drop..Drop$GT$4drop17h64fa1b47f84b2d19E+0x9e>
   c:	6805      	ldr	r5, [r0, #0]
   e:	eb01 0041 	add.w	r0, r1, r1, lsl #1
  12:	f06f 012f 	mvn.w	r1, #47	; 0x2f
  16:	eb05 1900 	add.w	r9, r5, r0, lsl #4
  1a:	eb01 1600 	add.w	r6, r1, r0, lsl #4
  1e:	e003      	b.n	28 <_ZN66_$LT$alloc..vec..Vec$LT$T$GT$$u20$as$u20$core..ops..drop..Drop$GT$4drop17h64fa1b47f84b2d19E+0x28>
  20:	3e30      	subs	r6, #48	; 0x30
  22:	454c      	cmp	r4, r9
  24:	4625      	mov	r5, r4
  26:	d03a      	beq.n	9e <_ZN66_$LT$alloc..vec..Vec$LT$T$GT$$u20$as$u20$core..ops..drop..Drop$GT$4drop17h64fa1b47f84b2d19E+0x9e>
  28:	f105 0430 	add.w	r4, r5, #48	; 0x30
  2c:	4628      	mov	r0, r5
  2e:	f7ff fffe 	bl	0 <_ZN78_$LT$std..sys_common..mutex..MovableMutex$u20$as$u20$core..ops..drop..Drop$GT$4drop17h13c345475114c4aaE>
  32:	462f      	mov	r7, r5
  34:	2104      	movs	r1, #4
  36:	f857 0b08 	ldr.w	r0, [r7], #8
  3a:	2204      	movs	r2, #4
  3c:	f7ff fffe 	bl	0 <__rust_dealloc>
  40:	4638      	mov	r0, r7
  42:	f7ff fffe 	bl	0 <_ZN69_$LT$std..sync..condvar..Condvar$u20$as$u20$core..ops..drop..Drop$GT$4drop17hc44db4e0c212ea68E>
  46:	68a8      	ldr	r0, [r5, #8]
  48:	2104      	movs	r1, #4
  4a:	2204      	movs	r2, #4
  4c:	f7ff fffe 	bl	0 <__rust_dealloc>
  50:	f105 0710 	add.w	r7, r5, #16
  54:	4638      	mov	r0, r7
  56:	f7ff fffe 	bl	0 <_ZN78_$LT$std..sys_common..mutex..MovableMutex$u20$as$u20$core..ops..drop..Drop$GT$4drop17h13c345475114c4aaE>
  5a:	6928      	ldr	r0, [r5, #16]
  5c:	2104      	movs	r1, #4
  5e:	2204      	movs	r2, #4
  60:	f7ff fffe 	bl	0 <__rust_dealloc>
  64:	f105 0718 	add.w	r7, r5, #24
  68:	4638      	mov	r0, r7
  6a:	f7ff fffe 	bl	0 <_ZN69_$LT$std..sync..condvar..Condvar$u20$as$u20$core..ops..drop..Drop$GT$4drop17hc44db4e0c212ea68E>
  6e:	69a8      	ldr	r0, [r5, #24]
  70:	2104      	movs	r1, #4
  72:	2204      	movs	r2, #4
  74:	f7ff fffe 	bl	0 <__rust_dealloc>
  78:	f855 0f28 	ldr.w	r0, [r5, #40]!
  7c:	f3bf 8f5b 	dmb	ish
  80:	e850 1f00 	ldrex	r1, [r0]
  84:	1e4a      	subs	r2, r1, #1
  86:	e840 2300 	strex	r3, r2, [r0]
  8a:	2b00      	cmp	r3, #0
  8c:	d1f8      	bne.n	80 <_ZN66_$LT$alloc..vec..Vec$LT$T$GT$$u20$as$u20$core..ops..drop..Drop$GT$4drop17h64fa1b47f84b2d19E+0x80>
  8e:	2901      	cmp	r1, #1
  90:	d1c6      	bne.n	20 <_ZN66_$LT$alloc..vec..Vec$LT$T$GT$$u20$as$u20$core..ops..drop..Drop$GT$4drop17h64fa1b47f84b2d19E+0x20>
  92:	f3bf 8f5b 	dmb	ish
  96:	4628      	mov	r0, r5
  98:	f7ff fffe 	bl	0 <_ZN5alloc4sync12Arc$LT$T$GT$9drop_slow17h3dd9a06d9e762585E>
  9c:	e7c0      	b.n	20 <_ZN66_$LT$alloc..vec..Vec$LT$T$GT$$u20$as$u20$core..ops..drop..Drop$GT$4drop17h64fa1b47f84b2d19E+0x20>
  9e:	b001      	add	sp, #4
  a0:	e8bd 83f0 	ldmia.w	sp!, {r4, r5, r6, r7, r8, r9, pc}
  a4:	4680      	mov	r8, r0
  a6:	e024      	b.n	f2 <_ZN66_$LT$alloc..vec..Vec$LT$T$GT$$u20$as$u20$core..ops..drop..Drop$GT$4drop17h64fa1b47f84b2d19E+0xf2>
  a8:	4680      	mov	r8, r0
  aa:	4638      	mov	r0, r7
  ac:	f7ff fffe 	bl	0 <_ZN66_$LT$alloc..vec..Vec$LT$T$GT$$u20$as$u20$core..ops..drop..Drop$GT$4drop17h64fa1b47f84b2d19E>
  b0:	e01b      	b.n	ea <_ZN66_$LT$alloc..vec..Vec$LT$T$GT$$u20$as$u20$core..ops..drop..Drop$GT$4drop17h64fa1b47f84b2d19E+0xea>
  b2:	4680      	mov	r8, r0
  b4:	4638      	mov	r0, r7
  b6:	f7ff fffe 	bl	0 <_ZN66_$LT$alloc..vec..Vec$LT$T$GT$$u20$as$u20$core..ops..drop..Drop$GT$4drop17h64fa1b47f84b2d19E>
  ba:	f105 0018 	add.w	r0, r5, #24
  be:	f7ff fffe 	bl	0 <_ZN66_$LT$alloc..vec..Vec$LT$T$GT$$u20$as$u20$core..ops..drop..Drop$GT$4drop17h64fa1b47f84b2d19E>
  c2:	e012      	b.n	ea <_ZN66_$LT$alloc..vec..Vec$LT$T$GT$$u20$as$u20$core..ops..drop..Drop$GT$4drop17h64fa1b47f84b2d19E+0xea>
  c4:	4680      	mov	r8, r0
  c6:	e010      	b.n	ea <_ZN66_$LT$alloc..vec..Vec$LT$T$GT$$u20$as$u20$core..ops..drop..Drop$GT$4drop17h64fa1b47f84b2d19E+0xea>
  c8:	4680      	mov	r8, r0
  ca:	4638      	mov	r0, r7
  cc:	f7ff fffe 	bl	0 <_ZN66_$LT$alloc..vec..Vec$LT$T$GT$$u20$as$u20$core..ops..drop..Drop$GT$4drop17h64fa1b47f84b2d19E>
  d0:	e007      	b.n	e2 <_ZN66_$LT$alloc..vec..Vec$LT$T$GT$$u20$as$u20$core..ops..drop..Drop$GT$4drop17h64fa1b47f84b2d19E+0xe2>
  d2:	4680      	mov	r8, r0
  d4:	4628      	mov	r0, r5
  d6:	f7ff fffe 	bl	0 <_ZN66_$LT$alloc..vec..Vec$LT$T$GT$$u20$as$u20$core..ops..drop..Drop$GT$4drop17h64fa1b47f84b2d19E>
  da:	f105 0008 	add.w	r0, r5, #8
  de:	f7ff fffe 	bl	0 <_ZN66_$LT$alloc..vec..Vec$LT$T$GT$$u20$as$u20$core..ops..drop..Drop$GT$4drop17h64fa1b47f84b2d19E>
  e2:	f105 0010 	add.w	r0, r5, #16
  e6:	f7ff fffe 	bl	0 <_ZN66_$LT$alloc..vec..Vec$LT$T$GT$$u20$as$u20$core..ops..drop..Drop$GT$4drop17h64fa1b47f84b2d19E>
  ea:	f105 0028 	add.w	r0, r5, #40	; 0x28
  ee:	f7ff fffe 	bl	0 <_ZN66_$LT$alloc..vec..Vec$LT$T$GT$$u20$as$u20$core..ops..drop..Drop$GT$4drop17h64fa1b47f84b2d19E>
  f2:	454c      	cmp	r4, r9
  f4:	d006      	beq.n	104 <_ZN66_$LT$alloc..vec..Vec$LT$T$GT$$u20$as$u20$core..ops..drop..Drop$GT$4drop17h64fa1b47f84b2d19E+0x104>
  f6:	4620      	mov	r0, r4
  f8:	f7ff fffe 	bl	0 <_ZN66_$LT$alloc..vec..Vec$LT$T$GT$$u20$as$u20$core..ops..drop..Drop$GT$4drop17h64fa1b47f84b2d19E>
  fc:	3e30      	subs	r6, #48	; 0x30
  fe:	f104 0430 	add.w	r4, r4, #48	; 0x30
 102:	d1f8      	bne.n	f6 <_ZN66_$LT$alloc..vec..Vec$LT$T$GT$$u20$as$u20$core..ops..drop..Drop$GT$4drop17h64fa1b47f84b2d19E+0xf6>
 104:	4640      	mov	r0, r8
 106:	f7ff fffe 	bl	0 <_Unwind_Resume>
 10a:	defe      	udf	#254	; 0xfe
 10c:	4680      	mov	r8, r0
 10e:	e7e8      	b.n	e2 <_ZN66_$LT$alloc..vec..Vec$LT$T$GT$$u20$as$u20$core..ops..drop..Drop$GT$4drop17h64fa1b47f84b2d19E+0xe2>
 110:	e7c8      	b.n	a4 <_ZN66_$LT$alloc..vec..Vec$LT$T$GT$$u20$as$u20$core..ops..drop..Drop$GT$4drop17h64fa1b47f84b2d19E+0xa4>

Disassembly of section .text._ZN66_$LT$alloc..vec..Vec$LT$T$GT$$u20$as$u20$core..ops..drop..Drop$GT$4drop17h8e22288a421bebbfE:

00000000 <_ZN66_$LT$alloc..vec..Vec$LT$T$GT$$u20$as$u20$core..ops..drop..Drop$GT$4drop17h8e22288a421bebbfE>:
   0:	b5f0      	push	{r4, r5, r6, r7, lr}
   2:	b081      	sub	sp, #4
   4:	6881      	ldr	r1, [r0, #8]
   6:	b1e9      	cbz	r1, 44 <_ZN66_$LT$alloc..vec..Vec$LT$T$GT$$u20$as$u20$core..ops..drop..Drop$GT$4drop17h8e22288a421bebbfE+0x44>
   8:	6804      	ldr	r4, [r0, #0]
   a:	f06f 003f 	mvn.w	r0, #63	; 0x3f
   e:	eb00 1681 	add.w	r6, r0, r1, lsl #6
  12:	eb04 1781 	add.w	r7, r4, r1, lsl #6
  16:	4620      	mov	r0, r4
  18:	f7ff fffe 	bl	0 <_ZN78_$LT$std..sys_common..mutex..MovableMutex$u20$as$u20$core..ops..drop..Drop$GT$4drop17h13c345475114c4aaE>
  1c:	4625      	mov	r5, r4
  1e:	2104      	movs	r1, #4
  20:	f855 0b08 	ldr.w	r0, [r5], #8
  24:	2204      	movs	r2, #4
  26:	f7ff fffe 	bl	0 <__rust_dealloc>
  2a:	4628      	mov	r0, r5
  2c:	f7ff fffe 	bl	0 <_ZN69_$LT$std..sync..condvar..Condvar$u20$as$u20$core..ops..drop..Drop$GT$4drop17hc44db4e0c212ea68E>
  30:	f855 0b38 	ldr.w	r0, [r5], #56
  34:	2104      	movs	r1, #4
  36:	2204      	movs	r2, #4
  38:	f7ff fffe 	bl	0 <__rust_dealloc>
  3c:	3e40      	subs	r6, #64	; 0x40
  3e:	42bd      	cmp	r5, r7
  40:	462c      	mov	r4, r5
  42:	d1e8      	bne.n	16 <_ZN66_$LT$alloc..vec..Vec$LT$T$GT$$u20$as$u20$core..ops..drop..Drop$GT$4drop17h8e22288a421bebbfE+0x16>
  44:	b001      	add	sp, #4
  46:	bdf0      	pop	{r4, r5, r6, r7, pc}
  48:	4605      	mov	r5, r0
  4a:	f104 0008 	add.w	r0, r4, #8
  4e:	f7ff fffe 	bl	0 <_ZN66_$LT$alloc..vec..Vec$LT$T$GT$$u20$as$u20$core..ops..drop..Drop$GT$4drop17h8e22288a421bebbfE>
  52:	b94e      	cbnz	r6, 68 <_ZN66_$LT$alloc..vec..Vec$LT$T$GT$$u20$as$u20$core..ops..drop..Drop$GT$4drop17h8e22288a421bebbfE+0x68>
  54:	e010      	b.n	78 <_ZN66_$LT$alloc..vec..Vec$LT$T$GT$$u20$as$u20$core..ops..drop..Drop$GT$4drop17h8e22288a421bebbfE+0x78>
  56:	4605      	mov	r5, r0
  58:	4620      	mov	r0, r4
  5a:	f7ff fffe 	bl	0 <_ZN66_$LT$alloc..vec..Vec$LT$T$GT$$u20$as$u20$core..ops..drop..Drop$GT$4drop17h8e22288a421bebbfE>
  5e:	f104 0008 	add.w	r0, r4, #8
  62:	f7ff fffe 	bl	0 <_ZN66_$LT$alloc..vec..Vec$LT$T$GT$$u20$as$u20$core..ops..drop..Drop$GT$4drop17h8e22288a421bebbfE>
  66:	b13e      	cbz	r6, 78 <_ZN66_$LT$alloc..vec..Vec$LT$T$GT$$u20$as$u20$core..ops..drop..Drop$GT$4drop17h8e22288a421bebbfE+0x78>
  68:	3440      	adds	r4, #64	; 0x40
  6a:	4620      	mov	r0, r4
  6c:	f7ff fffe 	bl	0 <_ZN66_$LT$alloc..vec..Vec$LT$T$GT$$u20$as$u20$core..ops..drop..Drop$GT$4drop17h8e22288a421bebbfE>
  70:	3e40      	subs	r6, #64	; 0x40
  72:	f104 0440 	add.w	r4, r4, #64	; 0x40
  76:	d1f8      	bne.n	6a <_ZN66_$LT$alloc..vec..Vec$LT$T$GT$$u20$as$u20$core..ops..drop..Drop$GT$4drop17h8e22288a421bebbfE+0x6a>
  78:	4628      	mov	r0, r5
  7a:	f7ff fffe 	bl	0 <_Unwind_Resume>
  7e:	defe      	udf	#254	; 0xfe
  80:	4605      	mov	r5, r0
  82:	2e00      	cmp	r6, #0
  84:	d1f0      	bne.n	68 <_ZN66_$LT$alloc..vec..Vec$LT$T$GT$$u20$as$u20$core..ops..drop..Drop$GT$4drop17h8e22288a421bebbfE+0x68>
  86:	e7f7      	b.n	78 <_ZN66_$LT$alloc..vec..Vec$LT$T$GT$$u20$as$u20$core..ops..drop..Drop$GT$4drop17h8e22288a421bebbfE+0x78>

Disassembly of section .text._ZN66_$LT$alloc..vec..Vec$LT$T$GT$$u20$as$u20$core..ops..drop..Drop$GT$4drop17hfc0f449f4bb387a1E:

00000000 <_ZN66_$LT$alloc..vec..Vec$LT$T$GT$$u20$as$u20$core..ops..drop..Drop$GT$4drop17hfc0f449f4bb387a1E>:
   0:	b5f0      	push	{r4, r5, r6, r7, lr}
   2:	b081      	sub	sp, #4
   4:	6881      	ldr	r1, [r0, #8]
   6:	b301      	cbz	r1, 4a <_ZN66_$LT$alloc..vec..Vec$LT$T$GT$$u20$as$u20$core..ops..drop..Drop$GT$4drop17hfc0f449f4bb387a1E+0x4a>
   8:	6804      	ldr	r4, [r0, #0]
   a:	eb01 0041 	add.w	r0, r1, r1, lsl #1
   e:	f06f 010b 	mvn.w	r1, #11
  12:	eb04 0780 	add.w	r7, r4, r0, lsl #2
  16:	eb01 0680 	add.w	r6, r1, r0, lsl #2
  1a:	e002      	b.n	22 <_ZN66_$LT$alloc..vec..Vec$LT$T$GT$$u20$as$u20$core..ops..drop..Drop$GT$4drop17hfc0f449f4bb387a1E+0x22>
  1c:	3e0c      	subs	r6, #12
  1e:	42bc      	cmp	r4, r7
  20:	d013      	beq.n	4a <_ZN66_$LT$alloc..vec..Vec$LT$T$GT$$u20$as$u20$core..ops..drop..Drop$GT$4drop17hfc0f449f4bb387a1E+0x4a>
  22:	4620      	mov	r0, r4
  24:	f850 1f08 	ldr.w	r1, [r0, #8]!
  28:	f3bf 8f5b 	dmb	ish
  2c:	1d04      	adds	r4, r0, #4
  2e:	e851 2f00 	ldrex	r2, [r1]
  32:	1e53      	subs	r3, r2, #1
  34:	e841 3500 	strex	r5, r3, [r1]
  38:	2d00      	cmp	r5, #0
  3a:	d1f8      	bne.n	2e <_ZN66_$LT$alloc..vec..Vec$LT$T$GT$$u20$as$u20$core..ops..drop..Drop$GT$4drop17hfc0f449f4bb387a1E+0x2e>
  3c:	2a01      	cmp	r2, #1
  3e:	d1ed      	bne.n	1c <_ZN66_$LT$alloc..vec..Vec$LT$T$GT$$u20$as$u20$core..ops..drop..Drop$GT$4drop17hfc0f449f4bb387a1E+0x1c>
  40:	f3bf 8f5b 	dmb	ish
  44:	f7ff fffe 	bl	0 <_ZN5alloc4sync12Arc$LT$T$GT$9drop_slow17h90beade0048c5cbaE>
  48:	e7e8      	b.n	1c <_ZN66_$LT$alloc..vec..Vec$LT$T$GT$$u20$as$u20$core..ops..drop..Drop$GT$4drop17hfc0f449f4bb387a1E+0x1c>
  4a:	b001      	add	sp, #4
  4c:	bdf0      	pop	{r4, r5, r6, r7, pc}
  4e:	4605      	mov	r5, r0
  50:	42bc      	cmp	r4, r7
  52:	d006      	beq.n	62 <_ZN66_$LT$alloc..vec..Vec$LT$T$GT$$u20$as$u20$core..ops..drop..Drop$GT$4drop17hfc0f449f4bb387a1E+0x62>
  54:	4620      	mov	r0, r4
  56:	f7ff fffe 	bl	0 <_ZN66_$LT$alloc..vec..Vec$LT$T$GT$$u20$as$u20$core..ops..drop..Drop$GT$4drop17hfc0f449f4bb387a1E>
  5a:	3e0c      	subs	r6, #12
  5c:	f104 040c 	add.w	r4, r4, #12
  60:	d1f8      	bne.n	54 <_ZN66_$LT$alloc..vec..Vec$LT$T$GT$$u20$as$u20$core..ops..drop..Drop$GT$4drop17hfc0f449f4bb387a1E+0x54>
  62:	4628      	mov	r0, r5
  64:	f7ff fffe 	bl	0 <_Unwind_Resume>
  68:	defe      	udf	#254	; 0xfe

Disassembly of section .text._ZN67_$LT$alloc..vec..Vec$LT$T$GT$$u20$as$u20$core..default..Default$GT$7default17ha7eb3bdfc6bcfafcE:

00000000 <_ZN67_$LT$alloc..vec..Vec$LT$T$GT$$u20$as$u20$core..default..Default$GT$7default17ha7eb3bdfc6bcfafcE>:
   0:	2100      	movs	r1, #0
   2:	2204      	movs	r2, #4
   4:	e9c0 2100 	strd	r2, r1, [r0]
   8:	6081      	str	r1, [r0, #8]
   a:	4770      	bx	lr

Disassembly of section .text._ZN68_$LT$alloc..vec..Drain$LT$T$GT$$u20$as$u20$core..ops..drop..Drop$GT$4drop17hd9249d93abdf6e4eE:

00000000 <_ZN68_$LT$alloc..vec..Drain$LT$T$GT$$u20$as$u20$core..ops..drop..Drop$GT$4drop17hd9249d93abdf6e4eE>:
   0:	b570      	push	{r4, r5, r6, lr}
   2:	b086      	sub	sp, #24
   4:	4604      	mov	r4, r0
   6:	6880      	ldr	r0, [r0, #8]
   8:	68e1      	ldr	r1, [r4, #12]
   a:	4288      	cmp	r0, r1
   c:	d026      	beq.n	5c <_ZN68_$LT$alloc..vec..Drain$LT$T$GT$$u20$as$u20$core..ops..drop..Drop$GT$4drop17hd9249d93abdf6e4eE+0x5c>
   e:	aa02      	add	r2, sp, #8
  10:	f102 0508 	add.w	r5, r2, #8
  14:	e003      	b.n	1e <_ZN68_$LT$alloc..vec..Drain$LT$T$GT$$u20$as$u20$core..ops..drop..Drop$GT$4drop17hd9249d93abdf6e4eE+0x1e>
  16:	e9d4 0102 	ldrd	r0, r1, [r4, #8]
  1a:	4288      	cmp	r0, r1
  1c:	d01e      	beq.n	5c <_ZN68_$LT$alloc..vec..Drain$LT$T$GT$$u20$as$u20$core..ops..drop..Drop$GT$4drop17hd9249d93abdf6e4eE+0x5c>
  1e:	f100 020c 	add.w	r2, r0, #12
  22:	60a2      	str	r2, [r4, #8]
  24:	6882      	ldr	r2, [r0, #8]
  26:	b1b2      	cbz	r2, 56 <_ZN68_$LT$alloc..vec..Drain$LT$T$GT$$u20$as$u20$core..ops..drop..Drop$GT$4drop17hd9249d93abdf6e4eE+0x56>
  28:	e9d0 1000 	ldrd	r1, r0, [r0]
  2c:	e9cd 4101 	strd	r4, r1, [sp, #4]
  30:	e9cd 0203 	strd	r0, r2, [sp, #12]
  34:	f3bf 8f5b 	dmb	ish
  38:	e852 0f00 	ldrex	r0, [r2]
  3c:	1e41      	subs	r1, r0, #1
  3e:	e842 1300 	strex	r3, r1, [r2]
  42:	2b00      	cmp	r3, #0
  44:	d1f8      	bne.n	38 <_ZN68_$LT$alloc..vec..Drain$LT$T$GT$$u20$as$u20$core..ops..drop..Drop$GT$4drop17hd9249d93abdf6e4eE+0x38>
  46:	2801      	cmp	r0, #1
  48:	d1e5      	bne.n	16 <_ZN68_$LT$alloc..vec..Drain$LT$T$GT$$u20$as$u20$core..ops..drop..Drop$GT$4drop17hd9249d93abdf6e4eE+0x16>
  4a:	f3bf 8f5b 	dmb	ish
  4e:	4628      	mov	r0, r5
  50:	f7ff fffe 	bl	0 <_ZN5alloc4sync12Arc$LT$T$GT$9drop_slow17h90beade0048c5cbaE>
  54:	e7df      	b.n	16 <_ZN68_$LT$alloc..vec..Drain$LT$T$GT$$u20$as$u20$core..ops..drop..Drop$GT$4drop17hd9249d93abdf6e4eE+0x16>
  56:	300c      	adds	r0, #12
  58:	4281      	cmp	r1, r0
  5a:	d11d      	bne.n	98 <_ZN68_$LT$alloc..vec..Drain$LT$T$GT$$u20$as$u20$core..ops..drop..Drop$GT$4drop17hd9249d93abdf6e4eE+0x98>
  5c:	6862      	ldr	r2, [r4, #4]
  5e:	b1aa      	cbz	r2, 8c <_ZN68_$LT$alloc..vec..Drain$LT$T$GT$$u20$as$u20$core..ops..drop..Drop$GT$4drop17hd9249d93abdf6e4eE+0x8c>
  60:	6925      	ldr	r5, [r4, #16]
  62:	6821      	ldr	r1, [r4, #0]
  64:	68ae      	ldr	r6, [r5, #8]
  66:	42b1      	cmp	r1, r6
  68:	d00e      	beq.n	88 <_ZN68_$LT$alloc..vec..Drain$LT$T$GT$$u20$as$u20$core..ops..drop..Drop$GT$4drop17hd9249d93abdf6e4eE+0x88>
  6a:	682b      	ldr	r3, [r5, #0]
  6c:	eb06 0046 	add.w	r0, r6, r6, lsl #1
  70:	eb01 0141 	add.w	r1, r1, r1, lsl #1
  74:	eb02 0242 	add.w	r2, r2, r2, lsl #1
  78:	eb03 0080 	add.w	r0, r3, r0, lsl #2
  7c:	eb03 0181 	add.w	r1, r3, r1, lsl #2
  80:	0092      	lsls	r2, r2, #2
  82:	f7ff fffe 	bl	0 <__aeabi_memmove4>
  86:	6862      	ldr	r2, [r4, #4]
  88:	1990      	adds	r0, r2, r6
  8a:	60a8      	str	r0, [r5, #8]
  8c:	b006      	add	sp, #24
  8e:	bd70      	pop	{r4, r5, r6, pc}
  90:	e9d4 0102 	ldrd	r0, r1, [r4, #8]
  94:	4288      	cmp	r0, r1
  96:	d0e1      	beq.n	5c <_ZN68_$LT$alloc..vec..Drain$LT$T$GT$$u20$as$u20$core..ops..drop..Drop$GT$4drop17hd9249d93abdf6e4eE+0x5c>
  98:	f100 010c 	add.w	r1, r0, #12
  9c:	60a1      	str	r1, [r4, #8]
  9e:	6881      	ldr	r1, [r0, #8]
  a0:	2900      	cmp	r1, #0
  a2:	d0db      	beq.n	5c <_ZN68_$LT$alloc..vec..Drain$LT$T$GT$$u20$as$u20$core..ops..drop..Drop$GT$4drop17hd9249d93abdf6e4eE+0x5c>
  a4:	e9d0 2000 	ldrd	r2, r0, [r0]
  a8:	e9cd 2002 	strd	r2, r0, [sp, #8]
  ac:	9104      	str	r1, [sp, #16]
  ae:	f3bf 8f5b 	dmb	ish
  b2:	e851 0f00 	ldrex	r0, [r1]
  b6:	1e42      	subs	r2, r0, #1
  b8:	e841 2300 	strex	r3, r2, [r1]
  bc:	2b00      	cmp	r3, #0
  be:	d1f8      	bne.n	b2 <_ZN68_$LT$alloc..vec..Drain$LT$T$GT$$u20$as$u20$core..ops..drop..Drop$GT$4drop17hd9249d93abdf6e4eE+0xb2>
  c0:	2801      	cmp	r0, #1
  c2:	d1e5      	bne.n	90 <_ZN68_$LT$alloc..vec..Drain$LT$T$GT$$u20$as$u20$core..ops..drop..Drop$GT$4drop17hd9249d93abdf6e4eE+0x90>
  c4:	4628      	mov	r0, r5
  c6:	f3bf 8f5b 	dmb	ish
  ca:	f7ff fffe 	bl	0 <_ZN5alloc4sync12Arc$LT$T$GT$9drop_slow17h90beade0048c5cbaE>
  ce:	e7df      	b.n	90 <_ZN68_$LT$alloc..vec..Drain$LT$T$GT$$u20$as$u20$core..ops..drop..Drop$GT$4drop17hd9249d93abdf6e4eE+0x90>
  d0:	4604      	mov	r4, r0
  d2:	a801      	add	r0, sp, #4
  d4:	f7ff fffe 	bl	0 <_ZN68_$LT$alloc..vec..Drain$LT$T$GT$$u20$as$u20$core..ops..drop..Drop$GT$4drop17hd9249d93abdf6e4eE>
  d8:	4620      	mov	r0, r4
  da:	f7ff fffe 	bl	0 <_Unwind_Resume>
  de:	defe      	udf	#254	; 0xfe

Disassembly of section .text._ZN71_$LT$alloc..vec..IntoIter$LT$T$GT$$u20$as$u20$core..ops..drop..Drop$GT$4drop17hde39086dfa429e83E:

00000000 <_ZN71_$LT$alloc..vec..IntoIter$LT$T$GT$$u20$as$u20$core..ops..drop..Drop$GT$4drop17hde39086dfa429e83E>:
   0:	6841      	ldr	r1, [r0, #4]
   2:	2900      	cmp	r1, #0
   4:	bf1e      	ittt	ne
   6:	6800      	ldrne	r0, [r0, #0]
   8:	2201      	movne	r2, #1
   a:	f7ff bffe 	bne.w	0 <__rust_dealloc>
   e:	4770      	bx	lr

Disassembly of section .text._ZN71_$LT$alloc..vec..Vec$LT$T$GT$$u20$as$u20$core..ops..deref..DerefMut$GT$9deref_mut17h1b765c9ef2d02c58E:

00000000 <_ZN71_$LT$alloc..vec..Vec$LT$T$GT$$u20$as$u20$core..ops..deref..DerefMut$GT$9deref_mut17h1b765c9ef2d02c58E>:
   0:	6802      	ldr	r2, [r0, #0]
   2:	6881      	ldr	r1, [r0, #8]
   4:	4610      	mov	r0, r2
   6:	4770      	bx	lr

Disassembly of section .text._ZN82_$LT$alloc..vec..Vec$LT$T$GT$$u20$as$u20$alloc..vec..SpecFromIter$LT$T$C$I$GT$$GT$9from_iter17h1d2ea151e7a13cb8E:

00000000 <_ZN82_$LT$alloc..vec..Vec$LT$T$GT$$u20$as$u20$alloc..vec..SpecFromIter$LT$T$C$I$GT$$GT$9from_iter17h1d2ea151e7a13cb8E>:
   0:	e92d 4ff0 	stmdb	sp!, {r4, r5, r6, r7, r8, r9, sl, fp, lr}
   4:	b087      	sub	sp, #28
   6:	4680      	mov	r8, r0
   8:	e9d1 5400 	ldrd	r5, r4, [r1]
   c:	2200      	movs	r2, #0
   e:	2004      	movs	r0, #4
  10:	f8d1 b008 	ldr.w	fp, [r1, #8]
  14:	4646      	mov	r6, r8
  16:	e9c8 0200 	strd	r0, r2, [r8]
  1a:	f846 2f08 	str.w	r2, [r6, #8]!
  1e:	b164      	cbz	r4, 3a <_ZN82_$LT$alloc..vec..Vec$LT$T$GT$$u20$as$u20$alloc..vec..SpecFromIter$LT$T$C$I$GT$$GT$9from_iter17h1d2ea151e7a13cb8E+0x3a>
  20:	f1bb 0f00 	cmp.w	fp, #0
  24:	d03a      	beq.n	9c <_ZN82_$LT$alloc..vec..Vec$LT$T$GT$$u20$as$u20$alloc..vec..SpecFromIter$LT$T$C$I$GT$$GT$9from_iter17h1d2ea151e7a13cb8E+0x9c>
  26:	4620      	mov	r0, r4
  28:	4659      	mov	r1, fp
  2a:	f7ff fffe 	bl	0 <__aeabi_uidiv>
  2e:	4602      	mov	r2, r0
  30:	fb00 401b 	mls	r0, r0, fp, r4
  34:	2800      	cmp	r0, #0
  36:	bf18      	it	ne
  38:	3201      	addne	r2, #1
  3a:	4640      	mov	r0, r8
  3c:	2100      	movs	r1, #0
  3e:	f7ff fffe 	bl	0 <_ZN5alloc7raw_vec19RawVec$LT$T$C$A$GT$7reserve17h46e523c3d1c35368E>
  42:	f8d8 7008 	ldr.w	r7, [r8, #8]
  46:	f8d8 0000 	ldr.w	r0, [r8]
  4a:	eb07 0147 	add.w	r1, r7, r7, lsl #1
  4e:	e9cd 6702 	strd	r6, r7, [sp, #8]
  52:	eb00 0a81 	add.w	sl, r0, r1, lsl #2
  56:	f8cd a004 	str.w	sl, [sp, #4]
  5a:	b1dc      	cbz	r4, 94 <_ZN82_$LT$alloc..vec..Vec$LT$T$GT$$u20$as$u20$alloc..vec..SpecFromIter$LT$T$C$I$GT$$GT$9from_iter17h1d2ea151e7a13cb8E+0x94>
  5c:	f10d 0910 	add.w	r9, sp, #16
  60:	9600      	str	r6, [sp, #0]
  62:	4626      	mov	r6, r4
  64:	455c      	cmp	r4, fp
  66:	bf88      	it	hi
  68:	465e      	movhi	r6, fp
  6a:	4648      	mov	r0, r9
  6c:	4629      	mov	r1, r5
  6e:	4632      	mov	r2, r6
  70:	f7ff fffe 	bl	0 <_ZN7raidpir6client13RaidPirClient5query28_$u7b$$u7b$closure$u7d$$u7d$17h3d50a7b92aca9cc6E.llvm.8604145724100684115>
  74:	aa04      	add	r2, sp, #16
  76:	1ba4      	subs	r4, r4, r6
  78:	eb05 0586 	add.w	r5, r5, r6, lsl #2
  7c:	f107 0701 	add.w	r7, r7, #1
  80:	ca07      	ldmia	r2, {r0, r1, r2}
  82:	e88a 0007 	stmia.w	sl, {r0, r1, r2}
  86:	f10a 0a0c 	add.w	sl, sl, #12
  8a:	d1ea      	bne.n	62 <_ZN82_$LT$alloc..vec..Vec$LT$T$GT$$u20$as$u20$alloc..vec..SpecFromIter$LT$T$C$I$GT$$GT$9from_iter17h1d2ea151e7a13cb8E+0x62>
  8c:	9e00      	ldr	r6, [sp, #0]
  8e:	9703      	str	r7, [sp, #12]
  90:	f8cd a004 	str.w	sl, [sp, #4]
  94:	6037      	str	r7, [r6, #0]
  96:	b007      	add	sp, #28
  98:	e8bd 8ff0 	ldmia.w	sp!, {r4, r5, r6, r7, r8, r9, sl, fp, pc}
  9c:	480b      	ldr	r0, [pc, #44]	; (cc <_ZN82_$LT$alloc..vec..Vec$LT$T$GT$$u20$as$u20$alloc..vec..SpecFromIter$LT$T$C$I$GT$$GT$9from_iter17h1d2ea151e7a13cb8E+0xcc>)
  9e:	4a0c      	ldr	r2, [pc, #48]	; (d0 <_ZN82_$LT$alloc..vec..Vec$LT$T$GT$$u20$as$u20$alloc..vec..SpecFromIter$LT$T$C$I$GT$$GT$9from_iter17h1d2ea151e7a13cb8E+0xd0>)
  a0:	4478      	add	r0, pc
  a2:	447a      	add	r2, pc
  a4:	2119      	movs	r1, #25
  a6:	f7ff fffe 	bl	0 <_ZN4core9panicking5panic17he5e75b6cb37a1439E>
  aa:	defe      	udf	#254	; 0xfe
  ac:	4604      	mov	r4, r0
  ae:	e006      	b.n	be <_ZN82_$LT$alloc..vec..Vec$LT$T$GT$$u20$as$u20$alloc..vec..SpecFromIter$LT$T$C$I$GT$$GT$9from_iter17h1d2ea151e7a13cb8E+0xbe>
  b0:	4604      	mov	r4, r0
  b2:	a801      	add	r0, sp, #4
  b4:	9703      	str	r7, [sp, #12]
  b6:	f8cd a004 	str.w	sl, [sp, #4]
  ba:	f7ff fffe 	bl	0 <_ZN4core3ptr13drop_in_place17hdf00d9b3f8e8f954E.llvm.8604145724100684115>
  be:	4640      	mov	r0, r8
  c0:	f7ff fffe 	bl	0 <_ZN82_$LT$alloc..vec..Vec$LT$T$GT$$u20$as$u20$alloc..vec..SpecFromIter$LT$T$C$I$GT$$GT$9from_iter17h1d2ea151e7a13cb8E>
  c4:	4620      	mov	r0, r4
  c6:	f7ff fffe 	bl	0 <_Unwind_Resume>
  ca:	defe      	udf	#254	; 0xfe
  cc:	00000028 	andeq	r0, r0, r8, lsr #32
  d0:	0000002a 	andeq	r0, r0, sl, lsr #32

Disassembly of section .text._ZN88_$LT$alloc..vec..IntoIter$LT$T$GT$$u20$as$u20$core..iter..traits..iterator..Iterator$GT$24__iterator_get_unchecked17hf454428d1e003e35E:

00000000 <_ZN88_$LT$alloc..vec..IntoIter$LT$T$GT$$u20$as$u20$core..iter..traits..iterator..Iterator$GT$24__iterator_get_unchecked17hf454428d1e003e35E>:
   0:	6880      	ldr	r0, [r0, #8]
   2:	5c40      	ldrb	r0, [r0, r1]
   4:	4770      	bx	lr

Disassembly of section .text._ZN105_$LT$rayon..iter..reduce..ReduceFolder$LT$R$C$T$GT$$u20$as$u20$rayon..iter..plumbing..Folder$LT$T$GT$$GT$4full17h2fb7c4734807aeaaE:

00000000 <_ZN105_$LT$rayon..iter..reduce..ReduceFolder$LT$R$C$T$GT$$u20$as$u20$rayon..iter..plumbing..Folder$LT$T$GT$$GT$4full17h2fb7c4734807aeaaE>:
   0:	2000      	movs	r0, #0
   2:	4770      	bx	lr

Disassembly of section .text._ZN105_$LT$rayon..iter..reduce..ReduceFolder$LT$R$C$T$GT$$u20$as$u20$rayon..iter..plumbing..Folder$LT$T$GT$$GT$7consume17hcacb984f6776891aE:

00000000 <_ZN105_$LT$rayon..iter..reduce..ReduceFolder$LT$R$C$T$GT$$u20$as$u20$rayon..iter..plumbing..Folder$LT$T$GT$$GT$7consume17hcacb984f6776891aE>:
   0:	e92d 41f0 	stmdb	sp!, {r4, r5, r6, r7, r8, lr}
   4:	b08e      	sub	sp, #56	; 0x38
   6:	4604      	mov	r4, r0
   8:	e9d1 8000 	ldrd	r8, r0, [r1]
   c:	e9d1 3102 	ldrd	r3, r1, [r1, #8]
  10:	e9d2 5600 	ldrd	r5, r6, [r2]
  14:	6892      	ldr	r2, [r2, #8]
  16:	e9cd 0304 	strd	r0, r3, [sp, #16]
  1a:	a806      	add	r0, sp, #24
  1c:	c062      	stmia	r0!, {r1, r5, r6}
  1e:	a804      	add	r0, sp, #16
  20:	f100 000c 	add.w	r0, r0, #12
  24:	9209      	str	r2, [sp, #36]	; 0x24
  26:	b173      	cbz	r3, 46 <_ZN105_$LT$rayon..iter..reduce..ReduceFolder$LT$R$C$T$GT$$u20$as$u20$rayon..iter..plumbing..Folder$LT$T$GT$$GT$7consume17hcacb984f6776891aE+0x46>
  28:	9a07      	ldr	r2, [sp, #28]
  2a:	2100      	movs	r1, #0
  2c:	9107      	str	r1, [sp, #28]
  2e:	b1a2      	cbz	r2, 5a <_ZN105_$LT$rayon..iter..reduce..ReduceFolder$LT$R$C$T$GT$$u20$as$u20$rayon..iter..plumbing..Folder$LT$T$GT$$GT$7consume17hcacb984f6776891aE+0x5a>
  30:	9f06      	ldr	r7, [sp, #24]
  32:	601a      	str	r2, [r3, #0]
  34:	6053      	str	r3, [r2, #4]
  36:	e9dd 2308 	ldrd	r2, r3, [sp, #32]
  3a:	9205      	str	r2, [sp, #20]
  3c:	e9cd 1108 	strd	r1, r1, [sp, #32]
  40:	18f9      	adds	r1, r7, r3
  42:	9106      	str	r1, [sp, #24]
  44:	e009      	b.n	5a <_ZN105_$LT$rayon..iter..reduce..ReduceFolder$LT$R$C$T$GT$$u20$as$u20$rayon..iter..plumbing..Folder$LT$T$GT$$GT$7consume17hcacb984f6776891aE+0x5a>
  46:	ab04      	add	r3, sp, #16
  48:	e9d0 6500 	ldrd	r6, r5, [r0]
  4c:	6887      	ldr	r7, [r0, #8]
  4e:	cb0e      	ldmia	r3, {r1, r2, r3}
  50:	e880 000e 	stmia.w	r0, {r1, r2, r3}
  54:	e9cd 6504 	strd	r6, r5, [sp, #16]
  58:	9706      	str	r7, [sp, #24]
  5a:	ab04      	add	r3, sp, #16
  5c:	cb0e      	ldmia	r3, {r1, r2, r3}
  5e:	e88d 000e 	stmia.w	sp, {r1, r2, r3}
  62:	f7ff fffe 	bl	0 <_ZN94_$LT$alloc..collections..linked_list..LinkedList$LT$T$GT$$u20$as$u20$core..ops..drop..Drop$GT$4drop17h9cdc234436f462beE>
  66:	e89d 0007 	ldmia.w	sp, {r0, r1, r2}
  6a:	e9c4 8000 	strd	r8, r0, [r4]
  6e:	e9c4 1202 	strd	r1, r2, [r4, #8]
  72:	b00e      	add	sp, #56	; 0x38
  74:	e8bd 81f0 	ldmia.w	sp!, {r4, r5, r6, r7, r8, pc}

Disassembly of section .text._ZN105_$LT$rayon..iter..reduce..ReduceFolder$LT$R$C$T$GT$$u20$as$u20$rayon..iter..plumbing..Folder$LT$T$GT$$GT$8complete17hfc2d4111b587ee7dE:

00000000 <_ZN105_$LT$rayon..iter..reduce..ReduceFolder$LT$R$C$T$GT$$u20$as$u20$rayon..iter..plumbing..Folder$LT$T$GT$$GT$8complete17hfc2d4111b587ee7dE>:
   0:	e9d1 2301 	ldrd	r2, r3, [r1, #4]
   4:	68c9      	ldr	r1, [r1, #12]
   6:	e9c0 2300 	strd	r2, r3, [r0]
   a:	6081      	str	r1, [r0, #8]
   c:	4770      	bx	lr

Disassembly of section .text._ZN106_$LT$rayon..iter..fold..FoldFolder$LT$C$C$ID$C$F$GT$$u20$as$u20$rayon..iter..plumbing..Folder$LT$T$GT$$GT$12consume_iter17h16761a90127ccd7dE:

00000000 <_ZN106_$LT$rayon..iter..fold..FoldFolder$LT$C$C$ID$C$F$GT$$u20$as$u20$rayon..iter..plumbing..Folder$LT$T$GT$$GT$12consume_iter17h16761a90127ccd7dE>:
   0:	e92d 43f0 	stmdb	sp!, {r4, r5, r6, r7, r8, r9, lr}
   4:	b09b      	sub	sp, #108	; 0x6c
   6:	460b      	mov	r3, r1
   8:	4681      	mov	r9, r0
   a:	e893 00f1 	ldmia.w	r3, {r0, r4, r5, r6, r7}
   e:	46e8      	mov	r8, sp
  10:	46c4      	mov	ip, r8
  12:	e88c 00f1 	stmia.w	ip, {r0, r4, r5, r6, r7}
  16:	2400      	movs	r4, #0
  18:	e9d1 6705 	ldrd	r6, r7, [r1, #20]
  1c:	e9d1 5107 	ldrd	r5, r1, [r1, #28]
  20:	e9d2 0300 	ldrd	r0, r3, [r2]
  24:	9116      	str	r1, [sp, #88]	; 0x58
  26:	a90a      	add	r1, sp, #40	; 0x28
  28:	6892      	ldr	r2, [r2, #8]
  2a:	f88d 4038 	strb.w	r4, [sp, #56]	; 0x38
  2e:	e9cd 280c 	strd	r2, r8, [sp, #48]	; 0x30
  32:	e9cd 030a 	strd	r0, r3, [sp, #40]	; 0x28
  36:	f101 0010 	add.w	r0, r1, #16
  3a:	e9cd 7514 	strd	r7, r5, [sp, #80]	; 0x50
  3e:	e9cd 6019 	strd	r6, r0, [sp, #100]	; 0x64
  42:	f101 000c 	add.w	r0, r1, #12
  46:	9018      	str	r0, [sp, #96]	; 0x60
  48:	a810      	add	r0, sp, #64	; 0x40
  4a:	aa14      	add	r2, sp, #80	; 0x50
  4c:	ab18      	add	r3, sp, #96	; 0x60
  4e:	f7ff fffe 	bl	0 <_ZN97_$LT$core..iter..adapters..Map$LT$I$C$F$GT$$u20$as$u20$core..iter..traits..iterator..Iterator$GT$8try_fold17he03ab7bb9ba88117E>
  52:	aa11      	add	r2, sp, #68	; 0x44
  54:	ab06      	add	r3, sp, #24
  56:	ca07      	ldmia	r2, {r0, r1, r2}
  58:	c307      	stmia	r3!, {r0, r1, r2}
  5a:	4648      	mov	r0, r9
  5c:	e898 00ae 	ldmia.w	r8, {r1, r2, r3, r5, r7}
  60:	c0ae      	stmia	r0!, {r1, r2, r3, r5, r7}
  62:	aa06      	add	r2, sp, #24
  64:	ca07      	ldmia	r2, {r0, r1, r2}
  66:	e9c9 6005 	strd	r6, r0, [r9, #20]
  6a:	e9c9 1207 	strd	r1, r2, [r9, #28]
  6e:	b01b      	add	sp, #108	; 0x6c
  70:	e8bd 83f0 	ldmia.w	sp!, {r4, r5, r6, r7, r8, r9, pc}
  74:	4604      	mov	r4, r0
  76:	4668      	mov	r0, sp
  78:	f7ff fffe 	bl	0 <_ZN106_$LT$rayon..iter..fold..FoldFolder$LT$C$C$ID$C$F$GT$$u20$as$u20$rayon..iter..plumbing..Folder$LT$T$GT$$GT$12consume_iter17h16761a90127ccd7dE>
  7c:	4620      	mov	r0, r4
  7e:	f7ff fffe 	bl	0 <_Unwind_Resume>
  82:	defe      	udf	#254	; 0xfe

Disassembly of section .text._ZN106_$LT$rayon..iter..fold..FoldFolder$LT$C$C$ID$C$F$GT$$u20$as$u20$rayon..iter..plumbing..Folder$LT$T$GT$$GT$8complete17he903bba3378406dcE:

00000000 <_ZN106_$LT$rayon..iter..fold..FoldFolder$LT$C$C$ID$C$F$GT$$u20$as$u20$rayon..iter..plumbing..Folder$LT$T$GT$$GT$8complete17he903bba3378406dcE>:
   0:	e92d 41f0 	stmdb	sp!, {r4, r5, r6, r7, r8, lr}
   4:	b08e      	sub	sp, #56	; 0x38
   6:	1d0b      	adds	r3, r1, #4
   8:	4680      	mov	r8, r0
   a:	cb0d      	ldmia	r3, {r0, r2, r3}
   c:	e88d 000d 	stmia.w	sp, {r0, r2, r3}
  10:	e9d1 0206 	ldrd	r0, r2, [r1, #24]
  14:	6a09      	ldr	r1, [r1, #32]
  16:	9106      	str	r1, [sp, #24]
  18:	2104      	movs	r1, #4
  1a:	e9cd 0204 	strd	r0, r2, [sp, #16]
  1e:	2014      	movs	r0, #20
  20:	f7ff fffe 	bl	0 <__rust_alloc>
  24:	b3b8      	cbz	r0, 96 <_ZN106_$LT$rayon..iter..fold..FoldFolder$LT$C$C$ID$C$F$GT$$u20$as$u20$rayon..iter..plumbing..Folder$LT$T$GT$$GT$8complete17he903bba3378406dcE+0x96>
  26:	af04      	add	r7, sp, #16
  28:	4601      	mov	r1, r0
  2a:	e89d 0015 	ldmia.w	sp, {r0, r2, r4}
  2e:	2300      	movs	r3, #0
  30:	f101 0c08 	add.w	ip, r1, #8
  34:	cfe0      	ldmia	r7, {r5, r6, r7}
  36:	e9c1 3300 	strd	r3, r3, [r1]
  3a:	e88c 00e0 	stmia.w	ip, {r5, r6, r7}
  3e:	f10d 0c10 	add.w	ip, sp, #16
  42:	e88c 0015 	stmia.w	ip, {r0, r2, r4}
  46:	f04f 0001 	mov.w	r0, #1
  4a:	9009      	str	r0, [sp, #36]	; 0x24
  4c:	a804      	add	r0, sp, #16
  4e:	f100 000c 	add.w	r0, r0, #12
  52:	e9cd 1107 	strd	r1, r1, [sp, #28]
  56:	b15a      	cbz	r2, 70 <_ZN106_$LT$rayon..iter..fold..FoldFolder$LT$C$C$ID$C$F$GT$$u20$as$u20$rayon..iter..plumbing..Folder$LT$T$GT$$GT$8complete17he903bba3378406dcE+0x70>
  58:	9307      	str	r3, [sp, #28]
  5a:	6011      	str	r1, [r2, #0]
  5c:	9d06      	ldr	r5, [sp, #24]
  5e:	e9dd 7608 	ldrd	r7, r6, [sp, #32]
  62:	604a      	str	r2, [r1, #4]
  64:	19a9      	adds	r1, r5, r6
  66:	9705      	str	r7, [sp, #20]
  68:	e9cd 3308 	strd	r3, r3, [sp, #32]
  6c:	9106      	str	r1, [sp, #24]
  6e:	e009      	b.n	84 <_ZN106_$LT$rayon..iter..fold..FoldFolder$LT$C$C$ID$C$F$GT$$u20$as$u20$rayon..iter..plumbing..Folder$LT$T$GT$$GT$8complete17he903bba3378406dcE+0x84>
  70:	ab04      	add	r3, sp, #16
  72:	e9d0 7600 	ldrd	r7, r6, [r0]
  76:	6885      	ldr	r5, [r0, #8]
  78:	cb0e      	ldmia	r3, {r1, r2, r3}
  7a:	e880 000e 	stmia.w	r0, {r1, r2, r3}
  7e:	e9cd 7604 	strd	r7, r6, [sp, #16]
  82:	9506      	str	r5, [sp, #24]
  84:	ab04      	add	r3, sp, #16
  86:	cb0e      	ldmia	r3, {r1, r2, r3}
  88:	e888 000e 	stmia.w	r8, {r1, r2, r3}
  8c:	f7ff fffe 	bl	0 <_ZN94_$LT$alloc..collections..linked_list..LinkedList$LT$T$GT$$u20$as$u20$core..ops..drop..Drop$GT$4drop17h9cdc234436f462beE>
  90:	b00e      	add	sp, #56	; 0x38
  92:	e8bd 81f0 	ldmia.w	sp!, {r4, r5, r6, r7, r8, pc}
  96:	2014      	movs	r0, #20
  98:	2104      	movs	r1, #4
  9a:	f7ff fffe 	bl	0 <_ZN5alloc5alloc18handle_alloc_error17ha86af5c1874b681eE>
  9e:	defe      	udf	#254	; 0xfe

Disassembly of section .text._ZN109_$LT$rayon..iter..reduce..ReduceConsumer$LT$R$C$ID$GT$$u20$as$u20$rayon..iter..plumbing..Reducer$LT$T$GT$$GT$6reduce17hf24dfaeb072b8f94E:

00000000 <_ZN109_$LT$rayon..iter..reduce..ReduceConsumer$LT$R$C$ID$GT$$u20$as$u20$rayon..iter..plumbing..Reducer$LT$T$GT$$GT$6reduce17hf24dfaeb072b8f94E>:
   0:	b5b0      	push	{r4, r5, r7, lr}
   2:	b08a      	sub	sp, #40	; 0x28
   4:	990e      	ldr	r1, [sp, #56]	; 0x38
   6:	e9d3 c200 	ldrd	ip, r2, [r3]
   a:	e9d1 e400 	ldrd	lr, r4, [r1]
   e:	6889      	ldr	r1, [r1, #8]
  10:	689b      	ldr	r3, [r3, #8]
  12:	e9cd c200 	strd	ip, r2, [sp]
  16:	e9cd 3e02 	strd	r3, lr, [sp, #8]
  1a:	e9cd 4104 	strd	r4, r1, [sp, #16]
  1e:	4669      	mov	r1, sp
  20:	f101 010c 	add.w	r1, r1, #12
  24:	b182      	cbz	r2, 48 <_ZN109_$LT$rayon..iter..reduce..ReduceConsumer$LT$R$C$ID$GT$$u20$as$u20$rayon..iter..plumbing..Reducer$LT$T$GT$$GT$6reduce17hf24dfaeb072b8f94E+0x48>
  26:	9b03      	ldr	r3, [sp, #12]
  28:	f04f 0c00 	mov.w	ip, #0
  2c:	f8cd c00c 	str.w	ip, [sp, #12]
  30:	b1a3      	cbz	r3, 5c <_ZN109_$LT$rayon..iter..reduce..ReduceConsumer$LT$R$C$ID$GT$$u20$as$u20$rayon..iter..plumbing..Reducer$LT$T$GT$$GT$6reduce17hf24dfaeb072b8f94E+0x5c>
  32:	9d02      	ldr	r5, [sp, #8]
  34:	6013      	str	r3, [r2, #0]
  36:	605a      	str	r2, [r3, #4]
  38:	e9dd 2304 	ldrd	r2, r3, [sp, #16]
  3c:	9201      	str	r2, [sp, #4]
  3e:	18ea      	adds	r2, r5, r3
  40:	e9cd cc04 	strd	ip, ip, [sp, #16]
  44:	9202      	str	r2, [sp, #8]
  46:	e009      	b.n	5c <_ZN109_$LT$rayon..iter..reduce..ReduceConsumer$LT$R$C$ID$GT$$u20$as$u20$rayon..iter..plumbing..Reducer$LT$T$GT$$GT$6reduce17hf24dfaeb072b8f94E+0x5c>
  48:	e89d 001c 	ldmia.w	sp, {r2, r3, r4}
  4c:	e9d1 ce00 	ldrd	ip, lr, [r1]
  50:	688d      	ldr	r5, [r1, #8]
  52:	e881 001c 	stmia.w	r1, {r2, r3, r4}
  56:	e9cd ce00 	strd	ip, lr, [sp]
  5a:	9502      	str	r5, [sp, #8]
  5c:	e89d 002c 	ldmia.w	sp, {r2, r3, r5}
  60:	c02c      	stmia	r0!, {r2, r3, r5}
  62:	4608      	mov	r0, r1
  64:	f7ff fffe 	bl	0 <_ZN94_$LT$alloc..collections..linked_list..LinkedList$LT$T$GT$$u20$as$u20$core..ops..drop..Drop$GT$4drop17h9cdc234436f462beE>
  68:	b00a      	add	sp, #40	; 0x28
  6a:	bdb0      	pop	{r4, r5, r7, pc}

Disassembly of section .text._ZN10rayon_core8registry9in_worker17h1afbf4464540b569E:

00000000 <_ZN10rayon_core8registry9in_worker17h1afbf4464540b569E>:
   0:	e92d 4ff0 	stmdb	sp!, {r4, r5, r6, r7, r8, r9, sl, fp, lr}
   4:	b0af      	sub	sp, #188	; 0xbc
   6:	4688      	mov	r8, r1
   8:	4681      	mov	r9, r0
   a:	f7ff fffe 	bl	0 <_ZN10rayon_core8registry19WORKER_THREAD_STATE7__getit17hff623596f561e726E>
   e:	2800      	cmp	r0, #0
  10:	f000 810b 	beq.w	22a <_ZN10rayon_core8registry9in_worker17h1afbf4464540b569E+0x22a>
  14:	f8d0 a000 	ldr.w	sl, [r0]
  18:	f1ba 0f00 	cmp.w	sl, #0
  1c:	f000 8084 	beq.w	128 <_ZN10rayon_core8registry9in_worker17h1afbf4464540b569E+0x128>
  20:	f8d8 0020 	ldr.w	r0, [r8, #32]
  24:	f108 0230 	add.w	r2, r8, #48	; 0x30
  28:	9005      	str	r0, [sp, #20]
  2a:	ab08      	add	r3, sp, #32
  2c:	f8d8 0024 	ldr.w	r0, [r8, #36]	; 0x24
  30:	af0c      	add	r7, sp, #48	; 0x30
  32:	9004      	str	r0, [sp, #16]
  34:	f8d8 0028 	ldr.w	r0, [r8, #40]	; 0x28
  38:	9007      	str	r0, [sp, #28]
  3a:	f8d8 002c 	ldr.w	r0, [r8, #44]	; 0x2c
  3e:	9006      	str	r0, [sp, #24]
  40:	ca07      	ldmia	r2, {r0, r1, r2}
  42:	c307      	stmia	r3!, {r0, r1, r2}
  44:	2100      	movs	r1, #0
  46:	f8da 0098 	ldr.w	r0, [sl, #152]	; 0x98
  4a:	900e      	str	r0, [sp, #56]	; 0x38
  4c:	f10a 009c 	add.w	r0, sl, #156	; 0x9c
  50:	f88d 103c 	strb.w	r1, [sp, #60]	; 0x3c
  54:	e9cd 100c 	strd	r1, r0, [sp, #48]	; 0x30
  58:	f107 0010 	add.w	r0, r7, #16
  5c:	e8b8 005c 	ldmia.w	r8!, {r2, r3, r4, r6}
  60:	c05c      	stmia	r0!, {r2, r3, r4, r6}
  62:	e898 005c 	ldmia.w	r8, {r2, r3, r4, r6}
  66:	c05c      	stmia	r0!, {r2, r3, r4, r6}
  68:	4656      	mov	r6, sl
  6a:	f856 0f88 	ldr.w	r0, [r6, #136]!
  6e:	9118      	str	r1, [sp, #96]	; 0x60
  70:	f8d0 4084 	ldr.w	r4, [r0, #132]	; 0x84
  74:	f8d0 8080 	ldr.w	r8, [r0, #128]	; 0x80
  78:	f3bf 8f5b 	dmb	ish
  7c:	6830      	ldr	r0, [r6, #0]
  7e:	f8d0 b084 	ldr.w	fp, [r0, #132]	; 0x84
  82:	f8d0 0080 	ldr.w	r0, [r0, #128]	; 0x80
  86:	f3bf 8f5b 	dmb	ish
  8a:	ebab 0100 	sub.w	r1, fp, r0
  8e:	68b0      	ldr	r0, [r6, #8]
  90:	4281      	cmp	r1, r0
  92:	db05      	blt.n	a0 <_ZN10rayon_core8registry9in_worker17h1afbf4464540b569E+0xa0>
  94:	0041      	lsls	r1, r0, #1
  96:	4630      	mov	r0, r6
  98:	f7ff fffe 	bl	0 <_ZN15crossbeam_deque5deque15Worker$LT$T$GT$6resize17h31cf7956d1cbeabbE.llvm.15082459741529278717>
  9c:	f8da 0090 	ldr.w	r0, [sl, #144]	; 0x90
  a0:	3801      	subs	r0, #1
  a2:	eba4 0c08 	sub.w	ip, r4, r8
  a6:	4c7d      	ldr	r4, [pc, #500]	; (29c <_ZN10rayon_core8registry9in_worker17h1afbf4464540b569E+0x29c>)
  a8:	ea00 000b 	and.w	r0, r0, fp
  ac:	f8da 108c 	ldr.w	r1, [sl, #140]	; 0x8c
  b0:	447c      	add	r4, pc
  b2:	f841 7030 	str.w	r7, [r1, r0, lsl #3]
  b6:	eb01 00c0 	add.w	r0, r1, r0, lsl #3
  ba:	f10b 0101 	add.w	r1, fp, #1
  be:	6044      	str	r4, [r0, #4]
  c0:	f3bf 8f5b 	dmb	ish
  c4:	f8da 0088 	ldr.w	r0, [sl, #136]	; 0x88
  c8:	f3bf 8f5b 	dmb	ish
  cc:	f8c0 1084 	str.w	r1, [r0, #132]	; 0x84
  d0:	f8da 009c 	ldr.w	r0, [sl, #156]	; 0x9c
  d4:	f100 02e8 	add.w	r2, r0, #232	; 0xe8
  d8:	30d4      	adds	r0, #212	; 0xd4
  da:	e001      	b.n	e0 <_ZN10rayon_core8registry9in_worker17h1afbf4464540b569E+0xe0>
  dc:	f3bf 8f2f 	clrex
  e0:	6813      	ldr	r3, [r2, #0]
  e2:	f3bf 8f5b 	dmb	ish
  e6:	02d9      	lsls	r1, r3, #11
  e8:	f100 8099 	bmi.w	21e <_ZN10rayon_core8registry9in_worker17h1afbf4464540b569E+0x21e>
  ec:	e852 1f00 	ldrex	r1, [r2]
  f0:	4299      	cmp	r1, r3
  f2:	d1f3      	bne.n	dc <_ZN10rayon_core8registry9in_worker17h1afbf4464540b569E+0xdc>
  f4:	f503 1180 	add.w	r1, r3, #1048576	; 0x100000
  f8:	f3bf 8f5b 	dmb	ish
  fc:	e842 1500 	strex	r5, r1, [r2]
 100:	b125      	cbz	r5, 10c <_ZN10rayon_core8registry9in_worker17h1afbf4464540b569E+0x10c>
 102:	e852 5f00 	ldrex	r5, [r2]
 106:	429d      	cmp	r5, r3
 108:	d0f8      	beq.n	fc <_ZN10rayon_core8registry9in_worker17h1afbf4464540b569E+0xfc>
 10a:	e7e7      	b.n	dc <_ZN10rayon_core8registry9in_worker17h1afbf4464540b569E+0xdc>
 10c:	f3bf 8f5b 	dmb	ish
 110:	460a      	mov	r2, r1
 112:	46a3      	mov	fp, r4
 114:	f36f 229f 	bfc	r2, #10, #22
 118:	b33a      	cbz	r2, 16a <_ZN10rayon_core8registry9in_worker17h1afbf4464540b569E+0x16a>
 11a:	f1bc 0f00 	cmp.w	ip, #0
 11e:	dd1d      	ble.n	15c <_ZN10rayon_core8registry9in_worker17h1afbf4464540b569E+0x15c>
 120:	2101      	movs	r1, #1
 122:	f7ff fffe 	bl	0 <_ZN10rayon_core5sleep5Sleep16wake_any_threads17h3c0b629dbe18f96bE>
 126:	e020      	b.n	44 <_ZN10rayon_core8registry15global_registry17h4388ab73a8d9a316E+0x44>
 128:	f7ff fffe 	bl	0 <_ZN10rayon_core8registry15global_registry17h4388ab73a8d9a316E>
 12c:	6800      	ldr	r0, [r0, #0]
 12e:	aa1e      	add	r2, sp, #120	; 0x78
 130:	4959      	ldr	r1, [pc, #356]	; (298 <_ZN10rayon_core8registry9in_worker17h1afbf4464540b569E+0x298>)
 132:	3040      	adds	r0, #64	; 0x40
 134:	900c      	str	r0, [sp, #48]	; 0x30
 136:	e8b8 00f8 	ldmia.w	r8!, {r3, r4, r5, r6, r7}
 13a:	4610      	mov	r0, r2
 13c:	4479      	add	r1, pc
 13e:	c0f8      	stmia	r0!, {r3, r4, r5, r6, r7}
 140:	e8b8 00f8 	ldmia.w	r8!, {r3, r4, r5, r6, r7}
 144:	c0f8      	stmia	r0!, {r3, r4, r5, r6, r7}
 146:	e898 00f8 	ldmia.w	r8, {r3, r4, r5, r6, r7}
 14a:	c0f8      	stmia	r0!, {r3, r4, r5, r6, r7}
 14c:	a80c      	add	r0, sp, #48	; 0x30
 14e:	902d      	str	r0, [sp, #180]	; 0xb4
 150:	4648      	mov	r0, r9
 152:	f7ff fffe 	bl	0 <_ZN3std6thread5local17LocalKey$LT$T$GT$4with17hd50e131e1b58904fE>
 156:	b02f      	add	sp, #188	; 0xbc
 158:	e8bd 8ff0 	ldmia.w	sp!, {r4, r5, r6, r7, r8, r9, sl, fp, pc}
 15c:	f3c1 2189 	ubfx	r1, r1, #10, #10
 160:	4291      	cmp	r1, r2
 162:	d102      	bne.n	16a <_ZN10rayon_core8registry9in_worker17h1afbf4464540b569E+0x16a>
 164:	2101      	movs	r1, #1
 166:	f7ff fffe 	bl	0 <_ZN10rayon_core5sleep5Sleep16wake_any_threads17h3c0b629dbe18f96bE>
 16a:	9804      	ldr	r0, [sp, #16]
 16c:	e9dd 1508 	ldrd	r1, r5, [sp, #32]
 170:	e9d0 2300 	ldrd	r2, r3, [r0]
 174:	9805      	ldr	r0, [sp, #20]
 176:	9c0a      	ldr	r4, [sp, #40]	; 0x28
 178:	6800      	ldr	r0, [r0, #0]
 17a:	9420      	str	r4, [sp, #128]	; 0x80
 17c:	e9cd 151e 	strd	r1, r5, [sp, #120]	; 0x78
 180:	9907      	ldr	r1, [sp, #28]
 182:	f10d 0878 	add.w	r8, sp, #120	; 0x78
 186:	9100      	str	r1, [sp, #0]
 188:	9906      	ldr	r1, [sp, #24]
 18a:	e9cd 1801 	strd	r1, r8, [sp, #4]
 18e:	2100      	movs	r1, #0
 190:	f7ff fffe 	bl	0 <_ZN5rayon4iter8plumbing24bridge_producer_consumer6helper17h5951f102c24bee8eE>
 194:	e9cd 011c 	strd	r0, r1, [sp, #112]	; 0x70
 198:	980c      	ldr	r0, [sp, #48]	; 0x30
 19a:	f3bf 8f5b 	dmb	ish
 19e:	2803      	cmp	r0, #3
 1a0:	d013      	beq.n	1ca <_ZN10rayon_core8registry9in_worker17h1afbf4464540b569E+0x1ca>
 1a2:	4630      	mov	r0, r6
 1a4:	f7ff fffe 	bl	0 <_ZN15crossbeam_deque5deque15Worker$LT$T$GT$3pop17h80734e944a6ab7b4E>
 1a8:	b129      	cbz	r1, 1b6 <_ZN10rayon_core8registry9in_worker17h1afbf4464540b569E+0x1b6>
 1aa:	42b8      	cmp	r0, r7
 1ac:	bf08      	it	eq
 1ae:	4559      	cmpeq	r1, fp
 1b0:	d01d      	beq.n	1ee <_ZN10rayon_core8registry9in_worker17h1afbf4464540b569E+0x1ee>
 1b2:	4788      	blx	r1
 1b4:	e7f0      	b.n	198 <_ZN10rayon_core8registry9in_worker17h1afbf4464540b569E+0x198>
 1b6:	980c      	ldr	r0, [sp, #48]	; 0x30
 1b8:	f3bf 8f5b 	dmb	ish
 1bc:	2803      	cmp	r0, #3
 1be:	d004      	beq.n	1ca <_ZN10rayon_core8registry9in_worker17h1afbf4464540b569E+0x1ca>
 1c0:	2600      	movs	r6, #0
 1c2:	a90c      	add	r1, sp, #48	; 0x30
 1c4:	4650      	mov	r0, sl
 1c6:	f7ff fffe 	bl	0 <_ZN10rayon_core8registry12WorkerThread15wait_until_cold17h95a5b16b89273158E>
 1ca:	e9dd 371c 	ldrd	r3, r7, [sp, #112]	; 0x70
 1ce:	e9dd 2018 	ldrd	r2, r0, [sp, #96]	; 0x60
 1d2:	991a      	ldr	r1, [sp, #104]	; 0x68
 1d4:	2a01      	cmp	r2, #1
 1d6:	e9cd 371e 	strd	r3, r7, [sp, #120]	; 0x78
 1da:	d122      	bne.n	222 <_ZN10rayon_core8registry9in_worker17h1afbf4464540b569E+0x222>
 1dc:	e9c9 3700 	strd	r3, r7, [r9]
 1e0:	f8c9 0008 	str.w	r0, [r9, #8]
 1e4:	f8c9 100c 	str.w	r1, [r9, #12]
 1e8:	b02f      	add	sp, #188	; 0xbc
 1ea:	e8bd 8ff0 	ldmia.w	sp!, {r4, r5, r6, r7, r8, r9, sl, fp, pc}
 1ee:	cf6e      	ldmia	r7!, {r1, r2, r3, r5, r6}
 1f0:	4640      	mov	r0, r8
 1f2:	c06e      	stmia	r0!, {r1, r2, r3, r5, r6}
 1f4:	cf6e      	ldmia	r7!, {r1, r2, r3, r5, r6}
 1f6:	c06e      	stmia	r0!, {r1, r2, r3, r5, r6}
 1f8:	e897 006e 	ldmia.w	r7, {r1, r2, r3, r5, r6}
 1fc:	c06e      	stmia	r0!, {r1, r2, r3, r5, r6}
 1fe:	2601      	movs	r6, #1
 200:	4640      	mov	r0, r8
 202:	2100      	movs	r1, #0
 204:	f7ff fffe 	bl	0 <_ZN10rayon_core3job25StackJob$LT$L$C$F$C$R$GT$10run_inline17h2d32b601bc09e1a5E>
 208:	e9dd 231c 	ldrd	r2, r3, [sp, #112]	; 0x70
 20c:	e9c9 2300 	strd	r2, r3, [r9]
 210:	f8c9 0008 	str.w	r0, [r9, #8]
 214:	f8c9 100c 	str.w	r1, [r9, #12]
 218:	b02f      	add	sp, #188	; 0xbc
 21a:	e8bd 8ff0 	ldmia.w	sp!, {r4, r5, r6, r7, r8, r9, sl, fp, pc}
 21e:	4619      	mov	r1, r3
 220:	e776      	b.n	110 <_ZN10rayon_core8registry9in_worker17h1afbf4464540b569E+0x110>
 222:	b172      	cbz	r2, 242 <_ZN10rayon_core8registry9in_worker17h1afbf4464540b569E+0x242>
 224:	f7ff fffe 	bl	0 <_ZN10rayon_core6unwind16resume_unwinding17hc8cbe5894cf13d66E>
 228:	e026      	b.n	278 <_ZN10rayon_core8registry9in_worker17h1afbf4464540b569E+0x278>
 22a:	481f      	ldr	r0, [pc, #124]	; (2a8 <_ZN10rayon_core8registry9in_worker17h1afbf4464540b569E+0x2a8>)
 22c:	aa1e      	add	r2, sp, #120	; 0x78
 22e:	4b1f      	ldr	r3, [pc, #124]	; (2ac <_ZN10rayon_core8registry9in_worker17h1afbf4464540b569E+0x2ac>)
 230:	491f      	ldr	r1, [pc, #124]	; (2b0 <_ZN10rayon_core8registry9in_worker17h1afbf4464540b569E+0x2b0>)
 232:	4478      	add	r0, pc
 234:	447b      	add	r3, pc
 236:	4479      	add	r1, pc
 238:	9100      	str	r1, [sp, #0]
 23a:	2146      	movs	r1, #70	; 0x46
 23c:	f7ff fffe 	bl	0 <_ZN4core6result13unwrap_failed17h6876d5cfd943f5b2E>
 240:	defe      	udf	#254	; 0xfe
 242:	4817      	ldr	r0, [pc, #92]	; (2a0 <_ZN10rayon_core8registry9in_worker17h1afbf4464540b569E+0x2a0>)
 244:	4a17      	ldr	r2, [pc, #92]	; (2a4 <_ZN10rayon_core8registry9in_worker17h1afbf4464540b569E+0x2a4>)
 246:	4478      	add	r0, pc
 248:	447a      	add	r2, pc
 24a:	2128      	movs	r1, #40	; 0x28
 24c:	f7ff fffe 	bl	0 <_ZN3std9panicking11begin_panic17hcd9d16c2595f8af4E>
 250:	e012      	b.n	278 <_ZN10rayon_core8registry9in_worker17h1afbf4464540b569E+0x278>
 252:	4604      	mov	r4, r0
 254:	a81e      	add	r0, sp, #120	; 0x78
 256:	f7ff fffe 	bl	0 <_ZN10rayon_core8registry9in_worker17h1afbf4464540b569E>
 25a:	e018      	b.n	28e <_ZN10rayon_core8registry9in_worker17h1afbf4464540b569E+0x28e>
 25c:	4604      	mov	r4, r0
 25e:	a81c      	add	r0, sp, #112	; 0x70
 260:	f7ff fffe 	bl	0 <_ZN10rayon_core8registry9in_worker17h1afbf4464540b569E>
 264:	b186      	cbz	r6, 288 <_ZN10rayon_core8registry9in_worker17h1afbf4464540b569E+0x288>
 266:	e012      	b.n	28e <_ZN10rayon_core8registry9in_worker17h1afbf4464540b569E+0x28e>
 268:	f7ff fffe 	bl	0 <_ZN3std9panicking3try7cleanup17he668a406887398feE>
 26c:	4602      	mov	r2, r0
 26e:	460b      	mov	r3, r1
 270:	a90c      	add	r1, sp, #48	; 0x30
 272:	4650      	mov	r0, sl
 274:	f7ff fffe 	bl	0 <_ZN10rayon_core4join23join_recover_from_panic17hca11631bc082a075E>
 278:	defe      	udf	#254	; 0xfe
 27a:	e7ff      	b.n	27c <_ZN10rayon_core8registry9in_worker17h1afbf4464540b569E+0x27c>
 27c:	4604      	mov	r4, r0
 27e:	e003      	b.n	288 <_ZN10rayon_core8registry9in_worker17h1afbf4464540b569E+0x288>
 280:	4604      	mov	r4, r0
 282:	a81c      	add	r0, sp, #112	; 0x70
 284:	f7ff fffe 	bl	0 <_ZN10rayon_core8registry9in_worker17h1afbf4464540b569E>
 288:	a80c      	add	r0, sp, #48	; 0x30
 28a:	f7ff fffe 	bl	0 <_ZN10rayon_core8registry9in_worker17h1afbf4464540b569E>
 28e:	4620      	mov	r0, r4
 290:	f7ff fffe 	bl	0 <_Unwind_Resume>
 294:	defe      	udf	#254	; 0xfe
 296:	bf00      	nop
 298:	00000158 	andeq	r0, r0, r8, asr r1
 29c:	000001e8 	andeq	r0, r0, r8, ror #3
 2a0:	00000056 	andeq	r0, r0, r6, asr r0
 2a4:	00000058 	andeq	r0, r0, r8, asr r0
 2a8:	00000072 	andeq	r0, r0, r2, ror r0
 2ac:	00000074 	andeq	r0, r0, r4, ror r0
 2b0:	00000076 	andeq	r0, r0, r6, ror r0

Disassembly of section .text._ZN10rayon_core8registry9in_worker17h405d540f20eaaa6fE:

00000000 <_ZN10rayon_core8registry9in_worker17h405d540f20eaaa6fE>:
   0:	e92d 4ff0 	stmdb	sp!, {r4, r5, r6, r7, r8, r9, sl, fp, lr}
   4:	b0b1      	sub	sp, #196	; 0xc4
   6:	4605      	mov	r5, r0
   8:	f7ff fffe 	bl	0 <_ZN10rayon_core8registry19WORKER_THREAD_STATE7__getit17hff623596f561e726E>
   c:	2800      	cmp	r0, #0
   e:	f000 80ee 	beq.w	1ee <_ZN10rayon_core8registry9in_worker17h405d540f20eaaa6fE+0x1ee>
  12:	6802      	ldr	r2, [r0, #0]
  14:	2a00      	cmp	r2, #0
  16:	f000 8086 	beq.w	126 <_ZN10rayon_core8registry9in_worker17h405d540f20eaaa6fE+0x126>
  1a:	6a68      	ldr	r0, [r5, #36]	; 0x24
  1c:	a908      	add	r1, sp, #32
  1e:	9004      	str	r0, [sp, #16]
  20:	f04f 0c00 	mov.w	ip, #0
  24:	6aa8      	ldr	r0, [r5, #40]	; 0x28
  26:	f10d 0a38 	add.w	sl, sp, #56	; 0x38
  2a:	9003      	str	r0, [sp, #12]
  2c:	f105 002c 	add.w	r0, r5, #44	; 0x2c
  30:	9105      	str	r1, [sp, #20]
  32:	9207      	str	r2, [sp, #28]
  34:	e890 00dc 	ldmia.w	r0, {r2, r3, r4, r6, r7}
  38:	c1dc      	stmia	r1!, {r2, r3, r4, r6, r7}
  3a:	9f07      	ldr	r7, [sp, #28]
  3c:	6c28      	ldr	r0, [r5, #64]	; 0x40
  3e:	9006      	str	r0, [sp, #24]
  40:	f8d7 0098 	ldr.w	r0, [r7, #152]	; 0x98
  44:	46bb      	mov	fp, r7
  46:	9010      	str	r0, [sp, #64]	; 0x40
  48:	f107 009c 	add.w	r0, r7, #156	; 0x9c
  4c:	f88d c044 	strb.w	ip, [sp, #68]	; 0x44
  50:	e9cd c00e 	strd	ip, r0, [sp, #56]	; 0x38
  54:	f10a 0010 	add.w	r0, sl, #16
  58:	cd5c      	ldmia	r5!, {r2, r3, r4, r6}
  5a:	c05c      	stmia	r0!, {r2, r3, r4, r6}
  5c:	e895 005e 	ldmia.w	r5, {r1, r2, r3, r4, r6}
  60:	c05e      	stmia	r0!, {r1, r2, r3, r4, r6}
  62:	f85b 0f88 	ldr.w	r0, [fp, #136]!
  66:	f8cd c06c 	str.w	ip, [sp, #108]	; 0x6c
  6a:	f8d0 6084 	ldr.w	r6, [r0, #132]	; 0x84
  6e:	f8d0 8080 	ldr.w	r8, [r0, #128]	; 0x80
  72:	f3bf 8f5b 	dmb	ish
  76:	f8db 0000 	ldr.w	r0, [fp]
  7a:	f8d0 9084 	ldr.w	r9, [r0, #132]	; 0x84
  7e:	f8d0 0080 	ldr.w	r0, [r0, #128]	; 0x80
  82:	f3bf 8f5b 	dmb	ish
  86:	eba9 0100 	sub.w	r1, r9, r0
  8a:	f8db 0008 	ldr.w	r0, [fp, #8]
  8e:	4281      	cmp	r1, r0
  90:	db05      	blt.n	9e <_ZN10rayon_core8registry9in_worker17h405d540f20eaaa6fE+0x9e>
  92:	0041      	lsls	r1, r0, #1
  94:	4658      	mov	r0, fp
  96:	f7ff fffe 	bl	0 <_ZN15crossbeam_deque5deque15Worker$LT$T$GT$6resize17h31cf7956d1cbeabbE.llvm.15082459741529278717>
  9a:	f8d7 0090 	ldr.w	r0, [r7, #144]	; 0x90
  9e:	4d6a      	ldr	r5, [pc, #424]	; (248 <_ZN10rayon_core8registry9in_worker17h405d540f20eaaa6fE+0x248>)
  a0:	3801      	subs	r0, #1
  a2:	f8d7 108c 	ldr.w	r1, [r7, #140]	; 0x8c
  a6:	ea00 0009 	and.w	r0, r0, r9
  aa:	447d      	add	r5, pc
  ac:	eba6 0c08 	sub.w	ip, r6, r8
  b0:	f841 a030 	str.w	sl, [r1, r0, lsl #3]
  b4:	eb01 00c0 	add.w	r0, r1, r0, lsl #3
  b8:	f109 0101 	add.w	r1, r9, #1
  bc:	6045      	str	r5, [r0, #4]
  be:	f3bf 8f5b 	dmb	ish
  c2:	f8d7 0088 	ldr.w	r0, [r7, #136]	; 0x88
  c6:	f3bf 8f5b 	dmb	ish
  ca:	f8c0 1084 	str.w	r1, [r0, #132]	; 0x84
  ce:	f8d7 009c 	ldr.w	r0, [r7, #156]	; 0x9c
  d2:	f100 02e8 	add.w	r2, r0, #232	; 0xe8
  d6:	30d4      	adds	r0, #212	; 0xd4
  d8:	e001      	b.n	de <_ZN10rayon_core8registry9in_worker17h405d540f20eaaa6fE+0xde>
  da:	f3bf 8f2f 	clrex
  de:	6813      	ldr	r3, [r2, #0]
  e0:	f3bf 8f5b 	dmb	ish
  e4:	02d9      	lsls	r1, r3, #11
  e6:	f100 8080 	bmi.w	1ea <_ZN10rayon_core8registry9in_worker17h405d540f20eaaa6fE+0x1ea>
  ea:	e852 1f00 	ldrex	r1, [r2]
  ee:	4299      	cmp	r1, r3
  f0:	d1f3      	bne.n	da <_ZN10rayon_core8registry9in_worker17h405d540f20eaaa6fE+0xda>
  f2:	f503 1180 	add.w	r1, r3, #1048576	; 0x100000
  f6:	f3bf 8f5b 	dmb	ish
  fa:	e842 1400 	strex	r4, r1, [r2]
  fe:	b124      	cbz	r4, 10a <_ZN10rayon_core8registry9in_worker17h405d540f20eaaa6fE+0x10a>
 100:	e852 4f00 	ldrex	r4, [r2]
 104:	429c      	cmp	r4, r3
 106:	d0f8      	beq.n	fa <_ZN10rayon_core8registry9in_worker17h405d540f20eaaa6fE+0xfa>
 108:	e7e7      	b.n	da <_ZN10rayon_core8registry9in_worker17h405d540f20eaaa6fE+0xda>
 10a:	f3bf 8f5b 	dmb	ish
 10e:	460a      	mov	r2, r1
 110:	46a9      	mov	r9, r5
 112:	f36f 229f 	bfc	r2, #10, #22
 116:	b302      	cbz	r2, 15a <_ZN10rayon_core8registry9in_worker17h405d540f20eaaa6fE+0x15a>
 118:	f1bc 0f00 	cmp.w	ip, #0
 11c:	dd16      	ble.n	14c <_ZN10rayon_core8registry9in_worker17h405d540f20eaaa6fE+0x14c>
 11e:	2101      	movs	r1, #1
 120:	f7ff fffe 	bl	0 <_ZN10rayon_core5sleep5Sleep16wake_any_threads17h3c0b629dbe18f96bE>
 124:	e019      	b.n	36 <_ZN10rayon_core8registry15global_registry17h4388ab73a8d9a316E+0x36>
 126:	f7ff fffe 	bl	0 <_ZN10rayon_core8registry15global_registry17h4388ab73a8d9a316E>
 12a:	6800      	ldr	r0, [r0, #0]
 12c:	ac1e      	add	r4, sp, #120	; 0x78
 12e:	4629      	mov	r1, r5
 130:	2244      	movs	r2, #68	; 0x44
 132:	3040      	adds	r0, #64	; 0x40
 134:	900e      	str	r0, [sp, #56]	; 0x38
 136:	4620      	mov	r0, r4
 138:	f7ff fffe 	bl	0 <__aeabi_memcpy4>
 13c:	4841      	ldr	r0, [pc, #260]	; (244 <_ZN10rayon_core8registry9in_worker17h405d540f20eaaa6fE+0x244>)
 13e:	a90e      	add	r1, sp, #56	; 0x38
 140:	912f      	str	r1, [sp, #188]	; 0xbc
 142:	4621      	mov	r1, r4
 144:	4478      	add	r0, pc
 146:	f7ff fffe 	bl	0 <_ZN3std6thread5local17LocalKey$LT$T$GT$4with17ha8460e8db2a9c043E>
 14a:	e04b      	b.n	1e4 <_ZN10rayon_core8registry9in_worker17h405d540f20eaaa6fE+0x1e4>
 14c:	f3c1 2189 	ubfx	r1, r1, #10, #10
 150:	4291      	cmp	r1, r2
 152:	d102      	bne.n	15a <_ZN10rayon_core8registry9in_worker17h405d540f20eaaa6fE+0x15a>
 154:	2101      	movs	r1, #1
 156:	f7ff fffe 	bl	0 <_ZN10rayon_core5sleep5Sleep16wake_any_threads17h3c0b629dbe18f96bE>
 15a:	9803      	ldr	r0, [sp, #12]
 15c:	f10d 0878 	add.w	r8, sp, #120	; 0x78
 160:	f8dd e014 	ldr.w	lr, [sp, #20]
 164:	e9d0 2300 	ldrd	r2, r3, [r0]
 168:	4641      	mov	r1, r8
 16a:	9804      	ldr	r0, [sp, #16]
 16c:	6800      	ldr	r0, [r0, #0]
 16e:	e89e 10f0 	ldmia.w	lr, {r4, r5, r6, r7, ip}
 172:	e881 10f0 	stmia.w	r1, {r4, r5, r6, r7, ip}
 176:	9906      	ldr	r1, [sp, #24]
 178:	9101      	str	r1, [sp, #4]
 17a:	2100      	movs	r1, #0
 17c:	f8cd 8000 	str.w	r8, [sp]
 180:	f7ff fffe 	bl	0 <_ZN5rayon4iter8plumbing24bridge_producer_consumer6helper17hdd8237b084caa040E>
 184:	9c07      	ldr	r4, [sp, #28]
 186:	980e      	ldr	r0, [sp, #56]	; 0x38
 188:	f3bf 8f5b 	dmb	ish
 18c:	2803      	cmp	r0, #3
 18e:	d012      	beq.n	1b6 <_ZN10rayon_core8registry9in_worker17h405d540f20eaaa6fE+0x1b6>
 190:	4658      	mov	r0, fp
 192:	f7ff fffe 	bl	0 <_ZN15crossbeam_deque5deque15Worker$LT$T$GT$3pop17h80734e944a6ab7b4E>
 196:	b129      	cbz	r1, 1a4 <_ZN10rayon_core8registry9in_worker17h405d540f20eaaa6fE+0x1a4>
 198:	4550      	cmp	r0, sl
 19a:	bf08      	it	eq
 19c:	4549      	cmpeq	r1, r9
 19e:	d013      	beq.n	1c8 <_ZN10rayon_core8registry9in_worker17h405d540f20eaaa6fE+0x1c8>
 1a0:	4788      	blx	r1
 1a2:	e7f0      	b.n	186 <_ZN10rayon_core8registry9in_worker17h405d540f20eaaa6fE+0x186>
 1a4:	980e      	ldr	r0, [sp, #56]	; 0x38
 1a6:	f3bf 8f5b 	dmb	ish
 1aa:	2803      	cmp	r0, #3
 1ac:	d003      	beq.n	1b6 <_ZN10rayon_core8registry9in_worker17h405d540f20eaaa6fE+0x1b6>
 1ae:	a90e      	add	r1, sp, #56	; 0x38
 1b0:	4620      	mov	r0, r4
 1b2:	f7ff fffe 	bl	0 <_ZN10rayon_core8registry12WorkerThread15wait_until_cold17h95a5b16b89273158E>
 1b6:	981b      	ldr	r0, [sp, #108]	; 0x6c
 1b8:	2801      	cmp	r0, #1
 1ba:	d013      	beq.n	1e4 <_ZN10rayon_core8registry9in_worker17h405d540f20eaaa6fE+0x1e4>
 1bc:	b318      	cbz	r0, 206 <_ZN10rayon_core8registry9in_worker17h405d540f20eaaa6fE+0x206>
 1be:	e9dd 011c 	ldrd	r0, r1, [sp, #112]	; 0x70
 1c2:	f7ff fffe 	bl	0 <_ZN10rayon_core6unwind16resume_unwinding17hc8cbe5894cf13d66E>
 1c6:	e032      	b.n	22e <_ZN10rayon_core8registry9in_worker17h405d540f20eaaa6fE+0x22e>
 1c8:	e8ba 00ce 	ldmia.w	sl!, {r1, r2, r3, r6, r7}
 1cc:	4640      	mov	r0, r8
 1ce:	c0ce      	stmia	r0!, {r1, r2, r3, r6, r7}
 1d0:	e8ba 00ce 	ldmia.w	sl!, {r1, r2, r3, r6, r7}
 1d4:	c0ce      	stmia	r0!, {r1, r2, r3, r6, r7}
 1d6:	e89a 00ee 	ldmia.w	sl, {r1, r2, r3, r5, r6, r7}
 1da:	c0ee      	stmia	r0!, {r1, r2, r3, r5, r6, r7}
 1dc:	4640      	mov	r0, r8
 1de:	2100      	movs	r1, #0
 1e0:	f7ff fffe 	bl	0 <_ZN10rayon_core3job25StackJob$LT$L$C$F$C$R$GT$10run_inline17h0088bc65a753b4c1E>
 1e4:	b031      	add	sp, #196	; 0xc4
 1e6:	e8bd 8ff0 	ldmia.w	sp!, {r4, r5, r6, r7, r8, r9, sl, fp, pc}
 1ea:	4619      	mov	r1, r3
 1ec:	e78f      	b.n	10e <_ZN10rayon_core8registry9in_worker17h405d540f20eaaa6fE+0x10e>
 1ee:	4819      	ldr	r0, [pc, #100]	; (254 <_ZN10rayon_core8registry9in_worker17h405d540f20eaaa6fE+0x254>)
 1f0:	aa1e      	add	r2, sp, #120	; 0x78
 1f2:	4b19      	ldr	r3, [pc, #100]	; (258 <_ZN10rayon_core8registry9in_worker17h405d540f20eaaa6fE+0x258>)
 1f4:	4919      	ldr	r1, [pc, #100]	; (25c <_ZN10rayon_core8registry9in_worker17h405d540f20eaaa6fE+0x25c>)
 1f6:	4478      	add	r0, pc
 1f8:	447b      	add	r3, pc
 1fa:	4479      	add	r1, pc
 1fc:	9100      	str	r1, [sp, #0]
 1fe:	2146      	movs	r1, #70	; 0x46
 200:	f7ff fffe 	bl	0 <_ZN4core6result13unwrap_failed17h6876d5cfd943f5b2E>
 204:	defe      	udf	#254	; 0xfe
 206:	4811      	ldr	r0, [pc, #68]	; (24c <_ZN10rayon_core8registry9in_worker17h405d540f20eaaa6fE+0x24c>)
 208:	4a11      	ldr	r2, [pc, #68]	; (250 <_ZN10rayon_core8registry9in_worker17h405d540f20eaaa6fE+0x250>)
 20a:	4478      	add	r0, pc
 20c:	447a      	add	r2, pc
 20e:	2128      	movs	r1, #40	; 0x28
 210:	f7ff fffe 	bl	0 <_ZN3std9panicking11begin_panic17hcd9d16c2595f8af4E>
 214:	e00b      	b.n	22e <_ZN10rayon_core8registry9in_worker17h405d540f20eaaa6fE+0x22e>
 216:	e000      	b.n	21a <_ZN10rayon_core8registry9in_worker17h405d540f20eaaa6fE+0x21a>
 218:	e00c      	b.n	234 <_ZN10rayon_core8registry9in_worker17h405d540f20eaaa6fE+0x234>
 21a:	4604      	mov	r4, r0
 21c:	e00e      	b.n	23c <_ZN10rayon_core8registry9in_worker17h405d540f20eaaa6fE+0x23c>
 21e:	f7ff fffe 	bl	0 <_ZN3std9panicking3try7cleanup17he668a406887398feE>
 222:	4602      	mov	r2, r0
 224:	9807      	ldr	r0, [sp, #28]
 226:	460b      	mov	r3, r1
 228:	a90e      	add	r1, sp, #56	; 0x38
 22a:	f7ff fffe 	bl	0 <_ZN10rayon_core4join23join_recover_from_panic17hca11631bc082a075E>
 22e:	defe      	udf	#254	; 0xfe
 230:	e000      	b.n	234 <_ZN10rayon_core8registry9in_worker17h405d540f20eaaa6fE+0x234>
 232:	e7ff      	b.n	234 <_ZN10rayon_core8registry9in_worker17h405d540f20eaaa6fE+0x234>
 234:	4604      	mov	r4, r0
 236:	a80e      	add	r0, sp, #56	; 0x38
 238:	f7ff fffe 	bl	0 <_ZN10rayon_core8registry9in_worker17h405d540f20eaaa6fE>
 23c:	4620      	mov	r0, r4
 23e:	f7ff fffe 	bl	0 <_Unwind_Resume>
 242:	defe      	udf	#254	; 0xfe
 244:	000000fc 	strdeq	r0, [r0], -ip
 248:	0000019a 	muleq	r0, sl, r1
 24c:	0000003e 	andeq	r0, r0, lr, lsr r0
 250:	00000040 	andeq	r0, r0, r0, asr #32
 254:	0000005a 	andeq	r0, r0, sl, asr r0
 258:	0000005c 	andeq	r0, r0, ip, asr r0
 25c:	0000005e 	andeq	r0, r0, lr, asr r0

Disassembly of section .text._ZN10rayon_core8registry9in_worker17hfabf70a36558d68fE:

00000000 <_ZN10rayon_core8registry9in_worker17hfabf70a36558d68fE>:
   0:	e92d 4ff0 	stmdb	sp!, {r4, r5, r6, r7, r8, r9, sl, fp, lr}
   4:	b0cd      	sub	sp, #308	; 0x134
   6:	460e      	mov	r6, r1
   8:	4604      	mov	r4, r0
   a:	f7ff fffe 	bl	0 <_ZN10rayon_core8registry19WORKER_THREAD_STATE7__getit17hff623596f561e726E>
   e:	2800      	cmp	r0, #0
  10:	f000 8116 	beq.w	240 <_ZN10rayon_core8registry9in_worker17hfabf70a36558d68fE+0x240>
  14:	f8d0 8000 	ldr.w	r8, [r0]
  18:	f1b8 0f00 	cmp.w	r8, #0
  1c:	d077      	beq.n	10e <_ZN10rayon_core8registry9in_worker17hfabf70a36558d68fE+0x10e>
  1e:	a836      	add	r0, sp, #216	; 0xd8
  20:	4631      	mov	r1, r6
  22:	2254      	movs	r2, #84	; 0x54
  24:	9401      	str	r4, [sp, #4]
  26:	f7ff fffe 	bl	0 <__aeabi_memcpy4>
  2a:	f8d8 0098 	ldr.w	r0, [r8, #152]	; 0x98
  2e:	f04f 0c00 	mov.w	ip, #0
  32:	9004      	str	r0, [sp, #16]
  34:	f108 009c 	add.w	r0, r8, #156	; 0x9c
  38:	f88d c014 	strb.w	ip, [sp, #20]
  3c:	f10d 0908 	add.w	r9, sp, #8
  40:	e9cd c002 	strd	ip, r0, [sp, #8]
  44:	f109 0010 	add.w	r0, r9, #16
  48:	cebc      	ldmia	r6!, {r2, r3, r4, r5, r7}
  4a:	46c2      	mov	sl, r8
  4c:	c0bc      	stmia	r0!, {r2, r3, r4, r5, r7}
  4e:	e896 00be 	ldmia.w	r6, {r1, r2, r3, r4, r5, r7}
  52:	c0be      	stmia	r0!, {r1, r2, r3, r4, r5, r7}
  54:	f85a 0f88 	ldr.w	r0, [sl, #136]!
  58:	f8cd c044 	str.w	ip, [sp, #68]	; 0x44
  5c:	f8d0 b084 	ldr.w	fp, [r0, #132]	; 0x84
  60:	f8d0 4080 	ldr.w	r4, [r0, #128]	; 0x80
  64:	f3bf 8f5b 	dmb	ish
  68:	f8da 0000 	ldr.w	r0, [sl]
  6c:	f8d0 7084 	ldr.w	r7, [r0, #132]	; 0x84
  70:	f8d0 1080 	ldr.w	r1, [r0, #128]	; 0x80
  74:	f3bf 8f5b 	dmb	ish
  78:	f8da 0008 	ldr.w	r0, [sl, #8]
  7c:	1a79      	subs	r1, r7, r1
  7e:	4281      	cmp	r1, r0
  80:	db05      	blt.n	8e <_ZN10rayon_core8registry9in_worker17hfabf70a36558d68fE+0x8e>
  82:	0041      	lsls	r1, r0, #1
  84:	4650      	mov	r0, sl
  86:	f7ff fffe 	bl	0 <_ZN15crossbeam_deque5deque15Worker$LT$T$GT$6resize17h31cf7956d1cbeabbE.llvm.15082459741529278717>
  8a:	f8d8 0090 	ldr.w	r0, [r8, #144]	; 0x90
  8e:	4b83      	ldr	r3, [pc, #524]	; (29c <_ZN10rayon_core8registry9in_worker17hfabf70a36558d68fE+0x29c>)
  90:	3801      	subs	r0, #1
  92:	f8d8 208c 	ldr.w	r2, [r8, #140]	; 0x8c
  96:	4038      	ands	r0, r7
  98:	447b      	add	r3, pc
  9a:	ebab 0104 	sub.w	r1, fp, r4
  9e:	f842 9030 	str.w	r9, [r2, r0, lsl #3]
  a2:	eb02 00c0 	add.w	r0, r2, r0, lsl #3
  a6:	1c7a      	adds	r2, r7, #1
  a8:	6043      	str	r3, [r0, #4]
  aa:	469b      	mov	fp, r3
  ac:	f3bf 8f5b 	dmb	ish
  b0:	f8d8 0088 	ldr.w	r0, [r8, #136]	; 0x88
  b4:	f3bf 8f5b 	dmb	ish
  b8:	f8c0 2084 	str.w	r2, [r0, #132]	; 0x84
  bc:	f8d8 009c 	ldr.w	r0, [r8, #156]	; 0x9c
  c0:	f100 02e8 	add.w	r2, r0, #232	; 0xe8
  c4:	30d4      	adds	r0, #212	; 0xd4
  c6:	e001      	b.n	cc <_ZN10rayon_core8registry9in_worker17hfabf70a36558d68fE+0xcc>
  c8:	f3bf 8f2f 	clrex
  cc:	6813      	ldr	r3, [r2, #0]
  ce:	f3bf 8f5b 	dmb	ish
  d2:	02df      	lsls	r7, r3, #11
  d4:	d439      	bmi.n	14a <_ZN10rayon_core8registry9in_worker17hfabf70a36558d68fE+0x14a>
  d6:	e852 7f00 	ldrex	r7, [r2]
  da:	429f      	cmp	r7, r3
  dc:	d1f4      	bne.n	c8 <_ZN10rayon_core8registry9in_worker17hfabf70a36558d68fE+0xc8>
  de:	f503 1780 	add.w	r7, r3, #1048576	; 0x100000
  e2:	f3bf 8f5b 	dmb	ish
  e6:	e842 7500 	strex	r5, r7, [r2]
  ea:	b125      	cbz	r5, f6 <_ZN10rayon_core8registry9in_worker17hfabf70a36558d68fE+0xf6>
  ec:	e852 5f00 	ldrex	r5, [r2]
  f0:	429d      	cmp	r5, r3
  f2:	d0f8      	beq.n	e6 <_ZN10rayon_core8registry9in_worker17hfabf70a36558d68fE+0xe6>
  f4:	e7e8      	b.n	c8 <_ZN10rayon_core8registry9in_worker17hfabf70a36558d68fE+0xc8>
  f6:	f3bf 8f5b 	dmb	ish
  fa:	463a      	mov	r2, r7
  fc:	f36f 229f 	bfc	r2, #10, #22
 100:	b34a      	cbz	r2, 156 <_ZN10rayon_core8registry9in_worker17hfabf70a36558d68fE+0x156>
 102:	2900      	cmp	r1, #0
 104:	dd19      	ble.n	13a <_ZN10rayon_core8registry9in_worker17hfabf70a36558d68fE+0x13a>
 106:	2101      	movs	r1, #1
 108:	f7ff fffe 	bl	0 <_ZN10rayon_core5sleep5Sleep16wake_any_threads17h3c0b629dbe18f96bE>
 10c:	e023      	b.n	4a <_ZN10rayon_core8registry15global_registry17h4388ab73a8d9a316E+0x4a>
 10e:	f7ff fffe 	bl	0 <_ZN10rayon_core8registry15global_registry17h4388ab73a8d9a316E>
 112:	6800      	ldr	r0, [r0, #0]
 114:	ad36      	add	r5, sp, #216	; 0xd8
 116:	4631      	mov	r1, r6
 118:	2254      	movs	r2, #84	; 0x54
 11a:	3040      	adds	r0, #64	; 0x40
 11c:	9022      	str	r0, [sp, #136]	; 0x88
 11e:	4628      	mov	r0, r5
 120:	f7ff fffe 	bl	0 <__aeabi_memcpy4>
 124:	495c      	ldr	r1, [pc, #368]	; (298 <_ZN10rayon_core8registry9in_worker17hfabf70a36558d68fE+0x298>)
 126:	a822      	add	r0, sp, #136	; 0x88
 128:	904b      	str	r0, [sp, #300]	; 0x12c
 12a:	4620      	mov	r0, r4
 12c:	4479      	add	r1, pc
 12e:	462a      	mov	r2, r5
 130:	f7ff fffe 	bl	0 <_ZN3std6thread5local17LocalKey$LT$T$GT$4with17hd3400e992fc68862E>
 134:	b04d      	add	sp, #308	; 0x134
 136:	e8bd 8ff0 	ldmia.w	sp!, {r4, r5, r6, r7, r8, r9, sl, fp, pc}
 13a:	f3c7 2189 	ubfx	r1, r7, #10, #10
 13e:	4291      	cmp	r1, r2
 140:	d109      	bne.n	156 <_ZN10rayon_core8registry9in_worker17hfabf70a36558d68fE+0x156>
 142:	2101      	movs	r1, #1
 144:	f7ff fffe 	bl	0 <_ZN10rayon_core5sleep5Sleep16wake_any_threads17h3c0b629dbe18f96bE>
 148:	e005      	b.n	156 <_ZN10rayon_core8registry9in_worker17hfabf70a36558d68fE+0x156>
 14a:	461f      	mov	r7, r3
 14c:	463a      	mov	r2, r7
 14e:	f36f 229f 	bfc	r2, #10, #22
 152:	2a00      	cmp	r2, #0
 154:	d1d5      	bne.n	102 <_ZN10rayon_core8registry9in_worker17hfabf70a36558d68fE+0x102>
 156:	a836      	add	r0, sp, #216	; 0xd8
 158:	a922      	add	r1, sp, #136	; 0x88
 15a:	302c      	adds	r0, #44	; 0x2c
 15c:	460a      	mov	r2, r1
 15e:	c8f8      	ldmia	r0!, {r3, r4, r5, r6, r7}
 160:	c2f8      	stmia	r2!, {r3, r4, r5, r6, r7}
 162:	e890 00f8 	ldmia.w	r0, {r3, r4, r5, r6, r7}
 166:	2000      	movs	r0, #0
 168:	c2f8      	stmia	r2!, {r3, r4, r5, r6, r7}
 16a:	f88d 00b0 	strb.w	r0, [sp, #176]	; 0xb0
 16e:	af16      	add	r7, sp, #88	; 0x58
 170:	4638      	mov	r0, r7
 172:	f7ff fffe 	bl	0 <_ZN3std9panicking3try17h42c7d0e418883621E>
 176:	9816      	ldr	r0, [sp, #88]	; 0x58
 178:	2801      	cmp	r0, #1
 17a:	d06d      	beq.n	258 <_ZN10rayon_core8registry9in_worker17hfabf70a36558d68fE+0x258>
 17c:	1d38      	adds	r0, r7, #4
 17e:	e9d0 1200 	ldrd	r1, r2, [r0]
 182:	6880      	ldr	r0, [r0, #8]
 184:	901c      	str	r0, [sp, #112]	; 0x70
 186:	e9cd 121a 	strd	r1, r2, [sp, #104]	; 0x68
 18a:	9802      	ldr	r0, [sp, #8]
 18c:	f3bf 8f5b 	dmb	ish
 190:	2803      	cmp	r0, #3
 192:	d013      	beq.n	1bc <_ZN10rayon_core8registry9in_worker17hfabf70a36558d68fE+0x1bc>
 194:	4650      	mov	r0, sl
 196:	f7ff fffe 	bl	0 <_ZN15crossbeam_deque5deque15Worker$LT$T$GT$3pop17h80734e944a6ab7b4E>
 19a:	b129      	cbz	r1, 1a8 <_ZN10rayon_core8registry9in_worker17hfabf70a36558d68fE+0x1a8>
 19c:	4548      	cmp	r0, r9
 19e:	bf08      	it	eq
 1a0:	4559      	cmpeq	r1, fp
 1a2:	d02a      	beq.n	1fa <_ZN10rayon_core8registry9in_worker17hfabf70a36558d68fE+0x1fa>
 1a4:	4788      	blx	r1
 1a6:	e7f0      	b.n	18a <_ZN10rayon_core8registry9in_worker17hfabf70a36558d68fE+0x18a>
 1a8:	9802      	ldr	r0, [sp, #8]
 1aa:	f3bf 8f5b 	dmb	ish
 1ae:	2803      	cmp	r0, #3
 1b0:	d004      	beq.n	1bc <_ZN10rayon_core8registry9in_worker17hfabf70a36558d68fE+0x1bc>
 1b2:	2600      	movs	r6, #0
 1b4:	a902      	add	r1, sp, #8
 1b6:	4640      	mov	r0, r8
 1b8:	f7ff fffe 	bl	0 <_ZN10rayon_core8registry12WorkerThread15wait_until_cold17h95a5b16b89273158E>
 1bc:	e9dd 2011 	ldrd	r2, r0, [sp, #68]	; 0x44
 1c0:	9e1c      	ldr	r6, [sp, #112]	; 0x70
 1c2:	e9dd 371a 	ldrd	r3, r7, [sp, #104]	; 0x68
 1c6:	2a01      	cmp	r2, #1
 1c8:	9624      	str	r6, [sp, #144]	; 0x90
 1ca:	e9cd 3722 	strd	r3, r7, [sp, #136]	; 0x88
 1ce:	9913      	ldr	r1, [sp, #76]	; 0x4c
 1d0:	bf01      	itttt	eq
 1d2:	f10d 0788 	addeq.w	r7, sp, #136	; 0x88
 1d6:	cf8c      	ldmiaeq	r7, {r2, r3, r7}
 1d8:	9e14      	ldreq	r6, [sp, #80]	; 0x50
 1da:	9d01      	ldreq	r5, [sp, #4]
 1dc:	bf01      	itttt	eq
 1de:	e885 008c 	stmiaeq.w	r5, {r2, r3, r7}
 1e2:	f105 020c 	addeq.w	r2, r5, #12
 1e6:	e882 0043 	stmiaeq.w	r2, {r0, r1, r6}
 1ea:	b04d      	addeq	sp, #308	; 0x134
 1ec:	bf08      	it	eq
 1ee:	e8bd 8ff0 	ldmiaeq.w	sp!, {r4, r5, r6, r7, r8, r9, sl, fp, pc}
 1f2:	b1ea      	cbz	r2, 3e <_ZN10rayon_core6unwind16resume_unwinding17hc8cbe5894cf13d66E+0x3e>
 1f4:	f7ff fffe 	bl	0 <_ZN10rayon_core6unwind16resume_unwinding17hc8cbe5894cf13d66E>
 1f8:	e021      	b.n	23e <_ZN10rayon_core8registry9in_worker17hfabf70a36558d68fE+0x23e>
 1fa:	ad22      	add	r5, sp, #136	; 0x88
 1fc:	a902      	add	r1, sp, #8
 1fe:	224c      	movs	r2, #76	; 0x4c
 200:	4628      	mov	r0, r5
 202:	f7ff fffe 	bl	0 <__aeabi_memcpy8>
 206:	2601      	movs	r6, #1
 208:	a81e      	add	r0, sp, #120	; 0x78
 20a:	4629      	mov	r1, r5
 20c:	2200      	movs	r2, #0
 20e:	f7ff fffe 	bl	0 <_ZN10rayon_core3job25StackJob$LT$L$C$F$C$R$GT$10run_inline17h757cb4244c4a64c2E>
 212:	aa1e      	add	r2, sp, #120	; 0x78
 214:	9d01      	ldr	r5, [sp, #4]
 216:	e9dd 371a 	ldrd	r3, r7, [sp, #104]	; 0x68
 21a:	ca07      	ldmia	r2, {r0, r1, r2}
 21c:	9e1c      	ldr	r6, [sp, #112]	; 0x70
 21e:	e9c5 3700 	strd	r3, r7, [r5]
 222:	e9c5 6002 	strd	r6, r0, [r5, #8]
 226:	e9c5 1204 	strd	r1, r2, [r5, #16]
 22a:	b04d      	add	sp, #308	; 0x134
 22c:	e8bd 8ff0 	ldmia.w	sp!, {r4, r5, r6, r7, r8, r9, sl, fp, pc}
 230:	481b      	ldr	r0, [pc, #108]	; (2a0 <_ZN10rayon_core8registry9in_worker17hfabf70a36558d68fE+0x2a0>)
 232:	4a1c      	ldr	r2, [pc, #112]	; (2a4 <_ZN10rayon_core8registry9in_worker17hfabf70a36558d68fE+0x2a4>)
 234:	4478      	add	r0, pc
 236:	447a      	add	r2, pc
 238:	2128      	movs	r1, #40	; 0x28
 23a:	f7ff fffe 	bl	0 <_ZN3std9panicking11begin_panic17hcd9d16c2595f8af4E>
 23e:	defe      	udf	#254	; 0xfe
 240:	4819      	ldr	r0, [pc, #100]	; (2a8 <_ZN10rayon_core8registry9in_worker17hfabf70a36558d68fE+0x2a8>)
 242:	aa36      	add	r2, sp, #216	; 0xd8
 244:	4b19      	ldr	r3, [pc, #100]	; (2ac <_ZN10rayon_core8registry9in_worker17hfabf70a36558d68fE+0x2ac>)
 246:	491a      	ldr	r1, [pc, #104]	; (2b0 <_ZN10rayon_core8registry9in_worker17hfabf70a36558d68fE+0x2b0>)
 248:	4478      	add	r0, pc
 24a:	447b      	add	r3, pc
 24c:	4479      	add	r1, pc
 24e:	9100      	str	r1, [sp, #0]
 250:	2146      	movs	r1, #70	; 0x46
 252:	f7ff fffe 	bl	0 <_ZN4core6result13unwrap_failed17h6876d5cfd943f5b2E>
 256:	defe      	udf	#254	; 0xfe
 258:	e9dd 2317 	ldrd	r2, r3, [sp, #92]	; 0x5c
 25c:	a902      	add	r1, sp, #8
 25e:	4640      	mov	r0, r8
 260:	f7ff fffe 	bl	0 <_ZN10rayon_core4join23join_recover_from_panic17hca11631bc082a075E>
 264:	e7eb      	b.n	23e <_ZN10rayon_core8registry9in_worker17hfabf70a36558d68fE+0x23e>
 266:	e00a      	b.n	27e <_ZN10rayon_core8registry9in_worker17hfabf70a36558d68fE+0x27e>
 268:	4604      	mov	r4, r0
 26a:	a81a      	add	r0, sp, #104	; 0x68
 26c:	f7ff fffe 	bl	0 <_ZN10rayon_core8registry9in_worker17hfabf70a36558d68fE>
 270:	b15e      	cbz	r6, 28a <_ZN10rayon_core8registry9in_worker17hfabf70a36558d68fE+0x28a>
 272:	e00d      	b.n	290 <_ZN10rayon_core8registry9in_worker17hfabf70a36558d68fE+0x290>
 274:	4604      	mov	r4, r0
 276:	a822      	add	r0, sp, #136	; 0x88
 278:	f7ff fffe 	bl	0 <_ZN10rayon_core8registry9in_worker17hfabf70a36558d68fE>
 27c:	e008      	b.n	290 <_ZN10rayon_core8registry9in_worker17hfabf70a36558d68fE+0x290>
 27e:	4604      	mov	r4, r0
 280:	e003      	b.n	28a <_ZN10rayon_core8registry9in_worker17hfabf70a36558d68fE+0x28a>
 282:	4604      	mov	r4, r0
 284:	a81a      	add	r0, sp, #104	; 0x68
 286:	f7ff fffe 	bl	0 <_ZN10rayon_core8registry9in_worker17hfabf70a36558d68fE>
 28a:	a802      	add	r0, sp, #8
 28c:	f7ff fffe 	bl	0 <_ZN10rayon_core8registry9in_worker17hfabf70a36558d68fE>
 290:	4620      	mov	r0, r4
 292:	f7ff fffe 	bl	0 <_Unwind_Resume>
 296:	defe      	udf	#254	; 0xfe
 298:	00000168 	andeq	r0, r0, r8, ror #2
 29c:	00000200 	andeq	r0, r0, r0, lsl #4
 2a0:	00000068 	andeq	r0, r0, r8, rrx
 2a4:	0000006a 	andeq	r0, r0, sl, rrx
 2a8:	0000005c 	andeq	r0, r0, ip, asr r0
 2ac:	0000005e 	andeq	r0, r0, lr, asr r0
 2b0:	00000060 	andeq	r0, r0, r0, rrx

Disassembly of section .text._ZN110_$LT$rayon..iter..fold..FoldConsumer$LT$C$C$ID$C$F$GT$$u20$as$u20$rayon..iter..plumbing..Consumer$LT$T$GT$$GT$11into_folder17ha8deb6e9a098821cE:

00000000 <_ZN110_$LT$rayon..iter..fold..FoldConsumer$LT$C$C$ID$C$F$GT$$u20$as$u20$rayon..iter..plumbing..Consumer$LT$T$GT$$GT$11into_folder17ha8deb6e9a098821cE>:
   0:	b580      	push	{r7, lr}
   2:	e9d1 3c01 	ldrd	r3, ip, [r1, #4]
   6:	2200      	movs	r2, #0
   8:	68c9      	ldr	r1, [r1, #12]
   a:	f04f 0e04 	mov.w	lr, #4
   e:	6202      	str	r2, [r0, #32]
  10:	e9c0 3200 	strd	r3, r2, [r0]
  14:	e9c0 2202 	strd	r2, r2, [r0, #8]
  18:	e9c0 c104 	strd	ip, r1, [r0, #16]
  1c:	e9c0 e206 	strd	lr, r2, [r0, #24]
  20:	bd80      	pop	{r7, pc}

Disassembly of section .text._ZN110_$LT$rayon..iter..fold..FoldConsumer$LT$C$C$ID$C$F$GT$$u20$as$u20$rayon..iter..plumbing..Consumer$LT$T$GT$$GT$4full17h14e97808c0824a83E:

00000000 <_ZN110_$LT$rayon..iter..fold..FoldConsumer$LT$C$C$ID$C$F$GT$$u20$as$u20$rayon..iter..plumbing..Consumer$LT$T$GT$$GT$4full17h14e97808c0824a83E>:
   0:	2000      	movs	r0, #0
   2:	4770      	bx	lr

Disassembly of section .text._ZN110_$LT$rayon..iter..fold..FoldConsumer$LT$C$C$ID$C$F$GT$$u20$as$u20$rayon..iter..plumbing..Consumer$LT$T$GT$$GT$8split_at17h7bb22af04b7b6f6dE:

00000000 <_ZN110_$LT$rayon..iter..fold..FoldConsumer$LT$C$C$ID$C$F$GT$$u20$as$u20$rayon..iter..plumbing..Consumer$LT$T$GT$$GT$8split_at17h7bb22af04b7b6f6dE>:
   0:	b580      	push	{r7, lr}
   2:	e891 500c 	ldmia.w	r1, {r2, r3, ip, lr}
   6:	f100 0724 	add.w	r7, r0, #36	; 0x24
   a:	6909      	ldr	r1, [r1, #16]
   c:	c70e      	stmia	r7!, {r1, r2, r3}
   e:	e8a0 500c 	stmia.w	r0!, {r2, r3, ip, lr}
  12:	e880 500e 	stmia.w	r0, {r1, r2, r3, ip, lr}
  16:	bd80      	pop	{r7, pc}

Disassembly of section .text._ZN110_$LT$rayon..iter..reduce..ReduceConsumer$LT$R$C$ID$GT$$u20$as$u20$rayon..iter..plumbing..Consumer$LT$T$GT$$GT$11into_folder17h0c7bd6b6002f746fE:

00000000 <_ZN110_$LT$rayon..iter..reduce..ReduceConsumer$LT$R$C$ID$GT$$u20$as$u20$rayon..iter..plumbing..Consumer$LT$T$GT$$GT$11into_folder17h0c7bd6b6002f746fE>:
   0:	2100      	movs	r1, #0
   2:	e9c0 2100 	strd	r2, r1, [r0]
   6:	e9c0 1102 	strd	r1, r1, [r0, #8]
   a:	4770      	bx	lr

Disassembly of section .text._ZN110_$LT$rayon..iter..reduce..ReduceConsumer$LT$R$C$ID$GT$$u20$as$u20$rayon..iter..plumbing..Consumer$LT$T$GT$$GT$4full17hfedf0ba8c1181ff4E:

00000000 <_ZN110_$LT$rayon..iter..reduce..ReduceConsumer$LT$R$C$ID$GT$$u20$as$u20$rayon..iter..plumbing..Consumer$LT$T$GT$$GT$4full17hfedf0ba8c1181ff4E>:
   0:	2000      	movs	r0, #0
   2:	4770      	bx	lr

Disassembly of section .text._ZN110_$LT$rayon..iter..reduce..ReduceConsumer$LT$R$C$ID$GT$$u20$as$u20$rayon..iter..plumbing..Consumer$LT$T$GT$$GT$8split_at17h8ee15400d4c5af3dE:

00000000 <_ZN110_$LT$rayon..iter..reduce..ReduceConsumer$LT$R$C$ID$GT$$u20$as$u20$rayon..iter..plumbing..Consumer$LT$T$GT$$GT$8split_at17h8ee15400d4c5af3dE>:
   0:	e9c0 1200 	strd	r1, r2, [r0]
   4:	e9c0 1202 	strd	r1, r2, [r0, #8]
   8:	e9c0 1204 	strd	r1, r2, [r0, #16]
   c:	4770      	bx	lr

Disassembly of section .text._ZN4core3ptr13drop_in_place17h006fd7f51ecb2e6cE:

00000000 <_ZN4core3ptr13drop_in_place17h006fd7f51ecb2e6cE>:
   0:	3004      	adds	r0, #4
   2:	f7ff bffe 	b.w	0 <_ZN94_$LT$alloc..collections..linked_list..LinkedList$LT$T$GT$$u20$as$u20$core..ops..drop..Drop$GT$4drop17h9cdc234436f462beE>

Disassembly of section .text._ZN4core3ptr13drop_in_place17h31558f3500ced34cE:

00000000 <_ZN4core3ptr13drop_in_place17h31558f3500ced34cE>:
   0:	b5b0      	push	{r4, r5, r7, lr}
   2:	4604      	mov	r4, r0
   4:	6b40      	ldr	r0, [r0, #52]	; 0x34
   6:	2802      	cmp	r0, #2
   8:	bf38      	it	cc
   a:	bdb0      	popcc	{r4, r5, r7, pc}
   c:	e9d4 010e 	ldrd	r0, r1, [r4, #56]	; 0x38
  10:	6809      	ldr	r1, [r1, #0]
  12:	4788      	blx	r1
  14:	6be0      	ldr	r0, [r4, #60]	; 0x3c
  16:	6841      	ldr	r1, [r0, #4]
  18:	b129      	cbz	r1, 26 <_ZN4core3ptr13drop_in_place17h31558f3500ced34cE+0x26>
  1a:	6882      	ldr	r2, [r0, #8]
  1c:	6ba0      	ldr	r0, [r4, #56]	; 0x38
  1e:	e8bd 40b0 	ldmia.w	sp!, {r4, r5, r7, lr}
  22:	f7ff bffe 	b.w	0 <__rust_dealloc>
  26:	bdb0      	pop	{r4, r5, r7, pc}
  28:	4605      	mov	r5, r0
  2a:	e9d4 010e 	ldrd	r0, r1, [r4, #56]	; 0x38
  2e:	f7ff fffe 	bl	0 <_ZN4core3ptr13drop_in_place17h31558f3500ced34cE>
  32:	4628      	mov	r0, r5
  34:	f7ff fffe 	bl	0 <_Unwind_Resume>
  38:	defe      	udf	#254	; 0xfe

Disassembly of section .text._ZN4core3ptr13drop_in_place17hb2d0f57ab4cbde51E:

00000000 <_ZN4core3ptr13drop_in_place17hb2d0f57ab4cbde51E>:
   0:	e92d 41f0 	stmdb	sp!, {r4, r5, r6, r7, r8, lr}
   4:	4604      	mov	r4, r0
   6:	6b00      	ldr	r0, [r0, #48]	; 0x30
   8:	b378      	cbz	r0, 6a <_ZN4core3ptr13drop_in_place17hb2d0f57ab4cbde51E+0x6a>
   a:	2801      	cmp	r0, #1
   c:	d120      	bne.n	50 <_ZN4core3ptr13drop_in_place17hb2d0f57ab4cbde51E+0x50>
   e:	e9d4 200d 	ldrd	r2, r0, [r4, #52]	; 0x34
  12:	f06f 010b 	mvn.w	r1, #11
  16:	eb00 0040 	add.w	r0, r0, r0, lsl #1
  1a:	f102 050c 	add.w	r5, r2, #12
  1e:	eb01 0780 	add.w	r7, r1, r0, lsl #2
  22:	f117 000c 	adds.w	r0, r7, #12
  26:	d020      	beq.n	6a <_ZN4core3ptr13drop_in_place17hb2d0f57ab4cbde51E+0x6a>
  28:	6890      	ldr	r0, [r2, #8]
  2a:	463e      	mov	r6, r7
  2c:	46a8      	mov	r8, r5
  2e:	0ec0      	lsrs	r0, r0, #27
  30:	d11d      	bne.n	6e <_ZN4core3ptr13drop_in_place17hb2d0f57ab4cbde51E+0x6e>
  32:	6850      	ldr	r0, [r2, #4]
  34:	f108 050c 	add.w	r5, r8, #12
  38:	f1a6 070c 	sub.w	r7, r6, #12
  3c:	f102 040c 	add.w	r4, r2, #12
  40:	f000 0007 	and.w	r0, r0, #7
  44:	6050      	str	r0, [r2, #4]
  46:	4610      	mov	r0, r2
  48:	f7ff fffe 	bl	0 <_ZN6bitvec3vec19BitVec$LT$O$C$T$GT$8with_vec17he5da1d483de8caa8E>
  4c:	4622      	mov	r2, r4
  4e:	e7e8      	b.n	22 <_ZN4core3ptr13drop_in_place17hb2d0f57ab4cbde51E+0x22>
  50:	e9d4 010d 	ldrd	r0, r1, [r4, #52]	; 0x34
  54:	6809      	ldr	r1, [r1, #0]
  56:	4788      	blx	r1
  58:	6ba0      	ldr	r0, [r4, #56]	; 0x38
  5a:	6841      	ldr	r1, [r0, #4]
  5c:	b129      	cbz	r1, 6a <_ZN4core3ptr13drop_in_place17hb2d0f57ab4cbde51E+0x6a>
  5e:	6882      	ldr	r2, [r0, #8]
  60:	6b60      	ldr	r0, [r4, #52]	; 0x34
  62:	e8bd 41f0 	ldmia.w	sp!, {r4, r5, r6, r7, r8, lr}
  66:	f7ff bffe 	b.w	0 <__rust_dealloc>
  6a:	e8bd 81f0 	ldmia.w	sp!, {r4, r5, r6, r7, r8, pc}
  6e:	480e      	ldr	r0, [pc, #56]	; (a8 <_ZN4core3ptr13drop_in_place17hb2d0f57ab4cbde51E+0xa8>)
  70:	4a0e      	ldr	r2, [pc, #56]	; (ac <_ZN4core3ptr13drop_in_place17hb2d0f57ab4cbde51E+0xac>)
  72:	4478      	add	r0, pc
  74:	447a      	add	r2, pc
  76:	2118      	movs	r1, #24
  78:	f7ff fffe 	bl	0 <_ZN4core6option13expect_failed17hccecd099e19e7451E>
  7c:	defe      	udf	#254	; 0xfe
  7e:	e005      	b.n	8c <_ZN4core3ptr13drop_in_place17hb2d0f57ab4cbde51E+0x8c>
  80:	4605      	mov	r5, r0
  82:	e9d4 010d 	ldrd	r0, r1, [r4, #52]	; 0x34
  86:	f7ff fffe 	bl	0 <_ZN4core3ptr13drop_in_place17hb2d0f57ab4cbde51E>
  8a:	e008      	b.n	9e <_ZN4core3ptr13drop_in_place17hb2d0f57ab4cbde51E+0x9e>
  8c:	4605      	mov	r5, r0
  8e:	b136      	cbz	r6, 9e <_ZN4core3ptr13drop_in_place17hb2d0f57ab4cbde51E+0x9e>
  90:	4640      	mov	r0, r8
  92:	f7ff fffe 	bl	0 <_ZN4core3ptr13drop_in_place17he17d0f0fd0b258bcE.llvm.6650279891508008866>
  96:	3e0c      	subs	r6, #12
  98:	f108 080c 	add.w	r8, r8, #12
  9c:	d1f8      	bne.n	90 <_ZN4core3ptr13drop_in_place17hb2d0f57ab4cbde51E+0x90>
  9e:	4628      	mov	r0, r5
  a0:	f7ff fffe 	bl	0 <_Unwind_Resume>
  a4:	defe      	udf	#254	; 0xfe
  a6:	bf00      	nop
  a8:	00000032 	andeq	r0, r0, r2, lsr r0
  ac:	00000034 	andeq	r0, r0, r4, lsr r0

Disassembly of section .text._ZN4core3ptr13drop_in_place17hb478b36566bc9dfbE:

00000000 <_ZN4core3ptr13drop_in_place17hb478b36566bc9dfbE>:
   0:	b5b0      	push	{r4, r5, r7, lr}
   2:	4604      	mov	r4, r0
   4:	6bc0      	ldr	r0, [r0, #60]	; 0x3c
   6:	b1a0      	cbz	r0, 32 <_ZN4core3ptr13drop_in_place17hb478b36566bc9dfbE+0x32>
   8:	2801      	cmp	r0, #1
   a:	d105      	bne.n	18 <_ZN4core3ptr13drop_in_place17hb478b36566bc9dfbE+0x18>
   c:	f104 0040 	add.w	r0, r4, #64	; 0x40
  10:	e8bd 40b0 	ldmia.w	sp!, {r4, r5, r7, lr}
  14:	f7ff bffe 	b.w	0 <_ZN94_$LT$alloc..collections..linked_list..LinkedList$LT$T$GT$$u20$as$u20$core..ops..drop..Drop$GT$4drop17h9cdc234436f462beE>
  18:	e9d4 0110 	ldrd	r0, r1, [r4, #64]	; 0x40
  1c:	6809      	ldr	r1, [r1, #0]
  1e:	4788      	blx	r1
  20:	6c60      	ldr	r0, [r4, #68]	; 0x44
  22:	6841      	ldr	r1, [r0, #4]
  24:	b129      	cbz	r1, 32 <_ZN4core3ptr13drop_in_place17hb478b36566bc9dfbE+0x32>
  26:	6882      	ldr	r2, [r0, #8]
  28:	6c20      	ldr	r0, [r4, #64]	; 0x40
  2a:	e8bd 40b0 	ldmia.w	sp!, {r4, r5, r7, lr}
  2e:	f7ff bffe 	b.w	0 <__rust_dealloc>
  32:	bdb0      	pop	{r4, r5, r7, pc}
  34:	4605      	mov	r5, r0
  36:	e9d4 0110 	ldrd	r0, r1, [r4, #64]	; 0x40
  3a:	f7ff fffe 	bl	0 <_ZN4core3ptr13drop_in_place17hb478b36566bc9dfbE>
  3e:	4628      	mov	r0, r5
  40:	f7ff fffe 	bl	0 <_Unwind_Resume>
  44:	defe      	udf	#254	; 0xfe

Disassembly of section .text._ZN4core3ptr13drop_in_place17hb525fc5617bcea3fE:

00000000 <_ZN4core3ptr13drop_in_place17hb525fc5617bcea3fE>:
   0:	f7ff bffe 	b.w	0 <_ZN94_$LT$alloc..collections..linked_list..LinkedList$LT$T$GT$$u20$as$u20$core..ops..drop..Drop$GT$4drop17h9cdc234436f462beE>

Disassembly of section .text._ZN4core3ptr13drop_in_place17hb78a45fff72859b4E:

00000000 <_ZN4core3ptr13drop_in_place17hb78a45fff72859b4E>:
   0:	e92d 41f0 	stmdb	sp!, {r4, r5, r6, r7, r8, lr}
   4:	e9d0 2000 	ldrd	r2, r0, [r0]
   8:	f06f 010b 	mvn.w	r1, #11
   c:	eb00 0040 	add.w	r0, r0, r0, lsl #1
  10:	f102 050c 	add.w	r5, r2, #12
  14:	eb01 0780 	add.w	r7, r1, r0, lsl #2
  18:	f117 000c 	adds.w	r0, r7, #12
  1c:	d013      	beq.n	46 <_ZN4core3ptr13drop_in_place17hb78a45fff72859b4E+0x46>
  1e:	6890      	ldr	r0, [r2, #8]
  20:	463e      	mov	r6, r7
  22:	46a8      	mov	r8, r5
  24:	0ec0      	lsrs	r0, r0, #27
  26:	d110      	bne.n	4a <_ZN4core3ptr13drop_in_place17hb78a45fff72859b4E+0x4a>
  28:	6850      	ldr	r0, [r2, #4]
  2a:	f108 050c 	add.w	r5, r8, #12
  2e:	f1a6 070c 	sub.w	r7, r6, #12
  32:	f102 040c 	add.w	r4, r2, #12
  36:	f000 0007 	and.w	r0, r0, #7
  3a:	6050      	str	r0, [r2, #4]
  3c:	4610      	mov	r0, r2
  3e:	f7ff fffe 	bl	0 <_ZN6bitvec3vec19BitVec$LT$O$C$T$GT$8with_vec17he5da1d483de8caa8E>
  42:	4622      	mov	r2, r4
  44:	e7e8      	b.n	18 <_ZN4core3ptr13drop_in_place17hb78a45fff72859b4E+0x18>
  46:	e8bd 81f0 	ldmia.w	sp!, {r4, r5, r6, r7, r8, pc}
  4a:	480b      	ldr	r0, [pc, #44]	; (78 <_ZN4core3ptr13drop_in_place17hb78a45fff72859b4E+0x78>)
  4c:	4a0b      	ldr	r2, [pc, #44]	; (7c <_ZN4core3ptr13drop_in_place17hb78a45fff72859b4E+0x7c>)
  4e:	4478      	add	r0, pc
  50:	447a      	add	r2, pc
  52:	2118      	movs	r1, #24
  54:	f7ff fffe 	bl	0 <_ZN4core6option13expect_failed17hccecd099e19e7451E>
  58:	defe      	udf	#254	; 0xfe
  5a:	e7ff      	b.n	5c <_ZN4core3ptr13drop_in_place17hb78a45fff72859b4E+0x5c>
  5c:	4605      	mov	r5, r0
  5e:	b136      	cbz	r6, 6e <_ZN4core3ptr13drop_in_place17hb78a45fff72859b4E+0x6e>
  60:	4640      	mov	r0, r8
  62:	f7ff fffe 	bl	0 <_ZN4core3ptr13drop_in_place17he17d0f0fd0b258bcE.llvm.6650279891508008866>
  66:	3e0c      	subs	r6, #12
  68:	f108 080c 	add.w	r8, r8, #12
  6c:	d1f8      	bne.n	60 <_ZN4core3ptr13drop_in_place17hb78a45fff72859b4E+0x60>
  6e:	4628      	mov	r0, r5
  70:	f7ff fffe 	bl	0 <_Unwind_Resume>
  74:	defe      	udf	#254	; 0xfe
  76:	bf00      	nop
  78:	00000026 	andeq	r0, r0, r6, lsr #32
  7c:	00000028 	andeq	r0, r0, r8, lsr #32

Disassembly of section .text._ZN4core5slice5index11check_range17h25eed37d26f13706E:

00000000 <_ZN4core5slice5index11check_range17h25eed37d26f13706E>:
   0:	4601      	mov	r1, r0
   2:	2000      	movs	r0, #0
   4:	4770      	bx	lr

Disassembly of section .text._ZN4core5slice5index11check_range28_$u7b$$u7b$closure$u7d$$u7d$17h8e9d0b76c3b3e3d2E.llvm.16619336933522458486:

00000000 <_ZN4core5slice5index11check_range28_$u7b$$u7b$closure$u7d$$u7d$17h8e9d0b76c3b3e3d2E.llvm.16619336933522458486>:
   0:	b580      	push	{r7, lr}
   2:	4802      	ldr	r0, [pc, #8]	; (c <_ZN4core5slice5index11check_range28_$u7b$$u7b$closure$u7d$$u7d$17h8e9d0b76c3b3e3d2E.llvm.16619336933522458486+0xc>)
   4:	4478      	add	r0, pc
   6:	f7ff fffe 	bl	0 <_ZN4core5slice5index29slice_end_index_overflow_fail17hd6b4d95b05baf748E>
   a:	defe      	udf	#254	; 0xfe
   c:	00000004 	andeq	r0, r0, r4

Disassembly of section .text._ZN4core5slice5index11check_range28_$u7b$$u7b$closure$u7d$$u7d$17hadc8aa3dbba7f1f7E.llvm.16619336933522458486:

00000000 <_ZN4core5slice5index11check_range28_$u7b$$u7b$closure$u7d$$u7d$17hadc8aa3dbba7f1f7E.llvm.16619336933522458486>:
   0:	b580      	push	{r7, lr}
   2:	4802      	ldr	r0, [pc, #8]	; (c <_ZN4core5slice5index11check_range28_$u7b$$u7b$closure$u7d$$u7d$17hadc8aa3dbba7f1f7E.llvm.16619336933522458486+0xc>)
   4:	4478      	add	r0, pc
   6:	f7ff fffe 	bl	0 <_ZN4core5slice5index31slice_start_index_overflow_fail17hbfe05a3846797f84E>
   a:	defe      	udf	#254	; 0xfe
   c:	00000004 	andeq	r0, r0, r4

Disassembly of section .text._ZN50_$LT$T$u20$as$u20$core..convert..Into$LT$U$GT$$GT$4into17hcb882ea6ab91f3cbE:

00000000 <_ZN50_$LT$T$u20$as$u20$core..convert..Into$LT$U$GT$$GT$4into17hcb882ea6ab91f3cbE>:
   0:	4770      	bx	lr

Disassembly of section .text._ZN5alloc5alloc8box_free17hdb53242a643ed0abE:

00000000 <_ZN5alloc5alloc8box_free17hdb53242a643ed0abE>:
   0:	460a      	mov	r2, r1
   2:	6849      	ldr	r1, [r1, #4]
   4:	2900      	cmp	r1, #0
   6:	bf1c      	itt	ne
   8:	6892      	ldrne	r2, [r2, #8]
   a:	f7ff bffe 	bne.w	0 <__rust_dealloc>
   e:	4770      	bx	lr

Disassembly of section .text._ZN5rayon4iter16ParallelIterator3map17h54163aaedffe8111E:

00000000 <_ZN5rayon4iter16ParallelIterator3map17h54163aaedffe8111E>:
   0:	e891 100c 	ldmia.w	r1, {r2, r3, ip}
   4:	68c9      	ldr	r1, [r1, #12]
   6:	e880 100c 	stmia.w	r0, {r2, r3, ip}
   a:	60c1      	str	r1, [r0, #12]
   c:	4770      	bx	lr

Disassembly of section .text._ZN5rayon4iter4fold22Fold$LT$I$C$ID$C$F$GT$3new17hd678a631224f61c7E:

00000000 <_ZN5rayon4iter4fold22Fold$LT$I$C$ID$C$F$GT$3new17hd678a631224f61c7E>:
   0:	e891 100c 	ldmia.w	r1, {r2, r3, ip}
   4:	68c9      	ldr	r1, [r1, #12]
   6:	e880 100c 	stmia.w	r0, {r2, r3, ip}
   a:	60c1      	str	r1, [r0, #12]
   c:	4770      	bx	lr

Disassembly of section .text._ZN5rayon4iter6reduce6reduce17h01ba56c93a8c565cE:

00000000 <_ZN5rayon4iter6reduce6reduce17h01ba56c93a8c565cE>:
   0:	b570      	push	{r4, r5, r6, lr}
   2:	b094      	sub	sp, #80	; 0x50
   4:	e891 500c 	ldmia.w	r1, {r2, r3, ip, lr}
   8:	e891 0070 	ldmia.w	r1, {r4, r5, r6}
   c:	68c9      	ldr	r1, [r1, #12]
   e:	9404      	str	r4, [sp, #16]
  10:	ac07      	add	r4, sp, #28
  12:	9606      	str	r6, [sp, #24]
  14:	9505      	str	r5, [sp, #20]
  16:	e884 500e 	stmia.w	r4, {r1, r2, r3, ip, lr}
  1a:	a908      	add	r1, sp, #32
  1c:	3108      	adds	r1, #8
  1e:	9112      	str	r1, [sp, #72]	; 0x48
  20:	a904      	add	r1, sp, #16
  22:	e88d 500c 	stmia.w	sp, {r2, r3, ip, lr}
  26:	e9cd 1110 	strd	r1, r1, [sp, #64]	; 0x40
  2a:	4669      	mov	r1, sp
  2c:	910f      	str	r1, [sp, #60]	; 0x3c
  2e:	a913      	add	r1, sp, #76	; 0x4c
  30:	910e      	str	r1, [sp, #56]	; 0x38
  32:	e9cd 310c 	strd	r3, r1, [sp, #48]	; 0x30
  36:	a90c      	add	r1, sp, #48	; 0x30
  38:	f7ff fffe 	bl	0 <_ZN117_$LT$rayon..iter..plumbing..bridge..Callback$LT$C$GT$$u20$as$u20$rayon..iter..plumbing..ProducerCallback$LT$I$GT$$GT$8callback17h1e4141caa4d30881E>
  3c:	b014      	add	sp, #80	; 0x50
  3e:	bd70      	pop	{r4, r5, r6, pc}

Disassembly of section .text._ZN6bitvec7pointer15BitPtr$LT$T$GT$4head17h313b2f0c11a0eb22E:

00000000 <_ZN6bitvec7pointer15BitPtr$LT$T$GT$4head17h313b2f0c11a0eb22E>:
   0:	e9d0 1000 	ldrd	r1, r0, [r0]
   4:	f000 0007 	and.w	r0, r0, #7
   8:	f361 00c4 	bfi	r0, r1, #3, #2
   c:	4770      	bx	lr

Disassembly of section .text._ZN6bitvec7pointer15BitPtr$LT$T$GT$8elements17h8f6253a988bf3f6bE:

00000000 <_ZN6bitvec7pointer15BitPtr$LT$T$GT$8elements17h8f6253a988bf3f6bE>:
   0:	e9d0 1000 	ldrd	r1, r0, [r0]
   4:	f000 0207 	and.w	r2, r0, #7
   8:	f361 02c4 	bfi	r2, r1, #3, #2
   c:	eb02 01d0 	add.w	r1, r2, r0, lsr #3
  10:	2201      	movs	r2, #1
  12:	0948      	lsrs	r0, r1, #5
  14:	06cb      	lsls	r3, r1, #27
  16:	bf18      	it	ne
  18:	eb02 1051 	addne.w	r0, r2, r1, lsr #5
  1c:	4770      	bx	lr

Disassembly of section .text._ZN78_$LT$core..option..Option$LT$T$GT$$u20$as$u20$core..convert..From$LT$T$GT$$GT$4from17hf15ba63226f727ffE:

00000000 <_ZN78_$LT$core..option..Option$LT$T$GT$$u20$as$u20$core..convert..From$LT$T$GT$$GT$4from17hf15ba63226f727ffE>:
   0:	4601      	mov	r1, r0
   2:	2001      	movs	r0, #1
   4:	4770      	bx	lr

Disassembly of section .text._ZN91_$LT$rayon..iter..fold..Fold$LT$I$C$ID$C$F$GT$$u20$as$u20$rayon..iter..ParallelIterator$GT$15drive_unindexed17hbfce8bee9a463a5bE:

00000000 <_ZN91_$LT$rayon..iter..fold..Fold$LT$I$C$ID$C$F$GT$$u20$as$u20$rayon..iter..ParallelIterator$GT$15drive_unindexed17hbfce8bee9a463a5bE>:
   0:	b5b0      	push	{r4, r5, r7, lr}
   2:	b08c      	sub	sp, #48	; 0x30
   4:	466d      	mov	r5, sp
   6:	e9d1 e402 	ldrd	lr, r4, [r1, #8]
   a:	e9d1 c300 	ldrd	ip, r3, [r1]
   e:	3508      	adds	r5, #8
  10:	e9cd e402 	strd	lr, r4, [sp, #8]
  14:	e9d2 4e00 	ldrd	r4, lr, [r2]
  18:	6892      	ldr	r2, [r2, #8]
  1a:	9305      	str	r3, [sp, #20]
  1c:	e9cd 150a 	strd	r1, r5, [sp, #40]	; 0x28
  20:	e9cd 4e06 	strd	r4, lr, [sp, #24]
  24:	e9cd 2108 	strd	r2, r1, [sp, #32]
  28:	a905      	add	r1, sp, #20
  2a:	4662      	mov	r2, ip
  2c:	e9cd c300 	strd	ip, r3, [sp]
  30:	f7ff fffe 	bl	0 <_ZN117_$LT$rayon..iter..plumbing..bridge..Callback$LT$C$GT$$u20$as$u20$rayon..iter..plumbing..ProducerCallback$LT$I$GT$$GT$8callback17h1e4141caa4d30881E>
  34:	b00c      	add	sp, #48	; 0x30
  36:	bdb0      	pop	{r4, r5, r7, pc}

Disassembly of section .text._ZN10ppv_lite867generic4dmap17h18a8397be8c03cd7E:

00000000 <_ZN10ppv_lite867generic4dmap17h18a8397be8c03cd7E>:
   0:	b580      	push	{r7, lr}
   2:	e9d1 c300 	ldrd	ip, r3, [r1]
   6:	e9d1 2102 	ldrd	r2, r1, [r1, #8]
   a:	ea4f 6373 	mov.w	r3, r3, ror #25
   e:	ea4f 6e71 	mov.w	lr, r1, ror #25
  12:	ea4f 617c 	mov.w	r1, ip, ror #25
  16:	ea4f 6272 	mov.w	r2, r2, ror #25
  1a:	e9c0 1300 	strd	r1, r3, [r0]
  1e:	e9c0 2e02 	strd	r2, lr, [r0, #8]
  22:	bd80      	pop	{r7, pc}

Disassembly of section .text._ZN10ppv_lite867generic4dmap17hade63cc612304a70E:

00000000 <_ZN10ppv_lite867generic4dmap17hade63cc612304a70E>:
   0:	b580      	push	{r7, lr}
   2:	e9d1 c300 	ldrd	ip, r3, [r1]
   6:	e9d1 2102 	ldrd	r2, r1, [r1, #8]
   a:	ea4f 4333 	mov.w	r3, r3, ror #16
   e:	ea4f 4e31 	mov.w	lr, r1, ror #16
  12:	ea4f 413c 	mov.w	r1, ip, ror #16
  16:	ea4f 4232 	mov.w	r2, r2, ror #16
  1a:	e9c0 1300 	strd	r1, r3, [r0]
  1e:	e9c0 2e02 	strd	r2, lr, [r0, #8]
  22:	bd80      	pop	{r7, pc}

Disassembly of section .text._ZN10ppv_lite867generic4dmap17hd5119cdc27eccb79E:

00000000 <_ZN10ppv_lite867generic4dmap17hd5119cdc27eccb79E>:
   0:	e891 100c 	ldmia.w	r1, {r2, r3, ip}
   4:	68c9      	ldr	r1, [r1, #12]
   6:	e880 100c 	stmia.w	r0, {r2, r3, ip}
   a:	60c1      	str	r1, [r0, #12]
   c:	4770      	bx	lr

Disassembly of section .text._ZN10ppv_lite867generic4dmap17hdc08b8ffdcb2b769E:

00000000 <_ZN10ppv_lite867generic4dmap17hdc08b8ffdcb2b769E>:
   0:	b580      	push	{r7, lr}
   2:	e9d1 c300 	ldrd	ip, r3, [r1]
   6:	e9d1 2102 	ldrd	r2, r1, [r1, #8]
   a:	ea4f 6333 	mov.w	r3, r3, ror #24
   e:	ea4f 6e31 	mov.w	lr, r1, ror #24
  12:	ea4f 613c 	mov.w	r1, ip, ror #24
  16:	ea4f 6232 	mov.w	r2, r2, ror #24
  1a:	e9c0 1300 	strd	r1, r3, [r0]
  1e:	e9c0 2e02 	strd	r2, lr, [r0, #8]
  22:	bd80      	pop	{r7, pc}

Disassembly of section .text._ZN10ppv_lite867generic4dmap17he4c5a91e668e418dE:

00000000 <_ZN10ppv_lite867generic4dmap17he4c5a91e668e418dE>:
   0:	b580      	push	{r7, lr}
   2:	e9d1 c300 	ldrd	ip, r3, [r1]
   6:	e9d1 2102 	ldrd	r2, r1, [r1, #8]
   a:	ea4f 5333 	mov.w	r3, r3, ror #20
   e:	ea4f 5e31 	mov.w	lr, r1, ror #20
  12:	ea4f 513c 	mov.w	r1, ip, ror #20
  16:	ea4f 5232 	mov.w	r2, r2, ror #20
  1a:	e9c0 1300 	strd	r1, r3, [r0]
  1e:	e9c0 2e02 	strd	r2, lr, [r0, #8]
  22:	bd80      	pop	{r7, pc}

Disassembly of section .text._ZN10ppv_lite867generic4omap17h86d4cd3faf212134E:

00000000 <_ZN10ppv_lite867generic4omap17h86d4cd3faf212134E>:
   0:	b510      	push	{r4, lr}
   2:	b086      	sub	sp, #24
   4:	4604      	mov	r4, r0
   6:	e891 000d 	ldmia.w	r1, {r0, r2, r3}
   a:	68c9      	ldr	r1, [r1, #12]
   c:	9105      	str	r1, [sp, #20]
   e:	a902      	add	r1, sp, #8
  10:	c10d      	stmia	r1!, {r0, r2, r3}
  12:	a802      	add	r0, sp, #8
  14:	f7ff fffe 	bl	0 <_ZN10ppv_lite867generic6o_of_q17h47242f14a0578581E>
  18:	e9cd 0100 	strd	r0, r1, [sp]
  1c:	a802      	add	r0, sp, #8
  1e:	f7ff fffe 	bl	0 <_ZN10ppv_lite867generic6q_of_o17hfa1cf066014fd011E>
  22:	ab02      	add	r3, sp, #8
  24:	cb0f      	ldmia	r3, {r0, r1, r2, r3}
  26:	c40f      	stmia	r4!, {r0, r1, r2, r3}
  28:	b006      	add	sp, #24
  2a:	bd10      	pop	{r4, pc}

Disassembly of section .text._ZN10ppv_lite867generic5dmap217h618646203c9bccc2E:

00000000 <_ZN10ppv_lite867generic5dmap217h618646203c9bccc2E>:
   0:	b570      	push	{r4, r5, r6, lr}
   2:	e9d1 ce00 	ldrd	ip, lr, [r1]
   6:	e892 0070 	ldmia.w	r2, {r4, r5, r6}
   a:	e9d1 3102 	ldrd	r3, r1, [r1, #8]
   e:	68d2      	ldr	r2, [r2, #12]
  10:	4411      	add	r1, r2
  12:	18f2      	adds	r2, r6, r3
  14:	eb05 030e 	add.w	r3, r5, lr
  18:	eb04 060c 	add.w	r6, r4, ip
  1c:	e9c0 6300 	strd	r6, r3, [r0]
  20:	e9c0 2102 	strd	r2, r1, [r0, #8]
  24:	bd70      	pop	{r4, r5, r6, pc}

Disassembly of section .text._ZN10ppv_lite867generic5omap217h9265d15e1ecc985aE:

00000000 <_ZN10ppv_lite867generic5omap217h9265d15e1ecc985aE>:
   0:	e92d 43f0 	stmdb	sp!, {r4, r5, r6, r7, r8, r9, lr}
   4:	b087      	sub	sp, #28
   6:	4615      	mov	r5, r2
   8:	4604      	mov	r4, r0
   a:	e891 000d 	ldmia.w	r1, {r0, r2, r3}
   e:	68c9      	ldr	r1, [r1, #12]
  10:	9105      	str	r1, [sp, #20]
  12:	a902      	add	r1, sp, #8
  14:	c10d      	stmia	r1!, {r0, r2, r3}
  16:	a802      	add	r0, sp, #8
  18:	f7ff fffe 	bl	0 <_ZN10ppv_lite867generic6o_of_q17h47242f14a0578581E>
  1c:	4680      	mov	r8, r0
  1e:	4689      	mov	r9, r1
  20:	4616      	mov	r6, r2
  22:	461f      	mov	r7, r3
  24:	e895 000f 	ldmia.w	r5, {r0, r1, r2, r3}
  28:	f10d 0c08 	add.w	ip, sp, #8
  2c:	e88c 000f 	stmia.w	ip, {r0, r1, r2, r3}
  30:	a802      	add	r0, sp, #8
  32:	f7ff fffe 	bl	0 <_ZN10ppv_lite867generic6o_of_q17h47242f14a0578581E>
  36:	407b      	eors	r3, r7
  38:	4072      	eors	r2, r6
  3a:	e9cd 2300 	strd	r2, r3, [sp]
  3e:	ea80 0208 	eor.w	r2, r0, r8
  42:	ea81 0309 	eor.w	r3, r1, r9
  46:	a802      	add	r0, sp, #8
  48:	f7ff fffe 	bl	0 <_ZN10ppv_lite867generic6q_of_o17hfa1cf066014fd011E>
  4c:	ab02      	add	r3, sp, #8
  4e:	cb0f      	ldmia	r3, {r0, r1, r2, r3}
  50:	c40f      	stmia	r4!, {r0, r1, r2, r3}
  52:	b007      	add	sp, #28
  54:	e8bd 83f0 	ldmia.w	sp!, {r4, r5, r6, r7, r8, r9, pc}

Disassembly of section .text._ZN4core5array98_$LT$impl$u20$core..iter..traits..collect..IntoIterator$u20$for$u20$$RF$$u5b$T$u3b$$u20$N$u5d$$GT$9into_iter17h3b5c4c59f090ce2aE:

00000000 <_ZN4core5array98_$LT$impl$u20$core..iter..traits..collect..IntoIterator$u20$for$u20$$RF$$u5b$T$u3b$$u20$N$u5d$$GT$9into_iter17h3b5c4c59f090ce2aE>:
   0:	f100 0140 	add.w	r1, r0, #64	; 0x40
   4:	4770      	bx	lr

Disassembly of section .text._ZN50_$LT$T$u20$as$u20$core..convert..Into$LT$U$GT$$GT$4into17hbeb7b9b6918e02c2E:

00000000 <_ZN50_$LT$T$u20$as$u20$core..convert..Into$LT$U$GT$$GT$4into17hbeb7b9b6918e02c2E>:
   0:	e891 100c 	ldmia.w	r1, {r2, r3, ip}
   4:	68c9      	ldr	r1, [r1, #12]
   6:	e880 100c 	stmia.w	r0, {r2, r3, ip}
   a:	60c1      	str	r1, [r0, #12]
   c:	4770      	bx	lr

Disassembly of section .text._ZN101_$LT$std..panic..AssertUnwindSafe$LT$F$GT$$u20$as$u20$core..ops..function..FnOnce$LT$$LP$$RP$$GT$$GT$9call_once17h0823065e86f5ff14E:

00000000 <_ZN101_$LT$std..panic..AssertUnwindSafe$LT$F$GT$$u20$as$u20$core..ops..function..FnOnce$LT$$LP$$RP$$GT$$GT$9call_once17h0823065e86f5ff14E>:
   0:	e92d 4ff0 	stmdb	sp!, {r4, r5, r6, r7, r8, r9, sl, fp, lr}
   4:	b08d      	sub	sp, #52	; 0x34
   6:	f101 0908 	add.w	r9, r1, #8
   a:	e9d1 ce00 	ldrd	ip, lr, [r1]
   e:	3114      	adds	r1, #20
  10:	9005      	str	r0, [sp, #20]
  12:	e899 0304 	ldmia.w	r9, {r2, r8, r9}
  16:	ae06      	add	r6, sp, #24
  18:	f8de e000 	ldr.w	lr, [lr]
  1c:	e9d2 3b00 	ldrd	r3, fp, [r2]
  20:	f8dc a000 	ldr.w	sl, [ip]
  24:	e891 10b5 	ldmia.w	r1, {r0, r2, r4, r5, r7, ip}
  28:	ebaa 010e 	sub.w	r1, sl, lr
  2c:	e886 10b5 	stmia.w	r6, {r0, r2, r4, r5, r7, ip}
  30:	a806      	add	r0, sp, #24
  32:	2201      	movs	r2, #1
  34:	e9cd b800 	strd	fp, r8, [sp]
  38:	9003      	str	r0, [sp, #12]
  3a:	9805      	ldr	r0, [sp, #20]
  3c:	f8cd 9008 	str.w	r9, [sp, #8]
  40:	f7ff fffe 	bl	0 <_ZN5rayon4iter8plumbing24bridge_producer_consumer6helper17hc3dd3cb8896019b4E>
  44:	b00d      	add	sp, #52	; 0x34
  46:	e8bd 8ff0 	ldmia.w	sp!, {r4, r5, r6, r7, r8, r9, sl, fp, pc}

Disassembly of section .text._ZN101_$LT$std..panic..AssertUnwindSafe$LT$F$GT$$u20$as$u20$core..ops..function..FnOnce$LT$$LP$$RP$$GT$$GT$9call_once17h4ec8825ffd67acd0E:

00000000 <_ZN101_$LT$std..panic..AssertUnwindSafe$LT$F$GT$$u20$as$u20$core..ops..function..FnOnce$LT$$LP$$RP$$GT$$GT$9call_once17h4ec8825ffd67acd0E>:
   0:	b5f0      	push	{r4, r5, r6, r7, lr}
   2:	b087      	sub	sp, #28
   4:	e9d0 c100 	ldrd	ip, r1, [r0]
   8:	e9d0 3e02 	ldrd	r3, lr, [r0, #8]
   c:	e9d0 7504 	ldrd	r7, r5, [r0, #16]
  10:	e9d0 6006 	ldrd	r6, r0, [r0, #24]
  14:	6809      	ldr	r1, [r1, #0]
  16:	f8dc 4000 	ldr.w	r4, [ip]
  1a:	e9d3 2300 	ldrd	r2, r3, [r3]
  1e:	9006      	str	r0, [sp, #24]
  20:	a804      	add	r0, sp, #16
  22:	e9cd e700 	strd	lr, r7, [sp]
  26:	9002      	str	r0, [sp, #8]
  28:	1a60      	subs	r0, r4, r1
  2a:	2101      	movs	r1, #1
  2c:	e9cd 5604 	strd	r5, r6, [sp, #16]
  30:	f7ff fffe 	bl	0 <_ZN5rayon4iter8plumbing24bridge_producer_consumer6helper17h5951f102c24bee8eE>
  34:	b007      	add	sp, #28
  36:	bdf0      	pop	{r4, r5, r6, r7, pc}

Disassembly of section .text._ZN101_$LT$std..panic..AssertUnwindSafe$LT$F$GT$$u20$as$u20$core..ops..function..FnOnce$LT$$LP$$RP$$GT$$GT$9call_once17h53a748c8de891f53E:

00000000 <_ZN101_$LT$std..panic..AssertUnwindSafe$LT$F$GT$$u20$as$u20$core..ops..function..FnOnce$LT$$LP$$RP$$GT$$GT$9call_once17h53a748c8de891f53E>:
   0:	e92d 4ff0 	stmdb	sp!, {r4, r5, r6, r7, r8, r9, sl, fp, lr}
   4:	b0d3      	sub	sp, #332	; 0x14c
   6:	9005      	str	r0, [sp, #20]
   8:	468c      	mov	ip, r1
   a:	f10d 0a48 	add.w	sl, sp, #72	; 0x48
   e:	e8bc 00f8 	ldmia.w	ip!, {r3, r4, r5, r6, r7}
  12:	f10d 0b30 	add.w	fp, sp, #48	; 0x30
  16:	4652      	mov	r2, sl
  18:	c2f8      	stmia	r2!, {r3, r4, r5, r6, r7}
  1a:	e89c 00f9 	ldmia.w	ip, {r0, r3, r4, r5, r6, r7}
  1e:	c2f9      	stmia	r2!, {r0, r3, r4, r5, r6, r7}
  20:	f101 003c 	add.w	r0, r1, #60	; 0x3c
  24:	6aca      	ldr	r2, [r1, #44]	; 0x2c
  26:	9209      	str	r2, [sp, #36]	; 0x24
  28:	6b0a      	ldr	r2, [r1, #48]	; 0x30
  2a:	9208      	str	r2, [sp, #32]
  2c:	e9d1 890d 	ldrd	r8, r9, [r1, #52]	; 0x34
  30:	4659      	mov	r1, fp
  32:	e890 00fc 	ldmia.w	r0, {r2, r3, r4, r5, r6, r7}
  36:	c1fc      	stmia	r1!, {r2, r3, r4, r5, r6, r7}
  38:	f7ff fffe 	bl	0 <_ZN10rayon_core8registry19WORKER_THREAD_STATE7__getit17hff623596f561e726E>
  3c:	2800      	cmp	r0, #0
  3e:	f000 8108 	beq.w	252 <_ZN101_$LT$std..panic..AssertUnwindSafe$LT$F$GT$$u20$as$u20$core..ops..function..FnOnce$LT$$LP$$RP$$GT$$GT$9call_once17h53a748c8de891f53E+0x252>
  42:	e9cd 980a 	strd	r9, r8, [sp, #40]	; 0x28
  46:	f8d0 8000 	ldr.w	r8, [r0]
  4a:	f1b8 0f00 	cmp.w	r8, #0
  4e:	f000 810c 	beq.w	26a <_ZN101_$LT$std..panic..AssertUnwindSafe$LT$F$GT$$u20$as$u20$core..ops..function..FnOnce$LT$$LP$$RP$$GT$$GT$9call_once17h53a748c8de891f53E+0x26a>
  52:	a81e      	add	r0, sp, #120	; 0x78
  54:	9007      	str	r0, [sp, #28]
  56:	e89b 00de 	ldmia.w	fp, {r1, r2, r3, r4, r6, r7}
  5a:	46c1      	mov	r9, r8
  5c:	c0de      	stmia	r0!, {r1, r2, r3, r4, r6, r7}
  5e:	2100      	movs	r1, #0
  60:	f8d8 0098 	ldr.w	r0, [r8, #152]	; 0x98
  64:	9026      	str	r0, [sp, #152]	; 0x98
  66:	f108 009c 	add.w	r0, r8, #156	; 0x9c
  6a:	f88d 109c 	strb.w	r1, [sp, #156]	; 0x9c
  6e:	e9cd 1024 	strd	r1, r0, [sp, #144]	; 0x90
  72:	a824      	add	r0, sp, #144	; 0x90
  74:	e8ba 00dc 	ldmia.w	sl!, {r2, r3, r4, r6, r7}
  78:	3010      	adds	r0, #16
  7a:	c0dc      	stmia	r0!, {r2, r3, r4, r6, r7}
  7c:	e89a 00fc 	ldmia.w	sl, {r2, r3, r4, r5, r6, r7}
  80:	c0fc      	stmia	r0!, {r2, r3, r4, r5, r6, r7}
  82:	f859 0f88 	ldr.w	r0, [r9, #136]!
  86:	9133      	str	r1, [sp, #204]	; 0xcc
  88:	f8d0 4084 	ldr.w	r4, [r0, #132]	; 0x84
  8c:	f8d0 b080 	ldr.w	fp, [r0, #128]	; 0x80
  90:	f3bf 8f5b 	dmb	ish
  94:	f8d9 0000 	ldr.w	r0, [r9]
  98:	f8d0 a084 	ldr.w	sl, [r0, #132]	; 0x84
  9c:	f8d0 1080 	ldr.w	r1, [r0, #128]	; 0x80
  a0:	f3bf 8f5b 	dmb	ish
  a4:	f8d9 0008 	ldr.w	r0, [r9, #8]
  a8:	ebaa 0101 	sub.w	r1, sl, r1
  ac:	4281      	cmp	r1, r0
  ae:	da01      	bge.n	b4 <_ZN101_$LT$std..panic..AssertUnwindSafe$LT$F$GT$$u20$as$u20$core..ops..function..FnOnce$LT$$LP$$RP$$GT$$GT$9call_once17h53a748c8de891f53E+0xb4>
  b0:	aa24      	add	r2, sp, #144	; 0x90
  b2:	e006      	b.n	c2 <_ZN101_$LT$std..panic..AssertUnwindSafe$LT$F$GT$$u20$as$u20$core..ops..function..FnOnce$LT$$LP$$RP$$GT$$GT$9call_once17h53a748c8de891f53E+0xc2>
  b4:	0041      	lsls	r1, r0, #1
  b6:	4648      	mov	r0, r9
  b8:	f7ff fffe 	bl	0 <_ZN15crossbeam_deque5deque15Worker$LT$T$GT$6resize17h31cf7956d1cbeabbE.llvm.15082459741529278717>
  bc:	aa24      	add	r2, sp, #144	; 0x90
  be:	f8d8 0090 	ldr.w	r0, [r8, #144]	; 0x90
  c2:	3801      	subs	r0, #1
  c4:	eba4 0c0b 	sub.w	ip, r4, fp
  c8:	4c7d      	ldr	r4, [pc, #500]	; (2c0 <_ZN101_$LT$std..panic..AssertUnwindSafe$LT$F$GT$$u20$as$u20$core..ops..function..FnOnce$LT$$LP$$RP$$GT$$GT$9call_once17h53a748c8de891f53E+0x2c0>)
  ca:	ea00 000a 	and.w	r0, r0, sl
  ce:	f8d8 108c 	ldr.w	r1, [r8, #140]	; 0x8c
  d2:	447c      	add	r4, pc
  d4:	f841 2030 	str.w	r2, [r1, r0, lsl #3]
  d8:	eb01 00c0 	add.w	r0, r1, r0, lsl #3
  dc:	f10a 0101 	add.w	r1, sl, #1
  e0:	6044      	str	r4, [r0, #4]
  e2:	f3bf 8f5b 	dmb	ish
  e6:	f8d8 0088 	ldr.w	r0, [r8, #136]	; 0x88
  ea:	f3bf 8f5b 	dmb	ish
  ee:	f8c0 1084 	str.w	r1, [r0, #132]	; 0x84
  f2:	f8d8 009c 	ldr.w	r0, [r8, #156]	; 0x9c
  f6:	f100 02e8 	add.w	r2, r0, #232	; 0xe8
  fa:	30d4      	adds	r0, #212	; 0xd4
  fc:	e001      	b.n	102 <_ZN101_$LT$std..panic..AssertUnwindSafe$LT$F$GT$$u20$as$u20$core..ops..function..FnOnce$LT$$LP$$RP$$GT$$GT$9call_once17h53a748c8de891f53E+0x102>
  fe:	f3bf 8f2f 	clrex
 102:	6813      	ldr	r3, [r2, #0]
 104:	f3bf 8f5b 	dmb	ish
 108:	02d9      	lsls	r1, r3, #11
 10a:	f100 80a0 	bmi.w	24e <_ZN101_$LT$std..panic..AssertUnwindSafe$LT$F$GT$$u20$as$u20$core..ops..function..FnOnce$LT$$LP$$RP$$GT$$GT$9call_once17h53a748c8de891f53E+0x24e>
 10e:	e852 1f00 	ldrex	r1, [r2]
 112:	4299      	cmp	r1, r3
 114:	d1f3      	bne.n	fe <_ZN101_$LT$std..panic..AssertUnwindSafe$LT$F$GT$$u20$as$u20$core..ops..function..FnOnce$LT$$LP$$RP$$GT$$GT$9call_once17h53a748c8de891f53E+0xfe>
 116:	f503 1180 	add.w	r1, r3, #1048576	; 0x100000
 11a:	f3bf 8f5b 	dmb	ish
 11e:	e842 1700 	strex	r7, r1, [r2]
 122:	b127      	cbz	r7, 12e <_ZN101_$LT$std..panic..AssertUnwindSafe$LT$F$GT$$u20$as$u20$core..ops..function..FnOnce$LT$$LP$$RP$$GT$$GT$9call_once17h53a748c8de891f53E+0x12e>
 124:	e852 7f00 	ldrex	r7, [r2]
 128:	429f      	cmp	r7, r3
 12a:	d0f8      	beq.n	11e <_ZN101_$LT$std..panic..AssertUnwindSafe$LT$F$GT$$u20$as$u20$core..ops..function..FnOnce$LT$$LP$$RP$$GT$$GT$9call_once17h53a748c8de891f53E+0x11e>
 12c:	e7e7      	b.n	fe <_ZN101_$LT$std..panic..AssertUnwindSafe$LT$F$GT$$u20$as$u20$core..ops..function..FnOnce$LT$$LP$$RP$$GT$$GT$9call_once17h53a748c8de891f53E+0xfe>
 12e:	f3bf 8f5b 	dmb	ish
 132:	460a      	mov	r2, r1
 134:	9406      	str	r4, [sp, #24]
 136:	f36f 229f 	bfc	r2, #10, #22
 13a:	b16a      	cbz	r2, 158 <_ZN101_$LT$std..panic..AssertUnwindSafe$LT$F$GT$$u20$as$u20$core..ops..function..FnOnce$LT$$LP$$RP$$GT$$GT$9call_once17h53a748c8de891f53E+0x158>
 13c:	f1bc 0f00 	cmp.w	ip, #0
 140:	dd03      	ble.n	14a <_ZN101_$LT$std..panic..AssertUnwindSafe$LT$F$GT$$u20$as$u20$core..ops..function..FnOnce$LT$$LP$$RP$$GT$$GT$9call_once17h53a748c8de891f53E+0x14a>
 142:	2101      	movs	r1, #1
 144:	f7ff fffe 	bl	0 <_ZN10rayon_core5sleep5Sleep16wake_any_threads17h3c0b629dbe18f96bE>
 148:	e006      	b.n	158 <_ZN101_$LT$std..panic..AssertUnwindSafe$LT$F$GT$$u20$as$u20$core..ops..function..FnOnce$LT$$LP$$RP$$GT$$GT$9call_once17h53a748c8de891f53E+0x158>
 14a:	f3c1 2189 	ubfx	r1, r1, #10, #10
 14e:	4291      	cmp	r1, r2
 150:	d102      	bne.n	158 <_ZN101_$LT$std..panic..AssertUnwindSafe$LT$F$GT$$u20$as$u20$core..ops..function..FnOnce$LT$$LP$$RP$$GT$$GT$9call_once17h53a748c8de891f53E+0x158>
 152:	2101      	movs	r1, #1
 154:	f7ff fffe 	bl	0 <_ZN10rayon_core5sleep5Sleep16wake_any_threads17h3c0b629dbe18f96bE>
 158:	9808      	ldr	r0, [sp, #32]
 15a:	f10d 0cf0 	add.w	ip, sp, #240	; 0xf0
 15e:	f8dd b01c 	ldr.w	fp, [sp, #28]
 162:	e9d0 3e00 	ldrd	r3, lr, [r0]
 166:	4662      	mov	r2, ip
 168:	9809      	ldr	r0, [sp, #36]	; 0x24
 16a:	6801      	ldr	r1, [r0, #0]
 16c:	e89b 04f1 	ldmia.w	fp, {r0, r4, r5, r6, r7, sl}
 170:	e882 04f1 	stmia.w	r2, {r0, r4, r5, r6, r7, sl}
 174:	980b      	ldr	r0, [sp, #44]	; 0x2c
 176:	2201      	movs	r2, #1
 178:	9001      	str	r0, [sp, #4]
 17a:	980a      	ldr	r0, [sp, #40]	; 0x28
 17c:	f8cd e000 	str.w	lr, [sp]
 180:	e9cd 0c02 	strd	r0, ip, [sp, #8]
 184:	a850      	add	r0, sp, #320	; 0x140
 186:	f7ff fffe 	bl	0 <_ZN5rayon4iter8plumbing24bridge_producer_consumer6helper17hc3dd3cb8896019b4E>
 18a:	aa50      	add	r2, sp, #320	; 0x140
 18c:	f8dd b018 	ldr.w	fp, [sp, #24]
 190:	ac24      	add	r4, sp, #144	; 0x90
 192:	ab38      	add	r3, sp, #224	; 0xe0
 194:	ca07      	ldmia	r2, {r0, r1, r2}
 196:	c307      	stmia	r3!, {r0, r1, r2}
 198:	9824      	ldr	r0, [sp, #144]	; 0x90
 19a:	f3bf 8f5b 	dmb	ish
 19e:	2803      	cmp	r0, #3
 1a0:	d013      	beq.n	1ca <_ZN101_$LT$std..panic..AssertUnwindSafe$LT$F$GT$$u20$as$u20$core..ops..function..FnOnce$LT$$LP$$RP$$GT$$GT$9call_once17h53a748c8de891f53E+0x1ca>
 1a2:	4648      	mov	r0, r9
 1a4:	f7ff fffe 	bl	0 <_ZN15crossbeam_deque5deque15Worker$LT$T$GT$3pop17h80734e944a6ab7b4E>
 1a8:	b129      	cbz	r1, 1b6 <_ZN101_$LT$std..panic..AssertUnwindSafe$LT$F$GT$$u20$as$u20$core..ops..function..FnOnce$LT$$LP$$RP$$GT$$GT$9call_once17h53a748c8de891f53E+0x1b6>
 1aa:	42a0      	cmp	r0, r4
 1ac:	bf08      	it	eq
 1ae:	4559      	cmpeq	r1, fp
 1b0:	d02a      	beq.n	208 <_ZN101_$LT$std..panic..AssertUnwindSafe$LT$F$GT$$u20$as$u20$core..ops..function..FnOnce$LT$$LP$$RP$$GT$$GT$9call_once17h53a748c8de891f53E+0x208>
 1b2:	4788      	blx	r1
 1b4:	e7f0      	b.n	198 <_ZN101_$LT$std..panic..AssertUnwindSafe$LT$F$GT$$u20$as$u20$core..ops..function..FnOnce$LT$$LP$$RP$$GT$$GT$9call_once17h53a748c8de891f53E+0x198>
 1b6:	9824      	ldr	r0, [sp, #144]	; 0x90
 1b8:	f3bf 8f5b 	dmb	ish
 1bc:	2803      	cmp	r0, #3
 1be:	d004      	beq.n	1ca <_ZN101_$LT$std..panic..AssertUnwindSafe$LT$F$GT$$u20$as$u20$core..ops..function..FnOnce$LT$$LP$$RP$$GT$$GT$9call_once17h53a748c8de891f53E+0x1ca>
 1c0:	2600      	movs	r6, #0
 1c2:	a924      	add	r1, sp, #144	; 0x90
 1c4:	4640      	mov	r0, r8
 1c6:	f7ff fffe 	bl	0 <_ZN10rayon_core8registry12WorkerThread15wait_until_cold17h95a5b16b89273158E>
 1ca:	e9dd 2033 	ldrd	r2, r0, [sp, #204]	; 0xcc
 1ce:	9e3a      	ldr	r6, [sp, #232]	; 0xe8
 1d0:	e9dd 3738 	ldrd	r3, r7, [sp, #224]	; 0xe0
 1d4:	2a01      	cmp	r2, #1
 1d6:	963e      	str	r6, [sp, #248]	; 0xf8
 1d8:	e9cd 373c 	strd	r3, r7, [sp, #240]	; 0xf0
 1dc:	9935      	ldr	r1, [sp, #212]	; 0xd4
 1de:	bf01      	itttt	eq
 1e0:	f10d 07f0 	addeq.w	r7, sp, #240	; 0xf0
 1e4:	cf8c      	ldmiaeq	r7, {r2, r3, r7}
 1e6:	9e36      	ldreq	r6, [sp, #216]	; 0xd8
 1e8:	9d05      	ldreq	r5, [sp, #20]
 1ea:	bf01      	itttt	eq
 1ec:	e885 008c 	stmiaeq.w	r5, {r2, r3, r7}
 1f0:	f105 020c 	addeq.w	r2, r5, #12
 1f4:	e882 0043 	stmiaeq.w	r2, {r0, r1, r6}
 1f8:	b053      	addeq	sp, #332	; 0x14c
 1fa:	bf08      	it	eq
 1fc:	e8bd 8ff0 	ldmiaeq.w	sp!, {r4, r5, r6, r7, r8, r9, sl, fp, pc}
 200:	b1ea      	cbz	r2, 3e <_ZN10rayon_core6unwind16resume_unwinding17hc8cbe5894cf13d66E+0x3e>
 202:	f7ff fffe 	bl	0 <_ZN10rayon_core6unwind16resume_unwinding17hc8cbe5894cf13d66E>
 206:	e021      	b.n	24c <_ZN101_$LT$std..panic..AssertUnwindSafe$LT$F$GT$$u20$as$u20$core..ops..function..FnOnce$LT$$LP$$RP$$GT$$GT$9call_once17h53a748c8de891f53E+0x24c>
 208:	ad3c      	add	r5, sp, #240	; 0xf0
 20a:	a924      	add	r1, sp, #144	; 0x90
 20c:	224c      	movs	r2, #76	; 0x4c
 20e:	4628      	mov	r0, r5
 210:	f7ff fffe 	bl	0 <__aeabi_memcpy8>
 214:	2601      	movs	r6, #1
 216:	a850      	add	r0, sp, #320	; 0x140
 218:	4629      	mov	r1, r5
 21a:	2201      	movs	r2, #1
 21c:	f7ff fffe 	bl	0 <_ZN10rayon_core3job25StackJob$LT$L$C$F$C$R$GT$10run_inline17h757cb4244c4a64c2E>
 220:	aa50      	add	r2, sp, #320	; 0x140
 222:	9d05      	ldr	r5, [sp, #20]
 224:	e9dd 3738 	ldrd	r3, r7, [sp, #224]	; 0xe0
 228:	ca07      	ldmia	r2, {r0, r1, r2}
 22a:	9e3a      	ldr	r6, [sp, #232]	; 0xe8
 22c:	e9c5 3700 	strd	r3, r7, [r5]
 230:	e9c5 6002 	strd	r6, r0, [r5, #8]
 234:	e9c5 1204 	strd	r1, r2, [r5, #16]
 238:	b053      	add	sp, #332	; 0x14c
 23a:	e8bd 8ff0 	ldmia.w	sp!, {r4, r5, r6, r7, r8, r9, sl, fp, pc}
 23e:	4821      	ldr	r0, [pc, #132]	; (2c4 <_ZN101_$LT$std..panic..AssertUnwindSafe$LT$F$GT$$u20$as$u20$core..ops..function..FnOnce$LT$$LP$$RP$$GT$$GT$9call_once17h53a748c8de891f53E+0x2c4>)
 240:	4a21      	ldr	r2, [pc, #132]	; (2c8 <_ZN101_$LT$std..panic..AssertUnwindSafe$LT$F$GT$$u20$as$u20$core..ops..function..FnOnce$LT$$LP$$RP$$GT$$GT$9call_once17h53a748c8de891f53E+0x2c8>)
 242:	4478      	add	r0, pc
 244:	447a      	add	r2, pc
 246:	2128      	movs	r1, #40	; 0x28
 248:	f7ff fffe 	bl	0 <_ZN3std9panicking11begin_panic17hcd9d16c2595f8af4E>
 24c:	defe      	udf	#254	; 0xfe
 24e:	4619      	mov	r1, r3
 250:	e76f      	b.n	132 <_ZN101_$LT$std..panic..AssertUnwindSafe$LT$F$GT$$u20$as$u20$core..ops..function..FnOnce$LT$$LP$$RP$$GT$$GT$9call_once17h53a748c8de891f53E+0x132>
 252:	4820      	ldr	r0, [pc, #128]	; (2d4 <_ZN101_$LT$std..panic..AssertUnwindSafe$LT$F$GT$$u20$as$u20$core..ops..function..FnOnce$LT$$LP$$RP$$GT$$GT$9call_once17h53a748c8de891f53E+0x2d4>)
 254:	aa3c      	add	r2, sp, #240	; 0xf0
 256:	4b20      	ldr	r3, [pc, #128]	; (2d8 <_ZN101_$LT$std..panic..AssertUnwindSafe$LT$F$GT$$u20$as$u20$core..ops..function..FnOnce$LT$$LP$$RP$$GT$$GT$9call_once17h53a748c8de891f53E+0x2d8>)
 258:	4920      	ldr	r1, [pc, #128]	; (2dc <_ZN101_$LT$std..panic..AssertUnwindSafe$LT$F$GT$$u20$as$u20$core..ops..function..FnOnce$LT$$LP$$RP$$GT$$GT$9call_once17h53a748c8de891f53E+0x2dc>)
 25a:	4478      	add	r0, pc
 25c:	447b      	add	r3, pc
 25e:	4479      	add	r1, pc
 260:	9100      	str	r1, [sp, #0]
 262:	2146      	movs	r1, #70	; 0x46
 264:	f7ff fffe 	bl	0 <_ZN4core6result13unwrap_failed17h6876d5cfd943f5b2E>
 268:	defe      	udf	#254	; 0xfe
 26a:	4818      	ldr	r0, [pc, #96]	; (2cc <_ZN101_$LT$std..panic..AssertUnwindSafe$LT$F$GT$$u20$as$u20$core..ops..function..FnOnce$LT$$LP$$RP$$GT$$GT$9call_once17h53a748c8de891f53E+0x2cc>)
 26c:	2136      	movs	r1, #54	; 0x36
 26e:	4a18      	ldr	r2, [pc, #96]	; (2d0 <_ZN101_$LT$std..panic..AssertUnwindSafe$LT$F$GT$$u20$as$u20$core..ops..function..FnOnce$LT$$LP$$RP$$GT$$GT$9call_once17h53a748c8de891f53E+0x2d0>)
 270:	4478      	add	r0, pc
 272:	447a      	add	r2, pc
 274:	f7ff fffe 	bl	0 <_ZN3std9panicking11begin_panic17hcd9d16c2595f8af4E>
 278:	defe      	udf	#254	; 0xfe
 27a:	4604      	mov	r4, r0
 27c:	a838      	add	r0, sp, #224	; 0xe0
 27e:	f7ff fffe 	bl	0 <_ZN101_$LT$std..panic..AssertUnwindSafe$LT$F$GT$$u20$as$u20$core..ops..function..FnOnce$LT$$LP$$RP$$GT$$GT$9call_once17h53a748c8de891f53E>
 282:	b1ae      	cbz	r6, 2b0 <_ZN101_$LT$std..panic..AssertUnwindSafe$LT$F$GT$$u20$as$u20$core..ops..function..FnOnce$LT$$LP$$RP$$GT$$GT$9call_once17h53a748c8de891f53E+0x2b0>
 284:	e017      	b.n	2b6 <_ZN101_$LT$std..panic..AssertUnwindSafe$LT$F$GT$$u20$as$u20$core..ops..function..FnOnce$LT$$LP$$RP$$GT$$GT$9call_once17h53a748c8de891f53E+0x2b6>
 286:	4604      	mov	r4, r0
 288:	a83c      	add	r0, sp, #240	; 0xf0
 28a:	f7ff fffe 	bl	0 <_ZN101_$LT$std..panic..AssertUnwindSafe$LT$F$GT$$u20$as$u20$core..ops..function..FnOnce$LT$$LP$$RP$$GT$$GT$9call_once17h53a748c8de891f53E>
 28e:	e012      	b.n	28 <_ZN3std9panicking3try7cleanup17he668a406887398feE+0x28>
 290:	f7ff fffe 	bl	0 <_ZN3std9panicking3try7cleanup17he668a406887398feE>
 294:	4602      	mov	r2, r0
 296:	460b      	mov	r3, r1
 298:	a924      	add	r1, sp, #144	; 0x90
 29a:	4640      	mov	r0, r8
 29c:	f7ff fffe 	bl	0 <_ZN10rayon_core4join23join_recover_from_panic17hca11631bc082a075E>
 2a0:	e7d4      	b.n	24c <_ZN101_$LT$std..panic..AssertUnwindSafe$LT$F$GT$$u20$as$u20$core..ops..function..FnOnce$LT$$LP$$RP$$GT$$GT$9call_once17h53a748c8de891f53E+0x24c>
 2a2:	e7ff      	b.n	2a4 <_ZN101_$LT$std..panic..AssertUnwindSafe$LT$F$GT$$u20$as$u20$core..ops..function..FnOnce$LT$$LP$$RP$$GT$$GT$9call_once17h53a748c8de891f53E+0x2a4>
 2a4:	4604      	mov	r4, r0
 2a6:	e003      	b.n	2b0 <_ZN101_$LT$std..panic..AssertUnwindSafe$LT$F$GT$$u20$as$u20$core..ops..function..FnOnce$LT$$LP$$RP$$GT$$GT$9call_once17h53a748c8de891f53E+0x2b0>
 2a8:	4604      	mov	r4, r0
 2aa:	a838      	add	r0, sp, #224	; 0xe0
 2ac:	f7ff fffe 	bl	0 <_ZN101_$LT$std..panic..AssertUnwindSafe$LT$F$GT$$u20$as$u20$core..ops..function..FnOnce$LT$$LP$$RP$$GT$$GT$9call_once17h53a748c8de891f53E>
 2b0:	a824      	add	r0, sp, #144	; 0x90
 2b2:	f7ff fffe 	bl	0 <_ZN101_$LT$std..panic..AssertUnwindSafe$LT$F$GT$$u20$as$u20$core..ops..function..FnOnce$LT$$LP$$RP$$GT$$GT$9call_once17h53a748c8de891f53E>
 2b6:	4620      	mov	r0, r4
 2b8:	f7ff fffe 	bl	0 <_Unwind_Resume>
 2bc:	defe      	udf	#254	; 0xfe
 2be:	bf00      	nop
 2c0:	000001ea 	andeq	r0, r0, sl, ror #3
 2c4:	0000007e 	andeq	r0, r0, lr, ror r0
 2c8:	00000080 	andeq	r0, r0, r0, lsl #1
 2cc:	00000058 	andeq	r0, r0, r8, asr r0
 2d0:	0000005a 	andeq	r0, r0, sl, asr r0
 2d4:	00000076 	andeq	r0, r0, r6, ror r0
 2d8:	00000078 	andeq	r0, r0, r8, ror r0
 2dc:	0000007a 	andeq	r0, r0, sl, ror r0

Disassembly of section .text._ZN101_$LT$std..panic..AssertUnwindSafe$LT$F$GT$$u20$as$u20$core..ops..function..FnOnce$LT$$LP$$RP$$GT$$GT$9call_once17h64ddf02a6b349256E:

00000000 <_ZN101_$LT$std..panic..AssertUnwindSafe$LT$F$GT$$u20$as$u20$core..ops..function..FnOnce$LT$$LP$$RP$$GT$$GT$9call_once17h64ddf02a6b349256E>:
   0:	e92d 4ff0 	stmdb	sp!, {r4, r5, r6, r7, r8, r9, sl, fp, lr}
   4:	b08d      	sub	sp, #52	; 0x34
   6:	e9d1 ce00 	ldrd	ip, lr, [r1]
   a:	f101 0b10 	add.w	fp, r1, #16
   e:	9005      	str	r0, [sp, #20]
  10:	af06      	add	r7, sp, #24
  12:	f891 2028 	ldrb.w	r2, [r1, #40]	; 0x28
  16:	e9d1 9802 	ldrd	r9, r8, [r1, #8]
  1a:	e9de 3a00 	ldrd	r3, sl, [lr]
  1e:	2a00      	cmp	r2, #0
  20:	f8dc c000 	ldr.w	ip, [ip]
  24:	e89b 4073 	ldmia.w	fp, {r0, r1, r4, r5, r6, lr}
  28:	e887 4073 	stmia.w	r7, {r0, r1, r4, r5, r6, lr}
  2c:	a806      	add	r0, sp, #24
  2e:	4661      	mov	r1, ip
  30:	e9cd a900 	strd	sl, r9, [sp]
  34:	f8cd 8008 	str.w	r8, [sp, #8]
  38:	9003      	str	r0, [sp, #12]
  3a:	bf18      	it	ne
  3c:	2201      	movne	r2, #1
  3e:	9805      	ldr	r0, [sp, #20]
  40:	f7ff fffe 	bl	0 <_ZN5rayon4iter8plumbing24bridge_producer_consumer6helper17hc3dd3cb8896019b4E>
  44:	b00d      	add	sp, #52	; 0x34
  46:	e8bd 8ff0 	ldmia.w	sp!, {r4, r5, r6, r7, r8, r9, sl, fp, pc}

Disassembly of section .text._ZN101_$LT$std..panic..AssertUnwindSafe$LT$F$GT$$u20$as$u20$core..ops..function..FnOnce$LT$$LP$$RP$$GT$$GT$9call_once17h65bedba29079c11cE:

00000000 <_ZN101_$LT$std..panic..AssertUnwindSafe$LT$F$GT$$u20$as$u20$core..ops..function..FnOnce$LT$$LP$$RP$$GT$$GT$9call_once17h65bedba29079c11cE>:
   0:	e92d 4ff0 	stmdb	sp!, {r4, r5, r6, r7, r8, r9, sl, fp, lr}
   4:	b0bf      	sub	sp, #252	; 0xfc
   6:	4601      	mov	r1, r0
   8:	f10d 0838 	add.w	r8, sp, #56	; 0x38
   c:	c9d8      	ldmia	r1!, {r3, r4, r6, r7}
   e:	f10d 0920 	add.w	r9, sp, #32
  12:	4642      	mov	r2, r8
  14:	c2d8      	stmia	r2!, {r3, r4, r6, r7}
  16:	e891 00f8 	ldmia.w	r1, {r3, r4, r5, r6, r7}
  1a:	f100 012c 	add.w	r1, r0, #44	; 0x2c
  1e:	c2f8      	stmia	r2!, {r3, r4, r5, r6, r7}
  20:	464a      	mov	r2, r9
  22:	e9d0 ab09 	ldrd	sl, fp, [r0, #36]	; 0x24
  26:	e891 00f8 	ldmia.w	r1, {r3, r4, r5, r6, r7}
  2a:	c2f8      	stmia	r2!, {r3, r4, r5, r6, r7}
  2c:	6c04      	ldr	r4, [r0, #64]	; 0x40
  2e:	f7ff fffe 	bl	0 <_ZN10rayon_core8registry19WORKER_THREAD_STATE7__getit17hff623596f561e726E>
  32:	2800      	cmp	r0, #0
  34:	f000 80d4 	beq.w	1e0 <_ZN101_$LT$std..panic..AssertUnwindSafe$LT$F$GT$$u20$as$u20$core..ops..function..FnOnce$LT$$LP$$RP$$GT$$GT$9call_once17h65bedba29079c11cE+0x1e0>
  38:	e9cd ba04 	strd	fp, sl, [sp, #16]
  3c:	6805      	ldr	r5, [r0, #0]
  3e:	9406      	str	r4, [sp, #24]
  40:	2d00      	cmp	r5, #0
  42:	f000 80d9 	beq.w	1f8 <_ZN101_$LT$std..panic..AssertUnwindSafe$LT$F$GT$$u20$as$u20$core..ops..function..FnOnce$LT$$LP$$RP$$GT$$GT$9call_once17h65bedba29079c11cE+0x1f8>
  46:	a818      	add	r0, sp, #96	; 0x60
  48:	9003      	str	r0, [sp, #12]
  4a:	e899 00ce 	ldmia.w	r9, {r1, r2, r3, r6, r7}
  4e:	f10d 0b78 	add.w	fp, sp, #120	; 0x78
  52:	c0ce      	stmia	r0!, {r1, r2, r3, r6, r7}
  54:	2100      	movs	r1, #0
  56:	f8d5 0098 	ldr.w	r0, [r5, #152]	; 0x98
  5a:	9020      	str	r0, [sp, #128]	; 0x80
  5c:	f105 009c 	add.w	r0, r5, #156	; 0x9c
  60:	f88d 1084 	strb.w	r1, [sp, #132]	; 0x84
  64:	e9cd 101e 	strd	r1, r0, [sp, #120]	; 0x78
  68:	f10b 0010 	add.w	r0, fp, #16
  6c:	9507      	str	r5, [sp, #28]
  6e:	e8b8 006c 	ldmia.w	r8!, {r2, r3, r5, r6}
  72:	c06c      	stmia	r0!, {r2, r3, r5, r6}
  74:	e898 007c 	ldmia.w	r8, {r2, r3, r4, r5, r6}
  78:	c07c      	stmia	r0!, {r2, r3, r4, r5, r6}
  7a:	9c07      	ldr	r4, [sp, #28]
  7c:	912b      	str	r1, [sp, #172]	; 0xac
  7e:	46a2      	mov	sl, r4
  80:	f85a 0f88 	ldr.w	r0, [sl, #136]!
  84:	f8d0 6084 	ldr.w	r6, [r0, #132]	; 0x84
  88:	f8d0 9080 	ldr.w	r9, [r0, #128]	; 0x80
  8c:	f3bf 8f5b 	dmb	ish
  90:	f8da 0000 	ldr.w	r0, [sl]
  94:	f8d0 8084 	ldr.w	r8, [r0, #132]	; 0x84
  98:	f8d0 1080 	ldr.w	r1, [r0, #128]	; 0x80
  9c:	f3bf 8f5b 	dmb	ish
  a0:	f8da 0008 	ldr.w	r0, [sl, #8]
  a4:	eba8 0101 	sub.w	r1, r8, r1
  a8:	4281      	cmp	r1, r0
  aa:	db05      	blt.n	b8 <_ZN101_$LT$std..panic..AssertUnwindSafe$LT$F$GT$$u20$as$u20$core..ops..function..FnOnce$LT$$LP$$RP$$GT$$GT$9call_once17h65bedba29079c11cE+0xb8>
  ac:	0041      	lsls	r1, r0, #1
  ae:	4650      	mov	r0, sl
  b0:	f7ff fffe 	bl	0 <_ZN15crossbeam_deque5deque15Worker$LT$T$GT$6resize17h31cf7956d1cbeabbE.llvm.15082459741529278717>
  b4:	f8d4 0090 	ldr.w	r0, [r4, #144]	; 0x90
  b8:	4d63      	ldr	r5, [pc, #396]	; (248 <_ZN101_$LT$std..panic..AssertUnwindSafe$LT$F$GT$$u20$as$u20$core..ops..function..FnOnce$LT$$LP$$RP$$GT$$GT$9call_once17h65bedba29079c11cE+0x248>)
  ba:	3801      	subs	r0, #1
  bc:	f8d4 108c 	ldr.w	r1, [r4, #140]	; 0x8c
  c0:	ea00 0008 	and.w	r0, r0, r8
  c4:	447d      	add	r5, pc
  c6:	eba6 0c09 	sub.w	ip, r6, r9
  ca:	f841 b030 	str.w	fp, [r1, r0, lsl #3]
  ce:	eb01 00c0 	add.w	r0, r1, r0, lsl #3
  d2:	f108 0101 	add.w	r1, r8, #1
  d6:	6045      	str	r5, [r0, #4]
  d8:	f3bf 8f5b 	dmb	ish
  dc:	f8d4 0088 	ldr.w	r0, [r4, #136]	; 0x88
  e0:	f3bf 8f5b 	dmb	ish
  e4:	f8c0 1084 	str.w	r1, [r0, #132]	; 0x84
  e8:	f8d4 009c 	ldr.w	r0, [r4, #156]	; 0x9c
  ec:	f100 02e8 	add.w	r2, r0, #232	; 0xe8
  f0:	30d4      	adds	r0, #212	; 0xd4
  f2:	e001      	b.n	f8 <_ZN101_$LT$std..panic..AssertUnwindSafe$LT$F$GT$$u20$as$u20$core..ops..function..FnOnce$LT$$LP$$RP$$GT$$GT$9call_once17h65bedba29079c11cE+0xf8>
  f4:	f3bf 8f2f 	clrex
  f8:	6813      	ldr	r3, [r2, #0]
  fa:	f3bf 8f5b 	dmb	ish
  fe:	02d9      	lsls	r1, r3, #11
 100:	d46c      	bmi.n	1dc <_ZN101_$LT$std..panic..AssertUnwindSafe$LT$F$GT$$u20$as$u20$core..ops..function..FnOnce$LT$$LP$$RP$$GT$$GT$9call_once17h65bedba29079c11cE+0x1dc>
 102:	e852 1f00 	ldrex	r1, [r2]
 106:	4299      	cmp	r1, r3
 108:	d1f4      	bne.n	f4 <_ZN101_$LT$std..panic..AssertUnwindSafe$LT$F$GT$$u20$as$u20$core..ops..function..FnOnce$LT$$LP$$RP$$GT$$GT$9call_once17h65bedba29079c11cE+0xf4>
 10a:	f503 1180 	add.w	r1, r3, #1048576	; 0x100000
 10e:	f3bf 8f5b 	dmb	ish
 112:	e842 1400 	strex	r4, r1, [r2]
 116:	b124      	cbz	r4, 122 <_ZN101_$LT$std..panic..AssertUnwindSafe$LT$F$GT$$u20$as$u20$core..ops..function..FnOnce$LT$$LP$$RP$$GT$$GT$9call_once17h65bedba29079c11cE+0x122>
 118:	e852 4f00 	ldrex	r4, [r2]
 11c:	429c      	cmp	r4, r3
 11e:	d0f8      	beq.n	112 <_ZN101_$LT$std..panic..AssertUnwindSafe$LT$F$GT$$u20$as$u20$core..ops..function..FnOnce$LT$$LP$$RP$$GT$$GT$9call_once17h65bedba29079c11cE+0x112>
 120:	e7e8      	b.n	f4 <_ZN101_$LT$std..panic..AssertUnwindSafe$LT$F$GT$$u20$as$u20$core..ops..function..FnOnce$LT$$LP$$RP$$GT$$GT$9call_once17h65bedba29079c11cE+0xf4>
 122:	f3bf 8f5b 	dmb	ish
 126:	460a      	mov	r2, r1
 128:	46a8      	mov	r8, r5
 12a:	f36f 229f 	bfc	r2, #10, #22
 12e:	b16a      	cbz	r2, 14c <_ZN101_$LT$std..panic..AssertUnwindSafe$LT$F$GT$$u20$as$u20$core..ops..function..FnOnce$LT$$LP$$RP$$GT$$GT$9call_once17h65bedba29079c11cE+0x14c>
 130:	f1bc 0f00 	cmp.w	ip, #0
 134:	dd03      	ble.n	13e <_ZN101_$LT$std..panic..AssertUnwindSafe$LT$F$GT$$u20$as$u20$core..ops..function..FnOnce$LT$$LP$$RP$$GT$$GT$9call_once17h65bedba29079c11cE+0x13e>
 136:	2101      	movs	r1, #1
 138:	f7ff fffe 	bl	0 <_ZN10rayon_core5sleep5Sleep16wake_any_threads17h3c0b629dbe18f96bE>
 13c:	e006      	b.n	14c <_ZN101_$LT$std..panic..AssertUnwindSafe$LT$F$GT$$u20$as$u20$core..ops..function..FnOnce$LT$$LP$$RP$$GT$$GT$9call_once17h65bedba29079c11cE+0x14c>
 13e:	f3c1 2189 	ubfx	r1, r1, #10, #10
 142:	4291      	cmp	r1, r2
 144:	d102      	bne.n	14c <_ZN101_$LT$std..panic..AssertUnwindSafe$LT$F$GT$$u20$as$u20$core..ops..function..FnOnce$LT$$LP$$RP$$GT$$GT$9call_once17h65bedba29079c11cE+0x14c>
 146:	2101      	movs	r1, #1
 148:	f7ff fffe 	bl	0 <_ZN10rayon_core5sleep5Sleep16wake_any_threads17h3c0b629dbe18f96bE>
 14c:	9804      	ldr	r0, [sp, #16]
 14e:	f10d 09b8 	add.w	r9, sp, #184	; 0xb8
 152:	f8dd e00c 	ldr.w	lr, [sp, #12]
 156:	e9d0 2300 	ldrd	r2, r3, [r0]
 15a:	4649      	mov	r1, r9
 15c:	9805      	ldr	r0, [sp, #20]
 15e:	6800      	ldr	r0, [r0, #0]
 160:	e89e 10f0 	ldmia.w	lr, {r4, r5, r6, r7, ip}
 164:	e881 10f0 	stmia.w	r1, {r4, r5, r6, r7, ip}
 168:	9906      	ldr	r1, [sp, #24]
 16a:	9101      	str	r1, [sp, #4]
 16c:	2101      	movs	r1, #1
 16e:	f8cd 9000 	str.w	r9, [sp]
 172:	f7ff fffe 	bl	0 <_ZN5rayon4iter8plumbing24bridge_producer_consumer6helper17hdd8237b084caa040E>
 176:	9c07      	ldr	r4, [sp, #28]
 178:	981e      	ldr	r0, [sp, #120]	; 0x78
 17a:	f3bf 8f5b 	dmb	ish
 17e:	2803      	cmp	r0, #3
 180:	d012      	beq.n	1a8 <_ZN101_$LT$std..panic..AssertUnwindSafe$LT$F$GT$$u20$as$u20$core..ops..function..FnOnce$LT$$LP$$RP$$GT$$GT$9call_once17h65bedba29079c11cE+0x1a8>
 182:	4650      	mov	r0, sl
 184:	f7ff fffe 	bl	0 <_ZN15crossbeam_deque5deque15Worker$LT$T$GT$3pop17h80734e944a6ab7b4E>
 188:	b129      	cbz	r1, 196 <_ZN101_$LT$std..panic..AssertUnwindSafe$LT$F$GT$$u20$as$u20$core..ops..function..FnOnce$LT$$LP$$RP$$GT$$GT$9call_once17h65bedba29079c11cE+0x196>
 18a:	4558      	cmp	r0, fp
 18c:	bf08      	it	eq
 18e:	4541      	cmpeq	r1, r8
 190:	d013      	beq.n	1ba <_ZN101_$LT$std..panic..AssertUnwindSafe$LT$F$GT$$u20$as$u20$core..ops..function..FnOnce$LT$$LP$$RP$$GT$$GT$9call_once17h65bedba29079c11cE+0x1ba>
 192:	4788      	blx	r1
 194:	e7f0      	b.n	178 <_ZN101_$LT$std..panic..AssertUnwindSafe$LT$F$GT$$u20$as$u20$core..ops..function..FnOnce$LT$$LP$$RP$$GT$$GT$9call_once17h65bedba29079c11cE+0x178>
 196:	981e      	ldr	r0, [sp, #120]	; 0x78
 198:	f3bf 8f5b 	dmb	ish
 19c:	2803      	cmp	r0, #3
 19e:	d003      	beq.n	1a8 <_ZN101_$LT$std..panic..AssertUnwindSafe$LT$F$GT$$u20$as$u20$core..ops..function..FnOnce$LT$$LP$$RP$$GT$$GT$9call_once17h65bedba29079c11cE+0x1a8>
 1a0:	a91e      	add	r1, sp, #120	; 0x78
 1a2:	4620      	mov	r0, r4
 1a4:	f7ff fffe 	bl	0 <_ZN10rayon_core8registry12WorkerThread15wait_until_cold17h95a5b16b89273158E>
 1a8:	982b      	ldr	r0, [sp, #172]	; 0xac
 1aa:	2801      	cmp	r0, #1
 1ac:	d013      	beq.n	1d6 <_ZN101_$LT$std..panic..AssertUnwindSafe$LT$F$GT$$u20$as$u20$core..ops..function..FnOnce$LT$$LP$$RP$$GT$$GT$9call_once17h65bedba29079c11cE+0x1d6>
 1ae:	b358      	cbz	r0, 208 <_ZN101_$LT$std..panic..AssertUnwindSafe$LT$F$GT$$u20$as$u20$core..ops..function..FnOnce$LT$$LP$$RP$$GT$$GT$9call_once17h65bedba29079c11cE+0x208>
 1b0:	e9dd 012c 	ldrd	r0, r1, [sp, #176]	; 0xb0
 1b4:	f7ff fffe 	bl	0 <_ZN10rayon_core6unwind16resume_unwinding17hc8cbe5894cf13d66E>
 1b8:	e03a      	b.n	230 <_ZN101_$LT$std..panic..AssertUnwindSafe$LT$F$GT$$u20$as$u20$core..ops..function..FnOnce$LT$$LP$$RP$$GT$$GT$9call_once17h65bedba29079c11cE+0x230>
 1ba:	e8bb 00ce 	ldmia.w	fp!, {r1, r2, r3, r6, r7}
 1be:	4648      	mov	r0, r9
 1c0:	c0ce      	stmia	r0!, {r1, r2, r3, r6, r7}
 1c2:	e8bb 00ce 	ldmia.w	fp!, {r1, r2, r3, r6, r7}
 1c6:	c0ce      	stmia	r0!, {r1, r2, r3, r6, r7}
 1c8:	e89b 00ee 	ldmia.w	fp, {r1, r2, r3, r5, r6, r7}
 1cc:	c0ee      	stmia	r0!, {r1, r2, r3, r5, r6, r7}
 1ce:	4648      	mov	r0, r9
 1d0:	2101      	movs	r1, #1
 1d2:	f7ff fffe 	bl	0 <_ZN10rayon_core3job25StackJob$LT$L$C$F$C$R$GT$10run_inline17h0088bc65a753b4c1E>
 1d6:	b03f      	add	sp, #252	; 0xfc
 1d8:	e8bd 8ff0 	ldmia.w	sp!, {r4, r5, r6, r7, r8, r9, sl, fp, pc}
 1dc:	4619      	mov	r1, r3
 1de:	e7a2      	b.n	126 <_ZN101_$LT$std..panic..AssertUnwindSafe$LT$F$GT$$u20$as$u20$core..ops..function..FnOnce$LT$$LP$$RP$$GT$$GT$9call_once17h65bedba29079c11cE+0x126>
 1e0:	481e      	ldr	r0, [pc, #120]	; (25c <_ZN101_$LT$std..panic..AssertUnwindSafe$LT$F$GT$$u20$as$u20$core..ops..function..FnOnce$LT$$LP$$RP$$GT$$GT$9call_once17h65bedba29079c11cE+0x25c>)
 1e2:	aa2e      	add	r2, sp, #184	; 0xb8
 1e4:	4b1e      	ldr	r3, [pc, #120]	; (260 <_ZN101_$LT$std..panic..AssertUnwindSafe$LT$F$GT$$u20$as$u20$core..ops..function..FnOnce$LT$$LP$$RP$$GT$$GT$9call_once17h65bedba29079c11cE+0x260>)
 1e6:	491f      	ldr	r1, [pc, #124]	; (264 <_ZN101_$LT$std..panic..AssertUnwindSafe$LT$F$GT$$u20$as$u20$core..ops..function..FnOnce$LT$$LP$$RP$$GT$$GT$9call_once17h65bedba29079c11cE+0x264>)
 1e8:	4478      	add	r0, pc
 1ea:	447b      	add	r3, pc
 1ec:	4479      	add	r1, pc
 1ee:	9100      	str	r1, [sp, #0]
 1f0:	2146      	movs	r1, #70	; 0x46
 1f2:	f7ff fffe 	bl	0 <_ZN4core6result13unwrap_failed17h6876d5cfd943f5b2E>
 1f6:	defe      	udf	#254	; 0xfe
 1f8:	4816      	ldr	r0, [pc, #88]	; (254 <_ZN101_$LT$std..panic..AssertUnwindSafe$LT$F$GT$$u20$as$u20$core..ops..function..FnOnce$LT$$LP$$RP$$GT$$GT$9call_once17h65bedba29079c11cE+0x254>)
 1fa:	2136      	movs	r1, #54	; 0x36
 1fc:	4a16      	ldr	r2, [pc, #88]	; (258 <_ZN101_$LT$std..panic..AssertUnwindSafe$LT$F$GT$$u20$as$u20$core..ops..function..FnOnce$LT$$LP$$RP$$GT$$GT$9call_once17h65bedba29079c11cE+0x258>)
 1fe:	4478      	add	r0, pc
 200:	447a      	add	r2, pc
 202:	f7ff fffe 	bl	0 <_ZN3std9panicking11begin_panic17hcd9d16c2595f8af4E>
 206:	defe      	udf	#254	; 0xfe
 208:	4810      	ldr	r0, [pc, #64]	; (24c <_ZN101_$LT$std..panic..AssertUnwindSafe$LT$F$GT$$u20$as$u20$core..ops..function..FnOnce$LT$$LP$$RP$$GT$$GT$9call_once17h65bedba29079c11cE+0x24c>)
 20a:	4a11      	ldr	r2, [pc, #68]	; (250 <_ZN101_$LT$std..panic..AssertUnwindSafe$LT$F$GT$$u20$as$u20$core..ops..function..FnOnce$LT$$LP$$RP$$GT$$GT$9call_once17h65bedba29079c11cE+0x250>)
 20c:	4478      	add	r0, pc
 20e:	447a      	add	r2, pc
 210:	2128      	movs	r1, #40	; 0x28
 212:	f7ff fffe 	bl	0 <_ZN3std9panicking11begin_panic17hcd9d16c2595f8af4E>
 216:	e00b      	b.n	230 <_ZN101_$LT$std..panic..AssertUnwindSafe$LT$F$GT$$u20$as$u20$core..ops..function..FnOnce$LT$$LP$$RP$$GT$$GT$9call_once17h65bedba29079c11cE+0x230>
 218:	e000      	b.n	21c <_ZN101_$LT$std..panic..AssertUnwindSafe$LT$F$GT$$u20$as$u20$core..ops..function..FnOnce$LT$$LP$$RP$$GT$$GT$9call_once17h65bedba29079c11cE+0x21c>
 21a:	e00c      	b.n	236 <_ZN101_$LT$std..panic..AssertUnwindSafe$LT$F$GT$$u20$as$u20$core..ops..function..FnOnce$LT$$LP$$RP$$GT$$GT$9call_once17h65bedba29079c11cE+0x236>
 21c:	4604      	mov	r4, r0
 21e:	e00e      	b.n	23e <_ZN101_$LT$std..panic..AssertUnwindSafe$LT$F$GT$$u20$as$u20$core..ops..function..FnOnce$LT$$LP$$RP$$GT$$GT$9call_once17h65bedba29079c11cE+0x23e>
 220:	f7ff fffe 	bl	0 <_ZN3std9panicking3try7cleanup17he668a406887398feE>
 224:	4602      	mov	r2, r0
 226:	9807      	ldr	r0, [sp, #28]
 228:	460b      	mov	r3, r1
 22a:	a91e      	add	r1, sp, #120	; 0x78
 22c:	f7ff fffe 	bl	0 <_ZN10rayon_core4join23join_recover_from_panic17hca11631bc082a075E>
 230:	defe      	udf	#254	; 0xfe
 232:	e000      	b.n	236 <_ZN101_$LT$std..panic..AssertUnwindSafe$LT$F$GT$$u20$as$u20$core..ops..function..FnOnce$LT$$LP$$RP$$GT$$GT$9call_once17h65bedba29079c11cE+0x236>
 234:	e7ff      	b.n	236 <_ZN101_$LT$std..panic..AssertUnwindSafe$LT$F$GT$$u20$as$u20$core..ops..function..FnOnce$LT$$LP$$RP$$GT$$GT$9call_once17h65bedba29079c11cE+0x236>
 236:	4604      	mov	r4, r0
 238:	a81e      	add	r0, sp, #120	; 0x78
 23a:	f7ff fffe 	bl	0 <_ZN101_$LT$std..panic..AssertUnwindSafe$LT$F$GT$$u20$as$u20$core..ops..function..FnOnce$LT$$LP$$RP$$GT$$GT$9call_once17h65bedba29079c11cE>
 23e:	4620      	mov	r0, r4
 240:	f7ff fffe 	bl	0 <_Unwind_Resume>
 244:	defe      	udf	#254	; 0xfe
 246:	bf00      	nop
 248:	00000180 	andeq	r0, r0, r0, lsl #3
 24c:	0000003c 	andeq	r0, r0, ip, lsr r0
 250:	0000003e 	andeq	r0, r0, lr, lsr r0
 254:	00000052 	andeq	r0, r0, r2, asr r0
 258:	00000054 	andeq	r0, r0, r4, asr r0
 25c:	00000070 	andeq	r0, r0, r0, ror r0
 260:	00000072 	andeq	r0, r0, r2, ror r0
 264:	00000074 	andeq	r0, r0, r4, ror r0

Disassembly of section .text._ZN101_$LT$std..panic..AssertUnwindSafe$LT$F$GT$$u20$as$u20$core..ops..function..FnOnce$LT$$LP$$RP$$GT$$GT$9call_once17h7390000ad628e8e5E:

00000000 <_ZN101_$LT$std..panic..AssertUnwindSafe$LT$F$GT$$u20$as$u20$core..ops..function..FnOnce$LT$$LP$$RP$$GT$$GT$9call_once17h7390000ad628e8e5E>:
   0:	e92d 47f0 	stmdb	sp!, {r4, r5, r6, r7, r8, r9, sl, lr}
   4:	b088      	sub	sp, #32
   6:	e9d0 c100 	ldrd	ip, r1, [r0]
   a:	f100 0a0c 	add.w	sl, r0, #12
   e:	6883      	ldr	r3, [r0, #8]
  10:	f8d0 e020 	ldr.w	lr, [r0, #32]
  14:	f8dc 9000 	ldr.w	r9, [ip]
  18:	f10d 0c08 	add.w	ip, sp, #8
  1c:	e9d3 2300 	ldrd	r2, r3, [r3]
  20:	f8d1 8000 	ldr.w	r8, [r1]
  24:	4665      	mov	r5, ip
  26:	e89a 00d3 	ldmia.w	sl, {r0, r1, r4, r6, r7}
  2a:	c5d3      	stmia	r5!, {r0, r1, r4, r6, r7}
  2c:	eba9 0008 	sub.w	r0, r9, r8
  30:	2101      	movs	r1, #1
  32:	e9cd ce00 	strd	ip, lr, [sp]
  36:	f7ff fffe 	bl	0 <_ZN5rayon4iter8plumbing24bridge_producer_consumer6helper17hdd8237b084caa040E>
  3a:	b008      	add	sp, #32
  3c:	e8bd 87f0 	ldmia.w	sp!, {r4, r5, r6, r7, r8, r9, sl, pc}

Disassembly of section .text._ZN101_$LT$std..panic..AssertUnwindSafe$LT$F$GT$$u20$as$u20$core..ops..function..FnOnce$LT$$LP$$RP$$GT$$GT$9call_once17h74b7d861e77e8b24E:

00000000 <_ZN101_$LT$std..panic..AssertUnwindSafe$LT$F$GT$$u20$as$u20$core..ops..function..FnOnce$LT$$LP$$RP$$GT$$GT$9call_once17h74b7d861e77e8b24E>:
   0:	b5f0      	push	{r4, r5, r6, r7, lr}
   2:	b087      	sub	sp, #28
   4:	e9d0 c300 	ldrd	ip, r3, [r0]
   8:	f100 0710 	add.w	r7, r0, #16
   c:	7f01      	ldrb	r1, [r0, #28]
   e:	e9d0 e402 	ldrd	lr, r4, [r0, #8]
  12:	f8dc 0000 	ldr.w	r0, [ip]
  16:	f10d 0c10 	add.w	ip, sp, #16
  1a:	e9d3 2300 	ldrd	r2, r3, [r3]
  1e:	2900      	cmp	r1, #0
  20:	cfe0      	ldmia	r7, {r5, r6, r7}
  22:	e9cd e400 	strd	lr, r4, [sp]
  26:	e88c 00e0 	stmia.w	ip, {r5, r6, r7}
  2a:	af04      	add	r7, sp, #16
  2c:	9702      	str	r7, [sp, #8]
  2e:	bf18      	it	ne
  30:	2101      	movne	r1, #1
  32:	f7ff fffe 	bl	0 <_ZN5rayon4iter8plumbing24bridge_producer_consumer6helper17h5951f102c24bee8eE>
  36:	b007      	add	sp, #28
  38:	bdf0      	pop	{r4, r5, r6, r7, pc}

Disassembly of section .text._ZN101_$LT$std..panic..AssertUnwindSafe$LT$F$GT$$u20$as$u20$core..ops..function..FnOnce$LT$$LP$$RP$$GT$$GT$9call_once17h823c125b0047260eE:

00000000 <_ZN101_$LT$std..panic..AssertUnwindSafe$LT$F$GT$$u20$as$u20$core..ops..function..FnOnce$LT$$LP$$RP$$GT$$GT$9call_once17h823c125b0047260eE>:
   0:	e92d 4ff0 	stmdb	sp!, {r4, r5, r6, r7, r8, r9, sl, fp, lr}
   4:	b0b9      	sub	sp, #228	; 0xe4
   6:	9004      	str	r0, [sp, #16]
   8:	4608      	mov	r0, r1
   a:	ac0c      	add	r4, sp, #48	; 0x30
   c:	c8e8      	ldmia	r0!, {r3, r5, r6, r7}
   e:	4622      	mov	r2, r4
  10:	c2e8      	stmia	r2!, {r3, r5, r6, r7}
  12:	e890 00e8 	ldmia.w	r0, {r3, r5, r6, r7}
  16:	c2e8      	stmia	r2!, {r3, r5, r6, r7}
  18:	e9d1 020c 	ldrd	r0, r2, [r1, #48]	; 0x30
  1c:	e9d1 7908 	ldrd	r7, r9, [r1, #32]
  20:	e9d1 560a 	ldrd	r5, r6, [r1, #40]	; 0x28
  24:	6b89      	ldr	r1, [r1, #56]	; 0x38
  26:	e9cd 0208 	strd	r0, r2, [sp, #32]
  2a:	910a      	str	r1, [sp, #40]	; 0x28
  2c:	f7ff fffe 	bl	0 <_ZN10rayon_core8registry19WORKER_THREAD_STATE7__getit17hff623596f561e726E>
  30:	2800      	cmp	r0, #0
  32:	f000 80ec 	beq.w	20e <_ZN101_$LT$std..panic..AssertUnwindSafe$LT$F$GT$$u20$as$u20$core..ops..function..FnOnce$LT$$LP$$RP$$GT$$GT$9call_once17h823c125b0047260eE+0x20e>
  36:	e9cd 7605 	strd	r7, r6, [sp, #20]
  3a:	f8d0 b000 	ldr.w	fp, [r0]
  3e:	9507      	str	r5, [sp, #28]
  40:	f1bb 0f00 	cmp.w	fp, #0
  44:	f000 80ef 	beq.w	226 <_ZN101_$LT$std..panic..AssertUnwindSafe$LT$F$GT$$u20$as$u20$core..ops..function..FnOnce$LT$$LP$$RP$$GT$$GT$9call_once17h823c125b0047260eE+0x226>
  48:	aa08      	add	r2, sp, #32
  4a:	ab14      	add	r3, sp, #80	; 0x50
  4c:	af18      	add	r7, sp, #96	; 0x60
  4e:	ca07      	ldmia	r2, {r0, r1, r2}
  50:	c307      	stmia	r3!, {r0, r1, r2}
  52:	2100      	movs	r1, #0
  54:	f8db 0098 	ldr.w	r0, [fp, #152]	; 0x98
  58:	901a      	str	r0, [sp, #104]	; 0x68
  5a:	f10b 009c 	add.w	r0, fp, #156	; 0x9c
  5e:	f88d 106c 	strb.w	r1, [sp, #108]	; 0x6c
  62:	e9cd 1018 	strd	r1, r0, [sp, #96]	; 0x60
  66:	f107 0010 	add.w	r0, r7, #16
  6a:	cc6c      	ldmia	r4!, {r2, r3, r5, r6}
  6c:	c06c      	stmia	r0!, {r2, r3, r5, r6}
  6e:	e894 006c 	ldmia.w	r4, {r2, r3, r5, r6}
  72:	c06c      	stmia	r0!, {r2, r3, r5, r6}
  74:	465e      	mov	r6, fp
  76:	f856 0f88 	ldr.w	r0, [r6, #136]!
  7a:	9124      	str	r1, [sp, #144]	; 0x90
  7c:	f8d0 4084 	ldr.w	r4, [r0, #132]	; 0x84
  80:	f8d0 8080 	ldr.w	r8, [r0, #128]	; 0x80
  84:	f3bf 8f5b 	dmb	ish
  88:	6830      	ldr	r0, [r6, #0]
  8a:	f8d0 a084 	ldr.w	sl, [r0, #132]	; 0x84
  8e:	f8d0 1080 	ldr.w	r1, [r0, #128]	; 0x80
  92:	f3bf 8f5b 	dmb	ish
  96:	68b0      	ldr	r0, [r6, #8]
  98:	ebaa 0101 	sub.w	r1, sl, r1
  9c:	4281      	cmp	r1, r0
  9e:	db05      	blt.n	ac <_ZN101_$LT$std..panic..AssertUnwindSafe$LT$F$GT$$u20$as$u20$core..ops..function..FnOnce$LT$$LP$$RP$$GT$$GT$9call_once17h823c125b0047260eE+0xac>
  a0:	0041      	lsls	r1, r0, #1
  a2:	4630      	mov	r0, r6
  a4:	f7ff fffe 	bl	0 <_ZN15crossbeam_deque5deque15Worker$LT$T$GT$6resize17h31cf7956d1cbeabbE.llvm.15082459741529278717>
  a8:	f8db 0090 	ldr.w	r0, [fp, #144]	; 0x90
  ac:	3801      	subs	r0, #1
  ae:	eba4 0c08 	sub.w	ip, r4, r8
  b2:	4c72      	ldr	r4, [pc, #456]	; (27c <_ZN101_$LT$std..panic..AssertUnwindSafe$LT$F$GT$$u20$as$u20$core..ops..function..FnOnce$LT$$LP$$RP$$GT$$GT$9call_once17h823c125b0047260eE+0x27c>)
  b4:	ea00 000a 	and.w	r0, r0, sl
  b8:	f8db 108c 	ldr.w	r1, [fp, #140]	; 0x8c
  bc:	447c      	add	r4, pc
  be:	f841 7030 	str.w	r7, [r1, r0, lsl #3]
  c2:	eb01 00c0 	add.w	r0, r1, r0, lsl #3
  c6:	f10a 0101 	add.w	r1, sl, #1
  ca:	6044      	str	r4, [r0, #4]
  cc:	f3bf 8f5b 	dmb	ish
  d0:	f8db 0088 	ldr.w	r0, [fp, #136]	; 0x88
  d4:	f3bf 8f5b 	dmb	ish
  d8:	f8c0 1084 	str.w	r1, [r0, #132]	; 0x84
  dc:	f8db 009c 	ldr.w	r0, [fp, #156]	; 0x9c
  e0:	f100 02e8 	add.w	r2, r0, #232	; 0xe8
  e4:	30d4      	adds	r0, #212	; 0xd4
  e6:	e001      	b.n	ec <_ZN101_$LT$std..panic..AssertUnwindSafe$LT$F$GT$$u20$as$u20$core..ops..function..FnOnce$LT$$LP$$RP$$GT$$GT$9call_once17h823c125b0047260eE+0xec>
  e8:	f3bf 8f2f 	clrex
  ec:	6813      	ldr	r3, [r2, #0]
  ee:	f3bf 8f5b 	dmb	ish
  f2:	02d9      	lsls	r1, r3, #11
  f4:	f100 8089 	bmi.w	20a <_ZN101_$LT$std..panic..AssertUnwindSafe$LT$F$GT$$u20$as$u20$core..ops..function..FnOnce$LT$$LP$$RP$$GT$$GT$9call_once17h823c125b0047260eE+0x20a>
  f8:	e852 1f00 	ldrex	r1, [r2]
  fc:	4299      	cmp	r1, r3
  fe:	d1f3      	bne.n	e8 <_ZN101_$LT$std..panic..AssertUnwindSafe$LT$F$GT$$u20$as$u20$core..ops..function..FnOnce$LT$$LP$$RP$$GT$$GT$9call_once17h823c125b0047260eE+0xe8>
 100:	f503 1180 	add.w	r1, r3, #1048576	; 0x100000
 104:	f3bf 8f5b 	dmb	ish
 108:	e842 1500 	strex	r5, r1, [r2]
 10c:	b125      	cbz	r5, 118 <_ZN101_$LT$std..panic..AssertUnwindSafe$LT$F$GT$$u20$as$u20$core..ops..function..FnOnce$LT$$LP$$RP$$GT$$GT$9call_once17h823c125b0047260eE+0x118>
 10e:	e852 5f00 	ldrex	r5, [r2]
 112:	429d      	cmp	r5, r3
 114:	d0f8      	beq.n	108 <_ZN101_$LT$std..panic..AssertUnwindSafe$LT$F$GT$$u20$as$u20$core..ops..function..FnOnce$LT$$LP$$RP$$GT$$GT$9call_once17h823c125b0047260eE+0x108>
 116:	e7e7      	b.n	e8 <_ZN101_$LT$std..panic..AssertUnwindSafe$LT$F$GT$$u20$as$u20$core..ops..function..FnOnce$LT$$LP$$RP$$GT$$GT$9call_once17h823c125b0047260eE+0xe8>
 118:	f3bf 8f5b 	dmb	ish
 11c:	460a      	mov	r2, r1
 11e:	46a2      	mov	sl, r4
 120:	f36f 229f 	bfc	r2, #10, #22
 124:	b16a      	cbz	r2, 142 <_ZN101_$LT$std..panic..AssertUnwindSafe$LT$F$GT$$u20$as$u20$core..ops..function..FnOnce$LT$$LP$$RP$$GT$$GT$9call_once17h823c125b0047260eE+0x142>
 126:	f1bc 0f00 	cmp.w	ip, #0
 12a:	dd03      	ble.n	134 <_ZN101_$LT$std..panic..AssertUnwindSafe$LT$F$GT$$u20$as$u20$core..ops..function..FnOnce$LT$$LP$$RP$$GT$$GT$9call_once17h823c125b0047260eE+0x134>
 12c:	2101      	movs	r1, #1
 12e:	f7ff fffe 	bl	0 <_ZN10rayon_core5sleep5Sleep16wake_any_threads17h3c0b629dbe18f96bE>
 132:	e006      	b.n	142 <_ZN101_$LT$std..panic..AssertUnwindSafe$LT$F$GT$$u20$as$u20$core..ops..function..FnOnce$LT$$LP$$RP$$GT$$GT$9call_once17h823c125b0047260eE+0x142>
 134:	f3c1 2189 	ubfx	r1, r1, #10, #10
 138:	4291      	cmp	r1, r2
 13a:	d102      	bne.n	142 <_ZN101_$LT$std..panic..AssertUnwindSafe$LT$F$GT$$u20$as$u20$core..ops..function..FnOnce$LT$$LP$$RP$$GT$$GT$9call_once17h823c125b0047260eE+0x142>
 13c:	2101      	movs	r1, #1
 13e:	f7ff fffe 	bl	0 <_ZN10rayon_core5sleep5Sleep16wake_any_threads17h3c0b629dbe18f96bE>
 142:	9805      	ldr	r0, [sp, #20]
 144:	e9dd 1514 	ldrd	r1, r5, [sp, #80]	; 0x50
 148:	9c16      	ldr	r4, [sp, #88]	; 0x58
 14a:	6800      	ldr	r0, [r0, #0]
 14c:	e9d9 2300 	ldrd	r2, r3, [r9]
 150:	942c      	str	r4, [sp, #176]	; 0xb0
 152:	e9cd 152a 	strd	r1, r5, [sp, #168]	; 0xa8
 156:	9907      	ldr	r1, [sp, #28]
 158:	f10d 08a8 	add.w	r8, sp, #168	; 0xa8
 15c:	9100      	str	r1, [sp, #0]
 15e:	9906      	ldr	r1, [sp, #24]
 160:	e9cd 1801 	strd	r1, r8, [sp, #4]
 164:	2101      	movs	r1, #1
 166:	f7ff fffe 	bl	0 <_ZN5rayon4iter8plumbing24bridge_producer_consumer6helper17h5951f102c24bee8eE>
 16a:	e9cd 0128 	strd	r0, r1, [sp, #160]	; 0xa0
 16e:	9818      	ldr	r0, [sp, #96]	; 0x60
 170:	f3bf 8f5b 	dmb	ish
 174:	2803      	cmp	r0, #3
 176:	d013      	beq.n	1a0 <_ZN101_$LT$std..panic..AssertUnwindSafe$LT$F$GT$$u20$as$u20$core..ops..function..FnOnce$LT$$LP$$RP$$GT$$GT$9call_once17h823c125b0047260eE+0x1a0>
 178:	4630      	mov	r0, r6
 17a:	f7ff fffe 	bl	0 <_ZN15crossbeam_deque5deque15Worker$LT$T$GT$3pop17h80734e944a6ab7b4E>
 17e:	b129      	cbz	r1, 18c <_ZN101_$LT$std..panic..AssertUnwindSafe$LT$F$GT$$u20$as$u20$core..ops..function..FnOnce$LT$$LP$$RP$$GT$$GT$9call_once17h823c125b0047260eE+0x18c>
 180:	42b8      	cmp	r0, r7
 182:	bf08      	it	eq
 184:	4551      	cmpeq	r1, sl
 186:	d021      	beq.n	1cc <_ZN101_$LT$std..panic..AssertUnwindSafe$LT$F$GT$$u20$as$u20$core..ops..function..FnOnce$LT$$LP$$RP$$GT$$GT$9call_once17h823c125b0047260eE+0x1cc>
 188:	4788      	blx	r1
 18a:	e7f0      	b.n	16e <_ZN101_$LT$std..panic..AssertUnwindSafe$LT$F$GT$$u20$as$u20$core..ops..function..FnOnce$LT$$LP$$RP$$GT$$GT$9call_once17h823c125b0047260eE+0x16e>
 18c:	9818      	ldr	r0, [sp, #96]	; 0x60
 18e:	f3bf 8f5b 	dmb	ish
 192:	2803      	cmp	r0, #3
 194:	d004      	beq.n	1a0 <_ZN101_$LT$std..panic..AssertUnwindSafe$LT$F$GT$$u20$as$u20$core..ops..function..FnOnce$LT$$LP$$RP$$GT$$GT$9call_once17h823c125b0047260eE+0x1a0>
 196:	2600      	movs	r6, #0
 198:	a918      	add	r1, sp, #96	; 0x60
 19a:	4658      	mov	r0, fp
 19c:	f7ff fffe 	bl	0 <_ZN10rayon_core8registry12WorkerThread15wait_until_cold17h95a5b16b89273158E>
 1a0:	e9dd 3728 	ldrd	r3, r7, [sp, #160]	; 0xa0
 1a4:	e9dd 2024 	ldrd	r2, r0, [sp, #144]	; 0x90
 1a8:	9926      	ldr	r1, [sp, #152]	; 0x98
 1aa:	2a01      	cmp	r2, #1
 1ac:	e9cd 372a 	strd	r3, r7, [sp, #168]	; 0xa8
 1b0:	bf01      	itttt	eq
 1b2:	9a04      	ldreq	r2, [sp, #16]
 1b4:	e9c2 3700 	strdeq	r3, r7, [r2]
 1b8:	e9c2 0102 	strdeq	r0, r1, [r2, #8]
 1bc:	b039      	addeq	sp, #228	; 0xe4
 1be:	bf08      	it	eq
 1c0:	e8bd 8ff0 	ldmiaeq.w	sp!, {r4, r5, r6, r7, r8, r9, sl, fp, pc}
 1c4:	b1ca      	cbz	r2, 36 <_ZN10rayon_core6unwind16resume_unwinding17hc8cbe5894cf13d66E+0x36>
 1c6:	f7ff fffe 	bl	0 <_ZN10rayon_core6unwind16resume_unwinding17hc8cbe5894cf13d66E>
 1ca:	e01d      	b.n	208 <_ZN101_$LT$std..panic..AssertUnwindSafe$LT$F$GT$$u20$as$u20$core..ops..function..FnOnce$LT$$LP$$RP$$GT$$GT$9call_once17h823c125b0047260eE+0x208>
 1cc:	cf6e      	ldmia	r7!, {r1, r2, r3, r5, r6}
 1ce:	4640      	mov	r0, r8
 1d0:	c06e      	stmia	r0!, {r1, r2, r3, r5, r6}
 1d2:	cf6e      	ldmia	r7!, {r1, r2, r3, r5, r6}
 1d4:	c06e      	stmia	r0!, {r1, r2, r3, r5, r6}
 1d6:	e897 006e 	ldmia.w	r7, {r1, r2, r3, r5, r6}
 1da:	c06e      	stmia	r0!, {r1, r2, r3, r5, r6}
 1dc:	2601      	movs	r6, #1
 1de:	4640      	mov	r0, r8
 1e0:	2101      	movs	r1, #1
 1e2:	f7ff fffe 	bl	0 <_ZN10rayon_core3job25StackJob$LT$L$C$F$C$R$GT$10run_inline17h2d32b601bc09e1a5E>
 1e6:	9f04      	ldr	r7, [sp, #16]
 1e8:	e9dd 2328 	ldrd	r2, r3, [sp, #160]	; 0xa0
 1ec:	e9c7 2300 	strd	r2, r3, [r7]
 1f0:	e9c7 0102 	strd	r0, r1, [r7, #8]
 1f4:	b039      	add	sp, #228	; 0xe4
 1f6:	e8bd 8ff0 	ldmia.w	sp!, {r4, r5, r6, r7, r8, r9, sl, fp, pc}
 1fa:	4821      	ldr	r0, [pc, #132]	; (280 <_ZN101_$LT$std..panic..AssertUnwindSafe$LT$F$GT$$u20$as$u20$core..ops..function..FnOnce$LT$$LP$$RP$$GT$$GT$9call_once17h823c125b0047260eE+0x280>)
 1fc:	4a21      	ldr	r2, [pc, #132]	; (284 <_ZN101_$LT$std..panic..AssertUnwindSafe$LT$F$GT$$u20$as$u20$core..ops..function..FnOnce$LT$$LP$$RP$$GT$$GT$9call_once17h823c125b0047260eE+0x284>)
 1fe:	4478      	add	r0, pc
 200:	447a      	add	r2, pc
 202:	2128      	movs	r1, #40	; 0x28
 204:	f7ff fffe 	bl	0 <_ZN3std9panicking11begin_panic17hcd9d16c2595f8af4E>
 208:	defe      	udf	#254	; 0xfe
 20a:	4619      	mov	r1, r3
 20c:	e786      	b.n	11c <_ZN101_$LT$std..panic..AssertUnwindSafe$LT$F$GT$$u20$as$u20$core..ops..function..FnOnce$LT$$LP$$RP$$GT$$GT$9call_once17h823c125b0047260eE+0x11c>
 20e:	4820      	ldr	r0, [pc, #128]	; (290 <_ZN101_$LT$std..panic..AssertUnwindSafe$LT$F$GT$$u20$as$u20$core..ops..function..FnOnce$LT$$LP$$RP$$GT$$GT$9call_once17h823c125b0047260eE+0x290>)
 210:	aa2a      	add	r2, sp, #168	; 0xa8
 212:	4b20      	ldr	r3, [pc, #128]	; (294 <_ZN101_$LT$std..panic..AssertUnwindSafe$LT$F$GT$$u20$as$u20$core..ops..function..FnOnce$LT$$LP$$RP$$GT$$GT$9call_once17h823c125b0047260eE+0x294>)
 214:	4920      	ldr	r1, [pc, #128]	; (298 <_ZN101_$LT$std..panic..AssertUnwindSafe$LT$F$GT$$u20$as$u20$core..ops..function..FnOnce$LT$$LP$$RP$$GT$$GT$9call_once17h823c125b0047260eE+0x298>)
 216:	4478      	add	r0, pc
 218:	447b      	add	r3, pc
 21a:	4479      	add	r1, pc
 21c:	9100      	str	r1, [sp, #0]
 21e:	2146      	movs	r1, #70	; 0x46
 220:	f7ff fffe 	bl	0 <_ZN4core6result13unwrap_failed17h6876d5cfd943f5b2E>
 224:	defe      	udf	#254	; 0xfe
 226:	4818      	ldr	r0, [pc, #96]	; (288 <_ZN101_$LT$std..panic..AssertUnwindSafe$LT$F$GT$$u20$as$u20$core..ops..function..FnOnce$LT$$LP$$RP$$GT$$GT$9call_once17h823c125b0047260eE+0x288>)
 228:	2136      	movs	r1, #54	; 0x36
 22a:	4a18      	ldr	r2, [pc, #96]	; (28c <_ZN101_$LT$std..panic..AssertUnwindSafe$LT$F$GT$$u20$as$u20$core..ops..function..FnOnce$LT$$LP$$RP$$GT$$GT$9call_once17h823c125b0047260eE+0x28c>)
 22c:	4478      	add	r0, pc
 22e:	447a      	add	r2, pc
 230:	f7ff fffe 	bl	0 <_ZN3std9panicking11begin_panic17hcd9d16c2595f8af4E>
 234:	defe      	udf	#254	; 0xfe
 236:	4604      	mov	r4, r0
 238:	a828      	add	r0, sp, #160	; 0xa0
 23a:	f7ff fffe 	bl	0 <_ZN101_$LT$std..panic..AssertUnwindSafe$LT$F$GT$$u20$as$u20$core..ops..function..FnOnce$LT$$LP$$RP$$GT$$GT$9call_once17h823c125b0047260eE>
 23e:	b1ae      	cbz	r6, 26c <_ZN101_$LT$std..panic..AssertUnwindSafe$LT$F$GT$$u20$as$u20$core..ops..function..FnOnce$LT$$LP$$RP$$GT$$GT$9call_once17h823c125b0047260eE+0x26c>
 240:	e017      	b.n	272 <_ZN101_$LT$std..panic..AssertUnwindSafe$LT$F$GT$$u20$as$u20$core..ops..function..FnOnce$LT$$LP$$RP$$GT$$GT$9call_once17h823c125b0047260eE+0x272>
 242:	4604      	mov	r4, r0
 244:	a82a      	add	r0, sp, #168	; 0xa8
 246:	f7ff fffe 	bl	0 <_ZN101_$LT$std..panic..AssertUnwindSafe$LT$F$GT$$u20$as$u20$core..ops..function..FnOnce$LT$$LP$$RP$$GT$$GT$9call_once17h823c125b0047260eE>
 24a:	e012      	b.n	28 <_ZN3std9panicking3try7cleanup17he668a406887398feE+0x28>
 24c:	f7ff fffe 	bl	0 <_ZN3std9panicking3try7cleanup17he668a406887398feE>
 250:	4602      	mov	r2, r0
 252:	460b      	mov	r3, r1
 254:	a918      	add	r1, sp, #96	; 0x60
 256:	4658      	mov	r0, fp
 258:	f7ff fffe 	bl	0 <_ZN10rayon_core4join23join_recover_from_panic17hca11631bc082a075E>
 25c:	e7d4      	b.n	208 <_ZN101_$LT$std..panic..AssertUnwindSafe$LT$F$GT$$u20$as$u20$core..ops..function..FnOnce$LT$$LP$$RP$$GT$$GT$9call_once17h823c125b0047260eE+0x208>
 25e:	e7ff      	b.n	260 <_ZN101_$LT$std..panic..AssertUnwindSafe$LT$F$GT$$u20$as$u20$core..ops..function..FnOnce$LT$$LP$$RP$$GT$$GT$9call_once17h823c125b0047260eE+0x260>
 260:	4604      	mov	r4, r0
 262:	e003      	b.n	26c <_ZN101_$LT$std..panic..AssertUnwindSafe$LT$F$GT$$u20$as$u20$core..ops..function..FnOnce$LT$$LP$$RP$$GT$$GT$9call_once17h823c125b0047260eE+0x26c>
 264:	4604      	mov	r4, r0
 266:	a828      	add	r0, sp, #160	; 0xa0
 268:	f7ff fffe 	bl	0 <_ZN101_$LT$std..panic..AssertUnwindSafe$LT$F$GT$$u20$as$u20$core..ops..function..FnOnce$LT$$LP$$RP$$GT$$GT$9call_once17h823c125b0047260eE>
 26c:	a818      	add	r0, sp, #96	; 0x60
 26e:	f7ff fffe 	bl	0 <_ZN101_$LT$std..panic..AssertUnwindSafe$LT$F$GT$$u20$as$u20$core..ops..function..FnOnce$LT$$LP$$RP$$GT$$GT$9call_once17h823c125b0047260eE>
 272:	4620      	mov	r0, r4
 274:	f7ff fffe 	bl	0 <_Unwind_Resume>
 278:	defe      	udf	#254	; 0xfe
 27a:	bf00      	nop
 27c:	000001bc 			; <UNDEFINED> instruction: 0x000001bc
 280:	0000007e 	andeq	r0, r0, lr, ror r0
 284:	00000080 	andeq	r0, r0, r0, lsl #1
 288:	00000058 	andeq	r0, r0, r8, asr r0
 28c:	0000005a 	andeq	r0, r0, sl, asr r0
 290:	00000076 	andeq	r0, r0, r6, ror r0
 294:	00000078 	andeq	r0, r0, r8, ror r0
 298:	0000007a 	andeq	r0, r0, sl, ror r0

Disassembly of section .text._ZN101_$LT$std..panic..AssertUnwindSafe$LT$F$GT$$u20$as$u20$core..ops..function..FnOnce$LT$$LP$$RP$$GT$$GT$9call_once17ha48a57894dbd67a4E:

00000000 <_ZN101_$LT$std..panic..AssertUnwindSafe$LT$F$GT$$u20$as$u20$core..ops..function..FnOnce$LT$$LP$$RP$$GT$$GT$9call_once17ha48a57894dbd67a4E>:
   0:	e92d 47f0 	stmdb	sp!, {r4, r5, r6, r7, r8, r9, sl, lr}
   4:	b088      	sub	sp, #32
   6:	e9d0 c300 	ldrd	ip, r3, [r0]
   a:	f100 0908 	add.w	r9, r0, #8
   e:	f890 1020 	ldrb.w	r1, [r0, #32]
  12:	f10d 0808 	add.w	r8, sp, #8
  16:	f8d0 e01c 	ldr.w	lr, [r0, #28]
  1a:	e9d3 2300 	ldrd	r2, r3, [r3]
  1e:	4645      	mov	r5, r8
  20:	f8dc c000 	ldr.w	ip, [ip]
  24:	2900      	cmp	r1, #0
  26:	e899 04d1 	ldmia.w	r9, {r0, r4, r6, r7, sl}
  2a:	e885 04d1 	stmia.w	r5, {r0, r4, r6, r7, sl}
  2e:	4660      	mov	r0, ip
  30:	e9cd 8e00 	strd	r8, lr, [sp]
  34:	bf18      	it	ne
  36:	2101      	movne	r1, #1
  38:	f7ff fffe 	bl	0 <_ZN5rayon4iter8plumbing24bridge_producer_consumer6helper17hdd8237b084caa040E>
  3c:	b008      	add	sp, #32
  3e:	e8bd 87f0 	ldmia.w	sp!, {r4, r5, r6, r7, r8, r9, sl, pc}

Disassembly of section .text._ZN106_$LT$rayon..iter..for_each..ForEachConsumer$LT$F$GT$$u20$as$u20$rayon..iter..plumbing..Folder$LT$T$GT$$GT$12consume_iter17h08d33ebf6bb00806E:

00000000 <_ZN106_$LT$rayon..iter..for_each..ForEachConsumer$LT$F$GT$$u20$as$u20$rayon..iter..plumbing..Folder$LT$T$GT$$GT$12consume_iter17h08d33ebf6bb00806E>:
   0:	b580      	push	{r7, lr}
   2:	e9d1 3c04 	ldrd	r3, ip, [r1, #16]
   6:	4563      	cmp	r3, ip
   8:	bf28      	it	cs
   a:	bd80      	popcs	{r7, pc}
   c:	f8d1 e008 	ldr.w	lr, [r1, #8]
  10:	680a      	ldr	r2, [r1, #0]
  12:	eb0e 0e83 	add.w	lr, lr, r3, lsl #2
  16:	eb02 0183 	add.w	r1, r2, r3, lsl #2
  1a:	ebac 0303 	sub.w	r3, ip, r3
  1e:	f85e cb04 	ldr.w	ip, [lr], #4
  22:	3b01      	subs	r3, #1
  24:	680a      	ldr	r2, [r1, #0]
  26:	ea82 020c 	eor.w	r2, r2, ip
  2a:	f841 2b04 	str.w	r2, [r1], #4
  2e:	d1f6      	bne.n	1e <_ZN106_$LT$rayon..iter..for_each..ForEachConsumer$LT$F$GT$$u20$as$u20$rayon..iter..plumbing..Folder$LT$T$GT$$GT$12consume_iter17h08d33ebf6bb00806E+0x1e>
  30:	bd80      	pop	{r7, pc}

Disassembly of section .text._ZN106_$LT$rayon..iter..for_each..ForEachConsumer$LT$F$GT$$u20$as$u20$rayon..iter..plumbing..Folder$LT$T$GT$$GT$8complete17h56dfeb889fbbdc1bE:

00000000 <_ZN106_$LT$rayon..iter..for_each..ForEachConsumer$LT$F$GT$$u20$as$u20$rayon..iter..plumbing..Folder$LT$T$GT$$GT$8complete17h56dfeb889fbbdc1bE>:
   0:	4770      	bx	lr

Disassembly of section .text._ZN108_$LT$rayon..iter..for_each..ForEachConsumer$LT$F$GT$$u20$as$u20$rayon..iter..plumbing..Consumer$LT$T$GT$$GT$11into_folder17heeaf3ae9e31f33c1E:

00000000 <_ZN108_$LT$rayon..iter..for_each..ForEachConsumer$LT$F$GT$$u20$as$u20$rayon..iter..plumbing..Consumer$LT$T$GT$$GT$11into_folder17heeaf3ae9e31f33c1E>:
   0:	4770      	bx	lr

Disassembly of section .text._ZN108_$LT$rayon..iter..for_each..ForEachConsumer$LT$F$GT$$u20$as$u20$rayon..iter..plumbing..Consumer$LT$T$GT$$GT$4full17hf2ecc31722ff5abdE:

00000000 <_ZN108_$LT$rayon..iter..for_each..ForEachConsumer$LT$F$GT$$u20$as$u20$rayon..iter..plumbing..Consumer$LT$T$GT$$GT$4full17hf2ecc31722ff5abdE>:
   0:	2000      	movs	r0, #0
   2:	4770      	bx	lr

Disassembly of section .text._ZN108_$LT$rayon..iter..for_each..ForEachConsumer$LT$F$GT$$u20$as$u20$rayon..iter..plumbing..Consumer$LT$T$GT$$GT$8split_at17h33e04bc7e15b6118E:

00000000 <_ZN108_$LT$rayon..iter..for_each..ForEachConsumer$LT$F$GT$$u20$as$u20$rayon..iter..plumbing..Consumer$LT$T$GT$$GT$8split_at17h33e04bc7e15b6118E>:
   0:	4601      	mov	r1, r0
   2:	4770      	bx	lr

Disassembly of section .text._ZN15crossbeam_epoch5guard5Guard15defer_unchecked17hdb83d6605cfa1cc1E:

00000000 <_ZN15crossbeam_epoch5guard5Guard15defer_unchecked17hdb83d6605cfa1cc1E>:
   0:	b510      	push	{r4, lr}
   2:	b084      	sub	sp, #16
   4:	4602      	mov	r2, r0
   6:	6800      	ldr	r0, [r0, #0]
   8:	b140      	cbz	r0, 1c <_ZN15crossbeam_epoch5guard5Guard15defer_unchecked17hdb83d6605cfa1cc1E+0x1c>
   a:	4b0f      	ldr	r3, [pc, #60]	; (48 <_ZN15crossbeam_epoch5guard5Guard15defer_unchecked17hdb83d6605cfa1cc1E+0x48>)
   c:	447b      	add	r3, pc
   e:	e9cd 3100 	strd	r3, r1, [sp]
  12:	4669      	mov	r1, sp
  14:	f7ff fffe 	bl	0 <_ZN15crossbeam_epoch8internal5Local5defer17hb29f28ca55bdc99eE>
  18:	b004      	add	sp, #16
  1a:	bd10      	pop	{r4, pc}
  1c:	f021 0403 	bic.w	r4, r1, #3
  20:	6861      	ldr	r1, [r4, #4]
  22:	2900      	cmp	r1, #0
  24:	bf1c      	itt	ne
  26:	2000      	movne	r0, #0
  28:	ebb0 0fc1 	cmpne.w	r0, r1, lsl #3
  2c:	d004      	beq.n	38 <_ZN15crossbeam_epoch5guard5Guard15defer_unchecked17hdb83d6605cfa1cc1E+0x38>
  2e:	6820      	ldr	r0, [r4, #0]
  30:	00c9      	lsls	r1, r1, #3
  32:	2204      	movs	r2, #4
  34:	f7ff fffe 	bl	0 <__rust_dealloc>
  38:	4620      	mov	r0, r4
  3a:	2108      	movs	r1, #8
  3c:	2204      	movs	r2, #4
  3e:	b004      	add	sp, #16
  40:	e8bd 4010 	ldmia.w	sp!, {r4, lr}
  44:	f7ff bffe 	b.w	0 <__rust_dealloc>
  48:	00000038 	andeq	r0, r0, r8, lsr r0

Disassembly of section .text._ZN17crossbeam_channel5waker9SyncWaker10disconnect17hf9334e36b8dc71a0E.llvm.12212709632344611338:

00000000 <_ZN17crossbeam_channel5waker9SyncWaker10disconnect17hf9334e36b8dc71a0E.llvm.12212709632344611338>:
   0:	e92d 41f0 	stmdb	sp!, {r4, r5, r6, r7, r8, lr}
   4:	b08a      	sub	sp, #40	; 0x28
   6:	f100 0518 	add.w	r5, r0, #24
   a:	4680      	mov	r8, r0
   c:	2101      	movs	r1, #1
   e:	e8d5 0f4f 	ldrexb	r0, [r5]
  12:	e8c5 1f42 	strexb	r2, r1, [r5]
  16:	2a00      	cmp	r2, #0
  18:	d1f9      	bne.n	e <_ZN17crossbeam_channel5waker9SyncWaker10disconnect17hf9334e36b8dc71a0E.llvm.12212709632344611338+0xe>
  1a:	f3bf 8f5b 	dmb	ish
  1e:	b1d0      	cbz	r0, 56 <_ZN17crossbeam_channel5waker9SyncWaker10disconnect17hf9334e36b8dc71a0E.llvm.12212709632344611338+0x56>
  20:	2400      	movs	r4, #0
  22:	2601      	movs	r6, #1
  24:	2c07      	cmp	r4, #7
  26:	d207      	bcs.n	38 <_ZN17crossbeam_channel5waker9SyncWaker10disconnect17hf9334e36b8dc71a0E.llvm.12212709632344611338+0x38>
  28:	fa06 f004 	lsl.w	r0, r6, r4
  2c:	2100      	movs	r1, #0
  2e:	3101      	adds	r1, #1
  30:	bf10      	yield
  32:	4281      	cmp	r1, r0
  34:	dbfb      	blt.n	2e <_ZN17crossbeam_channel5waker9SyncWaker10disconnect17hf9334e36b8dc71a0E.llvm.12212709632344611338+0x2e>
  36:	e001      	b.n	3c <_ZN17crossbeam_channel5waker9SyncWaker10disconnect17hf9334e36b8dc71a0E.llvm.12212709632344611338+0x3c>
  38:	f7ff fffe 	bl	0 <_ZN3std6thread9yield_now17hfb98d2c3b1333c7dE>
  3c:	2c0b      	cmp	r4, #11
  3e:	bf38      	it	cc
  40:	3401      	addcc	r4, #1
  42:	e8d5 0f4f 	ldrexb	r0, [r5]
  46:	e8c5 6f41 	strexb	r1, r6, [r5]
  4a:	2900      	cmp	r1, #0
  4c:	d1f9      	bne.n	42 <_ZN17crossbeam_channel5waker9SyncWaker10disconnect17hf9334e36b8dc71a0E.llvm.12212709632344611338+0x42>
  4e:	2800      	cmp	r0, #0
  50:	f3bf 8f5b 	dmb	ish
  54:	d1e6      	bne.n	24 <_ZN17crossbeam_channel5waker9SyncWaker10disconnect17hf9334e36b8dc71a0E.llvm.12212709632344611338+0x24>
  56:	f8d8 0008 	ldr.w	r0, [r8, #8]
  5a:	f8d8 5000 	ldr.w	r5, [r8]
  5e:	f8cd 8000 	str.w	r8, [sp]
  62:	b378      	cbz	r0, c4 <_ZN17crossbeam_channel5waker9SyncWaker10disconnect17hf9334e36b8dc71a0E.llvm.12212709632344611338+0xc4>
  64:	eb00 0040 	add.w	r0, r0, r0, lsl #1
  68:	2702      	movs	r7, #2
  6a:	2401      	movs	r4, #1
  6c:	eb05 0680 	add.w	r6, r5, r0, lsl #2
  70:	e006      	b.n	80 <_ZN17crossbeam_channel5waker9SyncWaker10disconnect17hf9334e36b8dc71a0E.llvm.12212709632344611338+0x80>
  72:	f3bf 8f2f 	clrex
  76:	f3bf 8f5b 	dmb	ish
  7a:	350c      	adds	r5, #12
  7c:	42b5      	cmp	r5, r6
  7e:	d021      	beq.n	c4 <_ZN17crossbeam_channel5waker9SyncWaker10disconnect17hf9334e36b8dc71a0E.llvm.12212709632344611338+0xc4>
  80:	68a8      	ldr	r0, [r5, #8]
  82:	e850 1f04 	ldrex	r1, [r0, #16]
  86:	2900      	cmp	r1, #0
  88:	d1f3      	bne.n	72 <_ZN17crossbeam_channel5waker9SyncWaker10disconnect17hf9334e36b8dc71a0E.llvm.12212709632344611338+0x72>
  8a:	3010      	adds	r0, #16
  8c:	f3bf 8f5b 	dmb	ish
  90:	e840 7100 	strex	r1, r7, [r0]
  94:	b121      	cbz	r1, a0 <_ZN17crossbeam_channel5waker9SyncWaker10disconnect17hf9334e36b8dc71a0E.llvm.12212709632344611338+0xa0>
  96:	e850 1f00 	ldrex	r1, [r0]
  9a:	2900      	cmp	r1, #0
  9c:	d0f8      	beq.n	90 <_ZN17crossbeam_channel5waker9SyncWaker10disconnect17hf9334e36b8dc71a0E.llvm.12212709632344611338+0x90>
  9e:	e7e8      	b.n	72 <_ZN17crossbeam_channel5waker9SyncWaker10disconnect17hf9334e36b8dc71a0E.llvm.12212709632344611338+0x72>
  a0:	f3bf 8f5b 	dmb	ish
  a4:	68a8      	ldr	r0, [r5, #8]
  a6:	6980      	ldr	r0, [r0, #24]
  a8:	f3bf 8f5b 	dmb	ish
  ac:	3018      	adds	r0, #24
  ae:	e850 1f00 	ldrex	r1, [r0]
  b2:	e840 4200 	strex	r2, r4, [r0]
  b6:	2a00      	cmp	r2, #0
  b8:	d1f9      	bne.n	ae <_ZN17crossbeam_channel5waker9SyncWaker10disconnect17hf9334e36b8dc71a0E.llvm.12212709632344611338+0xae>
  ba:	3101      	adds	r1, #1
  bc:	d1dd      	bne.n	7a <_ZN17crossbeam_channel5waker9SyncWaker10disconnect17hf9334e36b8dc71a0E.llvm.12212709632344611338+0x7a>
  be:	f7ff fffe 	bl	0 <_ZN3std3sys4unix5futex10futex_wake17h32877bc507b918caE>
  c2:	e7da      	b.n	7a <_ZN17crossbeam_channel5waker9SyncWaker10disconnect17hf9334e36b8dc71a0E.llvm.12212709632344611338+0x7a>
  c4:	4641      	mov	r1, r8
  c6:	2300      	movs	r3, #0
  c8:	f851 0f0c 	ldr.w	r0, [r1, #12]!
  cc:	9105      	str	r1, [sp, #20]
  ce:	688a      	ldr	r2, [r1, #8]
  d0:	608b      	str	r3, [r1, #8]
  d2:	9003      	str	r0, [sp, #12]
  d4:	eb02 0142 	add.w	r1, r2, r2, lsl #1
  d8:	e9cd 2301 	strd	r2, r3, [sp, #4]
  dc:	ebb3 0f81 	cmp.w	r3, r1, lsl #2
  e0:	eb00 0281 	add.w	r2, r0, r1, lsl #2
  e4:	9204      	str	r2, [sp, #16]
  e6:	d048      	beq.n	17a <_ZN17crossbeam_channel5waker9SyncWaker10disconnect17hf9334e36b8dc71a0E.llvm.12212709632344611338+0x17a>
  e8:	a906      	add	r1, sp, #24
  ea:	2601      	movs	r6, #1
  ec:	f101 0508 	add.w	r5, r1, #8
  f0:	e003      	b.n	fa <_ZN17crossbeam_channel5waker9SyncWaker10disconnect17hf9334e36b8dc71a0E.llvm.12212709632344611338+0xfa>
  f2:	e9dd 0103 	ldrd	r0, r1, [sp, #12]
  f6:	4288      	cmp	r0, r1
  f8:	d03f      	beq.n	17a <_ZN17crossbeam_channel5waker9SyncWaker10disconnect17hf9334e36b8dc71a0E.llvm.12212709632344611338+0x17a>
  fa:	f100 010c 	add.w	r1, r0, #12
  fe:	9103      	str	r1, [sp, #12]
 100:	6882      	ldr	r2, [r0, #8]
 102:	b3d2      	cbz	r2, 17a <_ZN17crossbeam_channel5waker9SyncWaker10disconnect17hf9334e36b8dc71a0E.llvm.12212709632344611338+0x17a>
 104:	e9d0 1000 	ldrd	r1, r0, [r0]
 108:	9208      	str	r2, [sp, #32]
 10a:	e9cd 1006 	strd	r1, r0, [sp, #24]
 10e:	e852 0f04 	ldrex	r0, [r2, #16]
 112:	b950      	cbnz	r0, 12a <_ZN17crossbeam_channel5waker9SyncWaker10disconnect17hf9334e36b8dc71a0E.llvm.12212709632344611338+0x12a>
 114:	f102 0010 	add.w	r0, r2, #16
 118:	f3bf 8f5b 	dmb	ish
 11c:	e840 1200 	strex	r2, r1, [r0]
 120:	b1ca      	cbz	r2, 156 <_ZN17crossbeam_channel5waker9SyncWaker10disconnect17hf9334e36b8dc71a0E.llvm.12212709632344611338+0x156>
 122:	e850 2f00 	ldrex	r2, [r0]
 126:	2a00      	cmp	r2, #0
 128:	d0f8      	beq.n	11c <_ZN17crossbeam_channel5waker9SyncWaker10disconnect17hf9334e36b8dc71a0E.llvm.12212709632344611338+0x11c>
 12a:	f3bf 8f2f 	clrex
 12e:	f3bf 8f5b 	dmb	ish
 132:	9808      	ldr	r0, [sp, #32]
 134:	f3bf 8f5b 	dmb	ish
 138:	e850 1f00 	ldrex	r1, [r0]
 13c:	1e4a      	subs	r2, r1, #1
 13e:	e840 2300 	strex	r3, r2, [r0]
 142:	2b00      	cmp	r3, #0
 144:	d1f8      	bne.n	138 <_ZN17crossbeam_channel5waker9SyncWaker10disconnect17hf9334e36b8dc71a0E.llvm.12212709632344611338+0x138>
 146:	2901      	cmp	r1, #1
 148:	d1d3      	bne.n	f2 <_ZN17crossbeam_channel5waker9SyncWaker10disconnect17hf9334e36b8dc71a0E.llvm.12212709632344611338+0xf2>
 14a:	f3bf 8f5b 	dmb	ish
 14e:	4628      	mov	r0, r5
 150:	f7ff fffe 	bl	0 <_ZN5alloc4sync12Arc$LT$T$GT$9drop_slow17h90beade0048c5cbaE>
 154:	e7cd      	b.n	f2 <_ZN17crossbeam_channel5waker9SyncWaker10disconnect17hf9334e36b8dc71a0E.llvm.12212709632344611338+0xf2>
 156:	f3bf 8f5b 	dmb	ish
 15a:	9808      	ldr	r0, [sp, #32]
 15c:	6980      	ldr	r0, [r0, #24]
 15e:	f3bf 8f5b 	dmb	ish
 162:	3018      	adds	r0, #24
 164:	e850 1f00 	ldrex	r1, [r0]
 168:	e840 6200 	strex	r2, r6, [r0]
 16c:	2a00      	cmp	r2, #0
 16e:	d1f9      	bne.n	164 <_ZN17crossbeam_channel5waker9SyncWaker10disconnect17hf9334e36b8dc71a0E.llvm.12212709632344611338+0x164>
 170:	3101      	adds	r1, #1
 172:	d1de      	bne.n	132 <_ZN17crossbeam_channel5waker9SyncWaker10disconnect17hf9334e36b8dc71a0E.llvm.12212709632344611338+0x132>
 174:	f7ff fffe 	bl	0 <_ZN3std3sys4unix5futex10futex_wake17h32877bc507b918caE>
 178:	e7db      	b.n	132 <_ZN17crossbeam_channel5waker9SyncWaker10disconnect17hf9334e36b8dc71a0E.llvm.12212709632344611338+0x132>
 17a:	a801      	add	r0, sp, #4
 17c:	f7ff fffe 	bl	0 <_ZN68_$LT$alloc..vec..Drain$LT$T$GT$$u20$as$u20$core..ops..drop..Drop$GT$4drop17hd9249d93abdf6e4eE>
 180:	9800      	ldr	r0, [sp, #0]
 182:	6881      	ldr	r1, [r0, #8]
 184:	2900      	cmp	r1, #0
 186:	f04f 0100 	mov.w	r1, #0
 18a:	bf03      	ittte	eq
 18c:	6940      	ldreq	r0, [r0, #20]
 18e:	2800      	cmpeq	r0, #0
 190:	2001      	moveq	r0, #1
 192:	2000      	movne	r0, #0
 194:	f3bf 8f5b 	dmb	ish
 198:	f888 001c 	strb.w	r0, [r8, #28]
 19c:	f3bf 8f5b 	dmb	ish
 1a0:	9800      	ldr	r0, [sp, #0]
 1a2:	f3bf 8f5b 	dmb	ish
 1a6:	7601      	strb	r1, [r0, #24]
 1a8:	b00a      	add	sp, #40	; 0x28
 1aa:	e8bd 81f0 	ldmia.w	sp!, {r4, r5, r6, r7, r8, pc}
 1ae:	4604      	mov	r4, r0
 1b0:	a806      	add	r0, sp, #24
 1b2:	f7ff fffe 	bl	0 <_ZN17crossbeam_channel5waker9SyncWaker10disconnect17hf9334e36b8dc71a0E.llvm.12212709632344611338>
 1b6:	e001      	b.n	1bc <_ZN17crossbeam_channel5waker9SyncWaker10disconnect17hf9334e36b8dc71a0E.llvm.12212709632344611338+0x1bc>
 1b8:	e004      	b.n	1c4 <_ZN17crossbeam_channel5waker9SyncWaker10disconnect17hf9334e36b8dc71a0E.llvm.12212709632344611338+0x1c4>
 1ba:	4604      	mov	r4, r0
 1bc:	a801      	add	r0, sp, #4
 1be:	f7ff fffe 	bl	0 <_ZN17crossbeam_channel5waker9SyncWaker10disconnect17hf9334e36b8dc71a0E.llvm.12212709632344611338>
 1c2:	e000      	b.n	1c6 <_ZN17crossbeam_channel5waker9SyncWaker10disconnect17hf9334e36b8dc71a0E.llvm.12212709632344611338+0x1c6>
 1c4:	4604      	mov	r4, r0
 1c6:	4668      	mov	r0, sp
 1c8:	f7ff fffe 	bl	0 <_ZN17crossbeam_channel5waker9SyncWaker10disconnect17hf9334e36b8dc71a0E.llvm.12212709632344611338>
 1cc:	4620      	mov	r0, r4
 1ce:	f7ff fffe 	bl	0 <_Unwind_Resume>
 1d2:	defe      	udf	#254	; 0xfe

Disassembly of section .text._ZN17crossbeam_channel7flavors5array16Channel$LT$T$GT$10disconnect17h91ff4b3efae07b5bE:

00000000 <_ZN17crossbeam_channel7flavors5array16Channel$LT$T$GT$10disconnect17h91ff4b3efae07b5bE>:
   0:	b5b0      	push	{r4, r5, r7, lr}
   2:	4605      	mov	r5, r0
   4:	f8d0 008c 	ldr.w	r0, [r0, #140]	; 0x8c
   8:	f105 0240 	add.w	r2, r5, #64	; 0x40
   c:	f3bf 8f5b 	dmb	ish
  10:	e852 1f00 	ldrex	r1, [r2]
  14:	ea41 0300 	orr.w	r3, r1, r0
  18:	e842 3400 	strex	r4, r3, [r2]
  1c:	2c00      	cmp	r4, #0
  1e:	d1f7      	bne.n	10 <_ZN17crossbeam_channel7flavors5array16Channel$LT$T$GT$10disconnect17h91ff4b3efae07b5bE+0x10>
  20:	f3bf 8f5b 	dmb	ish
  24:	f8d5 008c 	ldr.w	r0, [r5, #140]	; 0x8c
  28:	4208      	tst	r0, r1
  2a:	bf1c      	itt	ne
  2c:	2000      	movne	r0, #0
  2e:	bdb0      	popne	{r4, r5, r7, pc}
  30:	f105 0090 	add.w	r0, r5, #144	; 0x90
  34:	f7ff fffe 	bl	0 <_ZN17crossbeam_channel7flavors5array16Channel$LT$T$GT$10disconnect17h91ff4b3efae07b5bE>
  38:	f105 00b0 	add.w	r0, r5, #176	; 0xb0
  3c:	f7ff fffe 	bl	0 <_ZN17crossbeam_channel7flavors5array16Channel$LT$T$GT$10disconnect17h91ff4b3efae07b5bE>
  40:	2001      	movs	r0, #1
  42:	bdb0      	pop	{r4, r5, r7, pc}

Disassembly of section .text._ZN3std5panic12catch_unwind17h16255e2a0f0708e3E:

00000000 <_ZN3std5panic12catch_unwind17h16255e2a0f0708e3E>:
   0:	e92d 47f0 	stmdb	sp!, {r4, r5, r6, r7, r8, r9, sl, lr}
   4:	b088      	sub	sp, #32
   6:	e9d0 c300 	ldrd	ip, r3, [r0]
   a:	f100 0908 	add.w	r9, r0, #8
   e:	f10d 0808 	add.w	r8, sp, #8
  12:	f8d0 e01c 	ldr.w	lr, [r0, #28]
  16:	f890 1020 	ldrb.w	r1, [r0, #32]
  1a:	e9d3 2300 	ldrd	r2, r3, [r3]
  1e:	4645      	mov	r5, r8
  20:	f8dc c000 	ldr.w	ip, [ip]
  24:	e899 04d1 	ldmia.w	r9, {r0, r4, r6, r7, sl}
  28:	e885 04d1 	stmia.w	r5, {r0, r4, r6, r7, sl}
  2c:	4660      	mov	r0, ip
  2e:	e9cd 8e00 	strd	r8, lr, [sp]
  32:	2900      	cmp	r1, #0
  34:	bf18      	it	ne
  36:	2101      	movne	r1, #1
  38:	f7ff fffe 	bl	0 <_ZN5rayon4iter8plumbing24bridge_producer_consumer6helper17hdd8237b084caa040E>
  3c:	2000      	movs	r0, #0
  3e:	2100      	movs	r1, #0
  40:	b008      	add	sp, #32
  42:	e8bd 87f0 	ldmia.w	sp!, {r4, r5, r6, r7, r8, r9, sl, pc}
  46:	f7ff fffe 	bl	0 <_ZN3std9panicking3try7cleanup17he668a406887398feE>
  4a:	b008      	add	sp, #32
  4c:	e8bd 87f0 	ldmia.w	sp!, {r4, r5, r6, r7, r8, r9, sl, pc}

Disassembly of section .text._ZN3std5panic12catch_unwind17h2a23bada09fec7afE:

00000000 <_ZN3std5panic12catch_unwind17h2a23bada09fec7afE>:
   0:	e92d 4ff0 	stmdb	sp!, {r4, r5, r6, r7, r8, r9, sl, fp, lr}
   4:	b08f      	sub	sp, #60	; 0x3c
   6:	4605      	mov	r5, r0
   8:	e891 5015 	ldmia.w	r1, {r0, r2, r4, ip, lr}
   c:	3114      	adds	r1, #20
   e:	6823      	ldr	r3, [r4, #0]
  10:	af08      	add	r7, sp, #32
  12:	9304      	str	r3, [sp, #16]
  14:	f8d4 b004 	ldr.w	fp, [r4, #4]
  18:	f8d2 9000 	ldr.w	r9, [r2]
  1c:	f8d0 a000 	ldr.w	sl, [r0]
  20:	e891 015d 	ldmia.w	r1, {r0, r2, r3, r4, r6, r8}
  24:	e887 015d 	stmia.w	r7, {r0, r2, r3, r4, r6, r8}
  28:	a808      	add	r0, sp, #32
  2a:	9b04      	ldr	r3, [sp, #16]
  2c:	e88d 5800 	stmia.w	sp, {fp, ip, lr}
  30:	ebaa 0109 	sub.w	r1, sl, r9
  34:	2201      	movs	r2, #1
  36:	9003      	str	r0, [sp, #12]
  38:	a805      	add	r0, sp, #20
  3a:	f7ff fffe 	bl	0 <_ZN5rayon4iter8plumbing24bridge_producer_consumer6helper17hc3dd3cb8896019b4E>
  3e:	aa05      	add	r2, sp, #20
  40:	1d2b      	adds	r3, r5, #4
  42:	ca07      	ldmia	r2, {r0, r1, r2}
  44:	c307      	stmia	r3!, {r0, r1, r2}
  46:	2000      	movs	r0, #0
  48:	6028      	str	r0, [r5, #0]
  4a:	b00f      	add	sp, #60	; 0x3c
  4c:	e8bd 8ff0 	ldmia.w	sp!, {r4, r5, r6, r7, r8, r9, sl, fp, pc}
  50:	f7ff fffe 	bl	0 <_ZN3std9panicking3try7cleanup17he668a406887398feE>
  54:	e9c5 0101 	strd	r0, r1, [r5, #4]
  58:	2001      	movs	r0, #1
  5a:	6028      	str	r0, [r5, #0]
  5c:	b00f      	add	sp, #60	; 0x3c
  5e:	e8bd 8ff0 	ldmia.w	sp!, {r4, r5, r6, r7, r8, r9, sl, fp, pc}

Disassembly of section .text._ZN3std5panic12catch_unwind17h4b4b5c3933bdf8e8E:

00000000 <_ZN3std5panic12catch_unwind17h4b4b5c3933bdf8e8E>:
   0:	e92d 41f0 	stmdb	sp!, {r4, r5, r6, r7, r8, lr}
   4:	b088      	sub	sp, #32
   6:	4680      	mov	r8, r0
   8:	e9d1 0400 	ldrd	r0, r4, [r1]
   c:	e9d1 3c02 	ldrd	r3, ip, [r1, #8]
  10:	e9d1 6704 	ldrd	r6, r7, [r1, #16]
  14:	e9d1 5106 	ldrd	r5, r1, [r1, #24]
  18:	6800      	ldr	r0, [r0, #0]
  1a:	e9d3 2300 	ldrd	r2, r3, [r3]
  1e:	6824      	ldr	r4, [r4, #0]
  20:	9106      	str	r1, [sp, #24]
  22:	e9cd 7504 	strd	r7, r5, [sp, #16]
  26:	a904      	add	r1, sp, #16
  28:	1b00      	subs	r0, r0, r4
  2a:	e9cd c600 	strd	ip, r6, [sp]
  2e:	9102      	str	r1, [sp, #8]
  30:	2101      	movs	r1, #1
  32:	f7ff fffe 	bl	0 <_ZN5rayon4iter8plumbing24bridge_producer_consumer6helper17h5951f102c24bee8eE>
  36:	e9c8 0101 	strd	r0, r1, [r8, #4]
  3a:	2000      	movs	r0, #0
  3c:	f8c8 0000 	str.w	r0, [r8]
  40:	b008      	add	sp, #32
  42:	e8bd 81f0 	ldmia.w	sp!, {r4, r5, r6, r7, r8, pc}
  46:	f7ff fffe 	bl	0 <_ZN3std9panicking3try7cleanup17he668a406887398feE>
  4a:	e9c8 0101 	strd	r0, r1, [r8, #4]
  4e:	2001      	movs	r0, #1
  50:	f8c8 0000 	str.w	r0, [r8]
  54:	b008      	add	sp, #32
  56:	e8bd 81f0 	ldmia.w	sp!, {r4, r5, r6, r7, r8, pc}

Disassembly of section .text._ZN3std5panic12catch_unwind17h7f6b6e156722b72fE:

00000000 <_ZN3std5panic12catch_unwind17h7f6b6e156722b72fE>:
   0:	e92d 41f0 	stmdb	sp!, {r4, r5, r6, r7, r8, lr}
   4:	b0c4      	sub	sp, #272	; 0x110
   6:	f101 0508 	add.w	r5, r1, #8
   a:	46e8      	mov	r8, sp
   c:	4604      	mov	r4, r0
   e:	e9d1 7600 	ldrd	r7, r6, [r1]
  12:	4640      	mov	r0, r8
  14:	4629      	mov	r1, r5
  16:	224c      	movs	r2, #76	; 0x4c
  18:	f7ff fffe 	bl	0 <__aeabi_memcpy4>
  1c:	a814      	add	r0, sp, #80	; 0x50
  1e:	4629      	mov	r1, r5
  20:	224c      	movs	r2, #76	; 0x4c
  22:	f7ff fffe 	bl	0 <__aeabi_memcpy4>
  26:	ad2e      	add	r5, sp, #184	; 0xb8
  28:	4641      	mov	r1, r8
  2a:	f105 0008 	add.w	r0, r5, #8
  2e:	224c      	movs	r2, #76	; 0x4c
  30:	e9cd 762e 	strd	r7, r6, [sp, #184]	; 0xb8
  34:	f7ff fffe 	bl	0 <__aeabi_memcpy8>
  38:	a828      	add	r0, sp, #160	; 0xa0
  3a:	4629      	mov	r1, r5
  3c:	f7ff fffe 	bl	0 <_ZN3std5panic12catch_unwind17h7f6b6e156722b72fE>
  40:	af28      	add	r7, sp, #160	; 0xa0
  42:	f10d 0c50 	add.w	ip, sp, #80	; 0x50
  46:	9e2d      	ldr	r6, [sp, #180]	; 0xb4
  48:	cf8f      	ldmia	r7, {r0, r1, r2, r3, r7}
  4a:	e88c 008c 	stmia.w	ip, {r2, r3, r7}
  4e:	f104 0c04 	add.w	ip, r4, #4
  52:	e88c 008f 	stmia.w	ip, {r0, r1, r2, r3, r7}
  56:	2000      	movs	r0, #0
  58:	9617      	str	r6, [sp, #92]	; 0x5c
  5a:	61a6      	str	r6, [r4, #24]
  5c:	6020      	str	r0, [r4, #0]
  5e:	b044      	add	sp, #272	; 0x110
  60:	e8bd 81f0 	ldmia.w	sp!, {r4, r5, r6, r7, r8, pc}
  64:	f7ff fffe 	bl	0 <_ZN3std9panicking3try7cleanup17he668a406887398feE>
  68:	e9c4 0101 	strd	r0, r1, [r4, #4]
  6c:	2001      	movs	r0, #1
  6e:	6020      	str	r0, [r4, #0]
  70:	b044      	add	sp, #272	; 0x110
  72:	e8bd 81f0 	ldmia.w	sp!, {r4, r5, r6, r7, r8, pc}

Disassembly of section .text._ZN3std5panic12catch_unwind17h8a06a3c5f8412692E:

00000000 <_ZN3std5panic12catch_unwind17h8a06a3c5f8412692E>:
   0:	b5b0      	push	{r4, r5, r7, lr}
   2:	b092      	sub	sp, #72	; 0x48
   4:	e9d0 1200 	ldrd	r1, r2, [r0]
   8:	f100 0c08 	add.w	ip, r0, #8
   c:	e9cd 1200 	strd	r1, r2, [sp]
  10:	4668      	mov	r0, sp
  12:	e8bc 403a 	ldmia.w	ip!, {r1, r3, r4, r5, lr}
  16:	f100 0208 	add.w	r2, r0, #8
  1a:	e8a2 403a 	stmia.w	r2!, {r1, r3, r4, r5, lr}
  1e:	e8bc 403a 	ldmia.w	ip!, {r1, r3, r4, r5, lr}
  22:	e8a2 403a 	stmia.w	r2!, {r1, r3, r4, r5, lr}
  26:	e89c 403a 	ldmia.w	ip, {r1, r3, r4, r5, lr}
  2a:	e882 403a 	stmia.w	r2, {r1, r3, r4, r5, lr}
  2e:	f7ff fffe 	bl	0 <_ZN3std5panic12catch_unwind17h8a06a3c5f8412692E>
  32:	2000      	movs	r0, #0
  34:	2100      	movs	r1, #0
  36:	b012      	add	sp, #72	; 0x48
  38:	bdb0      	pop	{r4, r5, r7, pc}
  3a:	f7ff fffe 	bl	0 <_ZN3std9panicking3try7cleanup17he668a406887398feE>
  3e:	b012      	add	sp, #72	; 0x48
  40:	bdb0      	pop	{r4, r5, r7, pc}

Disassembly of section .text._ZN3std5panic12catch_unwind17hd0b545241cd623e3E:

00000000 <_ZN3std5panic12catch_unwind17hd0b545241cd623e3E>:
   0:	e92d 4ff0 	stmdb	sp!, {r4, r5, r6, r7, r8, r9, sl, fp, lr}
   4:	b08f      	sub	sp, #60	; 0x3c
   6:	4683      	mov	fp, r0
   8:	e891 4011 	ldmia.w	r1, {r0, r4, lr}
   c:	af08      	add	r7, sp, #32
   e:	6823      	ldr	r3, [r4, #0]
  10:	f8d0 c000 	ldr.w	ip, [r0]
  14:	f101 0010 	add.w	r0, r1, #16
  18:	9304      	str	r3, [sp, #16]
  1a:	f8d1 900c 	ldr.w	r9, [r1, #12]
  1e:	f891 2028 	ldrb.w	r2, [r1, #40]	; 0x28
  22:	f8d4 a004 	ldr.w	sl, [r4, #4]
  26:	e890 017a 	ldmia.w	r0, {r1, r3, r4, r5, r6, r8}
  2a:	e887 017a 	stmia.w	r7, {r1, r3, r4, r5, r6, r8}
  2e:	e9cd ae00 	strd	sl, lr, [sp]
  32:	a808      	add	r0, sp, #32
  34:	9003      	str	r0, [sp, #12]
  36:	2a00      	cmp	r2, #0
  38:	f8cd 9008 	str.w	r9, [sp, #8]
  3c:	bf18      	it	ne
  3e:	2201      	movne	r2, #1
  40:	9b04      	ldr	r3, [sp, #16]
  42:	a805      	add	r0, sp, #20
  44:	4661      	mov	r1, ip
  46:	f7ff fffe 	bl	0 <_ZN5rayon4iter8plumbing24bridge_producer_consumer6helper17hc3dd3cb8896019b4E>
  4a:	aa05      	add	r2, sp, #20
  4c:	f10b 0304 	add.w	r3, fp, #4
  50:	ca07      	ldmia	r2, {r0, r1, r2}
  52:	c307      	stmia	r3!, {r0, r1, r2}
  54:	2000      	movs	r0, #0
  56:	f8cb 0000 	str.w	r0, [fp]
  5a:	b00f      	add	sp, #60	; 0x3c
  5c:	e8bd 8ff0 	ldmia.w	sp!, {r4, r5, r6, r7, r8, r9, sl, fp, pc}
  60:	f7ff fffe 	bl	0 <_ZN3std9panicking3try7cleanup17he668a406887398feE>
  64:	e9cb 0101 	strd	r0, r1, [fp, #4]
  68:	2001      	movs	r0, #1
  6a:	f8cb 0000 	str.w	r0, [fp]
  6e:	b00f      	add	sp, #60	; 0x3c
  70:	e8bd 8ff0 	ldmia.w	sp!, {r4, r5, r6, r7, r8, r9, sl, fp, pc}

Disassembly of section .text._ZN3std5panic12catch_unwind17hd495ece49ac0a6cdE:

00000000 <_ZN3std5panic12catch_unwind17hd495ece49ac0a6cdE>:
   0:	e92d 41f0 	stmdb	sp!, {r4, r5, r6, r7, r8, lr}
   4:	b088      	sub	sp, #32
   6:	4680      	mov	r8, r0
   8:	e891 1009 	ldmia.w	r1, {r0, r3, ip}
   c:	f101 070c 	add.w	r7, r1, #12
  10:	698c      	ldr	r4, [r1, #24]
  12:	7f09      	ldrb	r1, [r1, #28]
  14:	6800      	ldr	r0, [r0, #0]
  16:	e9d3 2300 	ldrd	r2, r3, [r3]
  1a:	cfe0      	ldmia	r7, {r5, r6, r7}
  1c:	9406      	str	r4, [sp, #24]
  1e:	e9cd 6704 	strd	r6, r7, [sp, #16]
  22:	af04      	add	r7, sp, #16
  24:	e9cd c500 	strd	ip, r5, [sp]
  28:	9702      	str	r7, [sp, #8]
  2a:	2900      	cmp	r1, #0
  2c:	bf18      	it	ne
  2e:	2101      	movne	r1, #1
  30:	f7ff fffe 	bl	0 <_ZN5rayon4iter8plumbing24bridge_producer_consumer6helper17h5951f102c24bee8eE>
  34:	e9c8 0101 	strd	r0, r1, [r8, #4]
  38:	2000      	movs	r0, #0
  3a:	f8c8 0000 	str.w	r0, [r8]
  3e:	b008      	add	sp, #32
  40:	e8bd 81f0 	ldmia.w	sp!, {r4, r5, r6, r7, r8, pc}
  44:	f7ff fffe 	bl	0 <_ZN3std9panicking3try7cleanup17he668a406887398feE>
  48:	e9c8 0101 	strd	r0, r1, [r8, #4]
  4c:	2001      	movs	r0, #1
  4e:	f8c8 0000 	str.w	r0, [r8]
  52:	b008      	add	sp, #32
  54:	e8bd 81f0 	ldmia.w	sp!, {r4, r5, r6, r7, r8, pc}

Disassembly of section .text._ZN3std5panic12catch_unwind17hf3d836af458c134bE:

00000000 <_ZN3std5panic12catch_unwind17hf3d836af458c134bE>:
   0:	e92d 47f0 	stmdb	sp!, {r4, r5, r6, r7, r8, r9, sl, lr}
   4:	b088      	sub	sp, #32
   6:	e9d0 c100 	ldrd	ip, r1, [r0]
   a:	f100 0a0c 	add.w	sl, r0, #12
   e:	6883      	ldr	r3, [r0, #8]
  10:	f8d0 e020 	ldr.w	lr, [r0, #32]
  14:	f8dc 9000 	ldr.w	r9, [ip]
  18:	f10d 0c08 	add.w	ip, sp, #8
  1c:	e9d3 2300 	ldrd	r2, r3, [r3]
  20:	f8d1 8000 	ldr.w	r8, [r1]
  24:	4665      	mov	r5, ip
  26:	e89a 00d3 	ldmia.w	sl, {r0, r1, r4, r6, r7}
  2a:	c5d3      	stmia	r5!, {r0, r1, r4, r6, r7}
  2c:	eba9 0008 	sub.w	r0, r9, r8
  30:	2101      	movs	r1, #1
  32:	e9cd ce00 	strd	ip, lr, [sp]
  36:	f7ff fffe 	bl	0 <_ZN5rayon4iter8plumbing24bridge_producer_consumer6helper17hdd8237b084caa040E>
  3a:	2000      	movs	r0, #0
  3c:	2100      	movs	r1, #0
  3e:	b008      	add	sp, #32
  40:	e8bd 87f0 	ldmia.w	sp!, {r4, r5, r6, r7, r8, r9, sl, pc}
  44:	f7ff fffe 	bl	0 <_ZN3std9panicking3try7cleanup17he668a406887398feE>
  48:	b008      	add	sp, #32
  4a:	e8bd 87f0 	ldmia.w	sp!, {r4, r5, r6, r7, r8, r9, sl, pc}

Disassembly of section .text._ZN3std5panic12catch_unwind17hfd6624a931730d13E:

00000000 <_ZN3std5panic12catch_unwind17hfd6624a931730d13E>:
   0:	e92d 41f0 	stmdb	sp!, {r4, r5, r6, r7, r8, lr}
   4:	b094      	sub	sp, #80	; 0x50
   6:	4680      	mov	r8, r0
   8:	e9d1 0200 	ldrd	r0, r2, [r1]
   c:	e9cd 0204 	strd	r0, r2, [sp, #16]
  10:	f101 0008 	add.w	r0, r1, #8
  14:	a904      	add	r1, sp, #16
  16:	c878      	ldmia	r0!, {r3, r4, r5, r6}
  18:	f101 0208 	add.w	r2, r1, #8
  1c:	c278      	stmia	r2!, {r3, r4, r5, r6}
  1e:	c878      	ldmia	r0!, {r3, r4, r5, r6}
  20:	c278      	stmia	r2!, {r3, r4, r5, r6}
  22:	e890 00f8 	ldmia.w	r0, {r3, r4, r5, r6, r7}
  26:	c2f8      	stmia	r2!, {r3, r4, r5, r6, r7}
  28:	4668      	mov	r0, sp
  2a:	f7ff fffe 	bl	0 <_ZN3std5panic12catch_unwind17hfd6624a931730d13E>
  2e:	e89d 000f 	ldmia.w	sp, {r0, r1, r2, r3}
  32:	f108 0c04 	add.w	ip, r8, #4
  36:	e88c 000f 	stmia.w	ip, {r0, r1, r2, r3}
  3a:	2000      	movs	r0, #0
  3c:	f8c8 0000 	str.w	r0, [r8]
  40:	b014      	add	sp, #80	; 0x50
  42:	e8bd 81f0 	ldmia.w	sp!, {r4, r5, r6, r7, r8, pc}
  46:	f7ff fffe 	bl	0 <_ZN3std9panicking3try7cleanup17he668a406887398feE>
  4a:	e9c8 0101 	strd	r0, r1, [r8, #4]
  4e:	2001      	movs	r0, #1
  50:	f8c8 0000 	str.w	r0, [r8]
  54:	b014      	add	sp, #80	; 0x50
  56:	e8bd 81f0 	ldmia.w	sp!, {r4, r5, r6, r7, r8, pc}

Disassembly of section .text._ZN4core3ptr13drop_in_place17h2f0f18296d589835E:

00000000 <_ZN4core3ptr13drop_in_place17h2f0f18296d589835E>:
   0:	f850 cf08 	ldr.w	ip, [r0, #8]!
   4:	f3bf 8f5b 	dmb	ish
   8:	e85c 2f00 	ldrex	r2, [ip]
   c:	1e53      	subs	r3, r2, #1
   e:	e84c 3100 	strex	r1, r3, [ip]
  12:	2900      	cmp	r1, #0
  14:	d1f8      	bne.n	8 <_ZN4core3ptr13drop_in_place17h2f0f18296d589835E+0x8>
  16:	2a01      	cmp	r2, #1
  18:	bf04      	itt	eq
  1a:	f3bf 8f5b 	dmbeq	ish
  1e:	f7ff bffe 	beq.w	0 <_ZN5alloc4sync12Arc$LT$T$GT$9drop_slow17h90beade0048c5cbaE>
  22:	4770      	bx	lr

Disassembly of section .text._ZN4core3ptr13drop_in_place17h31558f3500ced34cE:

00000000 <_ZN4core3ptr13drop_in_place17h31558f3500ced34cE>:
   0:	b5b0      	push	{r4, r5, r7, lr}
   2:	4604      	mov	r4, r0
   4:	6b40      	ldr	r0, [r0, #52]	; 0x34
   6:	2802      	cmp	r0, #2
   8:	bf38      	it	cc
   a:	bdb0      	popcc	{r4, r5, r7, pc}
   c:	e9d4 010e 	ldrd	r0, r1, [r4, #56]	; 0x38
  10:	6809      	ldr	r1, [r1, #0]
  12:	4788      	blx	r1
  14:	6be0      	ldr	r0, [r4, #60]	; 0x3c
  16:	6841      	ldr	r1, [r0, #4]
  18:	b129      	cbz	r1, 26 <_ZN4core3ptr13drop_in_place17h31558f3500ced34cE+0x26>
  1a:	6882      	ldr	r2, [r0, #8]
  1c:	6ba0      	ldr	r0, [r4, #56]	; 0x38
  1e:	e8bd 40b0 	ldmia.w	sp!, {r4, r5, r7, lr}
  22:	f7ff bffe 	b.w	0 <__rust_dealloc>
  26:	bdb0      	pop	{r4, r5, r7, pc}
  28:	4605      	mov	r5, r0
  2a:	e9d4 010e 	ldrd	r0, r1, [r4, #56]	; 0x38
  2e:	f7ff fffe 	bl	0 <_ZN4core3ptr13drop_in_place17h31558f3500ced34cE>
  32:	4628      	mov	r0, r5
  34:	f7ff fffe 	bl	0 <_Unwind_Resume>
  38:	defe      	udf	#254	; 0xfe

Disassembly of section .text._ZN4core3ptr13drop_in_place17h331494589a468097E.llvm.12212709632344611338:

00000000 <_ZN4core3ptr13drop_in_place17h331494589a468097E.llvm.12212709632344611338>:
   0:	e92d 4ff0 	stmdb	sp!, {r4, r5, r6, r7, r8, r9, sl, fp, lr}
   4:	b081      	sub	sp, #4
   6:	4682      	mov	sl, r0
   8:	6800      	ldr	r0, [r0, #0]
   a:	e00f      	b.n	2c <_ZN4core3ptr13drop_in_place17h331494589a468097E.llvm.12212709632344611338+0x2c>
   c:	68e0      	ldr	r0, [r4, #12]
   e:	2800      	cmp	r0, #0
  10:	bf1e      	ittt	ne
  12:	eb00 0040 	addne.w	r0, r0, r0, lsl #1
  16:	2100      	movne	r1, #0
  18:	ebb1 0f80 	cmpne.w	r1, r0, lsl #2
  1c:	d138      	bne.n	90 <_ZN4core3ptr13drop_in_place17h331494589a468097E.llvm.12212709632344611338+0x90>
  1e:	4620      	mov	r0, r4
  20:	2114      	movs	r1, #20
  22:	2204      	movs	r2, #4
  24:	f7ff fffe 	bl	0 <__rust_dealloc>
  28:	f8da 0000 	ldr.w	r0, [sl]
  2c:	6804      	ldr	r4, [r0, #0]
  2e:	b3b4      	cbz	r4, 9e <_ZN4core3ptr13drop_in_place17h331494589a468097E.llvm.12212709632344611338+0x9e>
  30:	6821      	ldr	r1, [r4, #0]
  32:	46a3      	mov	fp, r4
  34:	6001      	str	r1, [r0, #0]
  36:	1d0a      	adds	r2, r1, #4
  38:	2900      	cmp	r1, #0
  3a:	f04f 0100 	mov.w	r1, #0
  3e:	bf08      	it	eq
  40:	1d02      	addeq	r2, r0, #4
  42:	6011      	str	r1, [r2, #0]
  44:	6881      	ldr	r1, [r0, #8]
  46:	3901      	subs	r1, #1
  48:	6081      	str	r1, [r0, #8]
  4a:	f85b 2f08 	ldr.w	r2, [fp, #8]!
  4e:	f06f 010b 	mvn.w	r1, #11
  52:	f8db 0008 	ldr.w	r0, [fp, #8]
  56:	f102 070c 	add.w	r7, r2, #12
  5a:	eb00 0040 	add.w	r0, r0, r0, lsl #1
  5e:	eb01 0680 	add.w	r6, r1, r0, lsl #2
  62:	f116 000c 	adds.w	r0, r6, #12
  66:	d0d1      	beq.n	c <_ZN4core3ptr13drop_in_place17h331494589a468097E.llvm.12212709632344611338+0xc>
  68:	6890      	ldr	r0, [r2, #8]
  6a:	46b1      	mov	r9, r6
  6c:	463d      	mov	r5, r7
  6e:	0ec0      	lsrs	r0, r0, #27
  70:	d118      	bne.n	a4 <_ZN4core3ptr13drop_in_place17h331494589a468097E.llvm.12212709632344611338+0xa4>
  72:	6850      	ldr	r0, [r2, #4]
  74:	f105 070c 	add.w	r7, r5, #12
  78:	f1a9 060c 	sub.w	r6, r9, #12
  7c:	f102 080c 	add.w	r8, r2, #12
  80:	f000 0007 	and.w	r0, r0, #7
  84:	6050      	str	r0, [r2, #4]
  86:	4610      	mov	r0, r2
  88:	f7ff fffe 	bl	0 <_ZN6bitvec3vec19BitVec$LT$O$C$T$GT$8with_vec17he5da1d483de8caa8E>
  8c:	4642      	mov	r2, r8
  8e:	e7e8      	b.n	62 <_ZN4core3ptr13drop_in_place17h331494589a468097E.llvm.12212709632344611338+0x62>
  90:	0081      	lsls	r1, r0, #2
  92:	f8db 0000 	ldr.w	r0, [fp]
  96:	2204      	movs	r2, #4
  98:	f7ff fffe 	bl	0 <__rust_dealloc>
  9c:	e7bf      	b.n	1e <_ZN4core3ptr13drop_in_place17h331494589a468097E.llvm.12212709632344611338+0x1e>
  9e:	b001      	add	sp, #4
  a0:	e8bd 8ff0 	ldmia.w	sp!, {r4, r5, r6, r7, r8, r9, sl, fp, pc}
  a4:	480f      	ldr	r0, [pc, #60]	; (e4 <_ZN4core3ptr13drop_in_place17h331494589a468097E.llvm.12212709632344611338+0xe4>)
  a6:	4a10      	ldr	r2, [pc, #64]	; (e8 <_ZN4core3ptr13drop_in_place17h331494589a468097E.llvm.12212709632344611338+0xe8>)
  a8:	4478      	add	r0, pc
  aa:	447a      	add	r2, pc
  ac:	2118      	movs	r1, #24
  ae:	f7ff fffe 	bl	0 <_ZN4core6option13expect_failed17hccecd099e19e7451E>
  b2:	defe      	udf	#254	; 0xfe
  b4:	e7ff      	b.n	b6 <_ZN4core3ptr13drop_in_place17h331494589a468097E.llvm.12212709632344611338+0xb6>
  b6:	4680      	mov	r8, r0
  b8:	f1b9 0f00 	cmp.w	r9, #0
  bc:	d006      	beq.n	cc <_ZN4core3ptr13drop_in_place17h331494589a468097E.llvm.12212709632344611338+0xcc>
  be:	4628      	mov	r0, r5
  c0:	f7ff fffe 	bl	0 <_ZN4core3ptr13drop_in_place17he17d0f0fd0b258bcE.llvm.7409013006954644867>
  c4:	350c      	adds	r5, #12
  c6:	f1b9 090c 	subs.w	r9, r9, #12
  ca:	d1f8      	bne.n	be <_ZN4core3ptr13drop_in_place17h331494589a468097E.llvm.12212709632344611338+0xbe>
  cc:	4658      	mov	r0, fp
  ce:	f7ff fffe 	bl	0 <_ZN4core3ptr13drop_in_place17h331494589a468097E.llvm.12212709632344611338>
  d2:	4620      	mov	r0, r4
  d4:	f7ff fffe 	bl	0 <_ZN4core3ptr13drop_in_place17h331494589a468097E.llvm.12212709632344611338>
  d8:	4640      	mov	r0, r8
  da:	f7ff fffe 	bl	0 <_Unwind_Resume>
  de:	defe      	udf	#254	; 0xfe
  e0:	4680      	mov	r8, r0
  e2:	e7f3      	b.n	cc <_ZN4core3ptr13drop_in_place17h331494589a468097E.llvm.12212709632344611338+0xcc>
  e4:	00000038 	andeq	r0, r0, r8, lsr r0
  e8:	0000003a 	andeq	r0, r0, sl, lsr r0

Disassembly of section .text._ZN4core3ptr13drop_in_place17h4b483e1d1cfcc6c8E:

00000000 <_ZN4core3ptr13drop_in_place17h4b483e1d1cfcc6c8E>:
   0:	6800      	ldr	r0, [r0, #0]
   2:	2100      	movs	r1, #0
   4:	f3bf 8f5b 	dmb	ish
   8:	7601      	strb	r1, [r0, #24]
   a:	4770      	bx	lr

Disassembly of section .text._ZN4core3ptr13drop_in_place17h73808b1ce7b3ceb1E:

00000000 <_ZN4core3ptr13drop_in_place17h73808b1ce7b3ceb1E>:
   0:	f7ff bffe 	b.w	0 <_ZN68_$LT$alloc..vec..Drain$LT$T$GT$$u20$as$u20$core..ops..drop..Drop$GT$4drop17hd9249d93abdf6e4eE>

Disassembly of section .text._ZN4core3ptr13drop_in_place17h776269b40ed867d8E.llvm.12212709632344611338:

00000000 <_ZN4core3ptr13drop_in_place17h776269b40ed867d8E.llvm.12212709632344611338>:
   0:	6841      	ldr	r1, [r0, #4]
   2:	2900      	cmp	r1, #0
   4:	bf1d      	ittte	ne
   6:	eb01 0141 	addne.w	r1, r1, r1, lsl #1
   a:	2200      	movne	r2, #0
   c:	ebb2 0f81 	cmpne.w	r2, r1, lsl #2
  10:	4770      	bxeq	lr
  12:	6800      	ldr	r0, [r0, #0]
  14:	0089      	lsls	r1, r1, #2
  16:	2204      	movs	r2, #4
  18:	f7ff bffe 	b.w	0 <__rust_dealloc>

Disassembly of section .text._ZN4core3ptr13drop_in_place17hb02256a7869a3bb9E.llvm.12212709632344611338:

00000000 <_ZN4core3ptr13drop_in_place17hb02256a7869a3bb9E.llvm.12212709632344611338>:
   0:	6800      	ldr	r0, [r0, #0]
   2:	2108      	movs	r1, #8
   4:	2204      	movs	r2, #4
   6:	f7ff bffe 	b.w	0 <__rust_dealloc>

Disassembly of section .text._ZN4core3ptr13drop_in_place17hb2d0f57ab4cbde51E:

00000000 <_ZN4core3ptr13drop_in_place17hb2d0f57ab4cbde51E>:
   0:	e92d 41f0 	stmdb	sp!, {r4, r5, r6, r7, r8, lr}
   4:	4604      	mov	r4, r0
   6:	6b00      	ldr	r0, [r0, #48]	; 0x30
   8:	b378      	cbz	r0, 6a <_ZN4core3ptr13drop_in_place17hb2d0f57ab4cbde51E+0x6a>
   a:	2801      	cmp	r0, #1
   c:	d120      	bne.n	50 <_ZN4core3ptr13drop_in_place17hb2d0f57ab4cbde51E+0x50>
   e:	e9d4 200d 	ldrd	r2, r0, [r4, #52]	; 0x34
  12:	f06f 010b 	mvn.w	r1, #11
  16:	eb00 0040 	add.w	r0, r0, r0, lsl #1
  1a:	f102 050c 	add.w	r5, r2, #12
  1e:	eb01 0780 	add.w	r7, r1, r0, lsl #2
  22:	f117 000c 	adds.w	r0, r7, #12
  26:	d020      	beq.n	6a <_ZN4core3ptr13drop_in_place17hb2d0f57ab4cbde51E+0x6a>
  28:	6890      	ldr	r0, [r2, #8]
  2a:	463e      	mov	r6, r7
  2c:	46a8      	mov	r8, r5
  2e:	0ec0      	lsrs	r0, r0, #27
  30:	d11d      	bne.n	6e <_ZN4core3ptr13drop_in_place17hb2d0f57ab4cbde51E+0x6e>
  32:	6850      	ldr	r0, [r2, #4]
  34:	f108 050c 	add.w	r5, r8, #12
  38:	f1a6 070c 	sub.w	r7, r6, #12
  3c:	f102 040c 	add.w	r4, r2, #12
  40:	f000 0007 	and.w	r0, r0, #7
  44:	6050      	str	r0, [r2, #4]
  46:	4610      	mov	r0, r2
  48:	f7ff fffe 	bl	0 <_ZN6bitvec3vec19BitVec$LT$O$C$T$GT$8with_vec17he5da1d483de8caa8E>
  4c:	4622      	mov	r2, r4
  4e:	e7e8      	b.n	22 <_ZN4core3ptr13drop_in_place17hb2d0f57ab4cbde51E+0x22>
  50:	e9d4 010d 	ldrd	r0, r1, [r4, #52]	; 0x34
  54:	6809      	ldr	r1, [r1, #0]
  56:	4788      	blx	r1
  58:	6ba0      	ldr	r0, [r4, #56]	; 0x38
  5a:	6841      	ldr	r1, [r0, #4]
  5c:	b129      	cbz	r1, 6a <_ZN4core3ptr13drop_in_place17hb2d0f57ab4cbde51E+0x6a>
  5e:	6882      	ldr	r2, [r0, #8]
  60:	6b60      	ldr	r0, [r4, #52]	; 0x34
  62:	e8bd 41f0 	ldmia.w	sp!, {r4, r5, r6, r7, r8, lr}
  66:	f7ff bffe 	b.w	0 <__rust_dealloc>
  6a:	e8bd 81f0 	ldmia.w	sp!, {r4, r5, r6, r7, r8, pc}
  6e:	480e      	ldr	r0, [pc, #56]	; (a8 <_ZN4core3ptr13drop_in_place17hb2d0f57ab4cbde51E+0xa8>)
  70:	4a0e      	ldr	r2, [pc, #56]	; (ac <_ZN4core3ptr13drop_in_place17hb2d0f57ab4cbde51E+0xac>)
  72:	4478      	add	r0, pc
  74:	447a      	add	r2, pc
  76:	2118      	movs	r1, #24
  78:	f7ff fffe 	bl	0 <_ZN4core6option13expect_failed17hccecd099e19e7451E>
  7c:	defe      	udf	#254	; 0xfe
  7e:	e005      	b.n	8c <_ZN4core3ptr13drop_in_place17hb2d0f57ab4cbde51E+0x8c>
  80:	4605      	mov	r5, r0
  82:	e9d4 010d 	ldrd	r0, r1, [r4, #52]	; 0x34
  86:	f7ff fffe 	bl	0 <_ZN4core3ptr13drop_in_place17hb2d0f57ab4cbde51E>
  8a:	e008      	b.n	9e <_ZN4core3ptr13drop_in_place17hb2d0f57ab4cbde51E+0x9e>
  8c:	4605      	mov	r5, r0
  8e:	b136      	cbz	r6, 9e <_ZN4core3ptr13drop_in_place17hb2d0f57ab4cbde51E+0x9e>
  90:	4640      	mov	r0, r8
  92:	f7ff fffe 	bl	0 <_ZN4core3ptr13drop_in_place17he17d0f0fd0b258bcE.llvm.6650279891508008866>
  96:	3e0c      	subs	r6, #12
  98:	f108 080c 	add.w	r8, r8, #12
  9c:	d1f8      	bne.n	90 <_ZN4core3ptr13drop_in_place17hb2d0f57ab4cbde51E+0x90>
  9e:	4628      	mov	r0, r5
  a0:	f7ff fffe 	bl	0 <_Unwind_Resume>
  a4:	defe      	udf	#254	; 0xfe
  a6:	bf00      	nop
  a8:	00000032 	andeq	r0, r0, r2, lsr r0
  ac:	00000034 	andeq	r0, r0, r4, lsr r0

Disassembly of section .text._ZN4core3ptr13drop_in_place17hb478b36566bc9dfbE:

00000000 <_ZN4core3ptr13drop_in_place17hb478b36566bc9dfbE>:
   0:	b5b0      	push	{r4, r5, r7, lr}
   2:	4604      	mov	r4, r0
   4:	6bc0      	ldr	r0, [r0, #60]	; 0x3c
   6:	b1a0      	cbz	r0, 32 <_ZN4core3ptr13drop_in_place17hb478b36566bc9dfbE+0x32>
   8:	2801      	cmp	r0, #1
   a:	d105      	bne.n	18 <_ZN4core3ptr13drop_in_place17hb478b36566bc9dfbE+0x18>
   c:	f104 0040 	add.w	r0, r4, #64	; 0x40
  10:	e8bd 40b0 	ldmia.w	sp!, {r4, r5, r7, lr}
  14:	f7ff bffe 	b.w	0 <_ZN4core3ptr13drop_in_place17hb478b36566bc9dfbE>
  18:	e9d4 0110 	ldrd	r0, r1, [r4, #64]	; 0x40
  1c:	6809      	ldr	r1, [r1, #0]
  1e:	4788      	blx	r1
  20:	6c60      	ldr	r0, [r4, #68]	; 0x44
  22:	6841      	ldr	r1, [r0, #4]
  24:	b129      	cbz	r1, 32 <_ZN4core3ptr13drop_in_place17hb478b36566bc9dfbE+0x32>
  26:	6882      	ldr	r2, [r0, #8]
  28:	6c20      	ldr	r0, [r4, #64]	; 0x40
  2a:	e8bd 40b0 	ldmia.w	sp!, {r4, r5, r7, lr}
  2e:	f7ff bffe 	b.w	0 <__rust_dealloc>
  32:	bdb0      	pop	{r4, r5, r7, pc}
  34:	4605      	mov	r5, r0
  36:	e9d4 0110 	ldrd	r0, r1, [r4, #64]	; 0x40
  3a:	f7ff fffe 	bl	0 <_ZN4core3ptr13drop_in_place17hb478b36566bc9dfbE>
  3e:	4628      	mov	r0, r5
  40:	f7ff fffe 	bl	0 <_Unwind_Resume>
  44:	defe      	udf	#254	; 0xfe

Disassembly of section .text._ZN4core3ptr13drop_in_place17hb525fc5617bcea3fE:

00000000 <_ZN4core3ptr13drop_in_place17hb525fc5617bcea3fE>:
   0:	f7ff bffe 	b.w	0 <_ZN4core3ptr13drop_in_place17hb525fc5617bcea3fE>

Disassembly of section .text._ZN4core3ptr13drop_in_place17hb78a45fff72859b4E:

00000000 <_ZN4core3ptr13drop_in_place17hb78a45fff72859b4E>:
   0:	e92d 41f0 	stmdb	sp!, {r4, r5, r6, r7, r8, lr}
   4:	e9d0 2000 	ldrd	r2, r0, [r0]
   8:	f06f 010b 	mvn.w	r1, #11
   c:	eb00 0040 	add.w	r0, r0, r0, lsl #1
  10:	f102 050c 	add.w	r5, r2, #12
  14:	eb01 0780 	add.w	r7, r1, r0, lsl #2
  18:	f117 000c 	adds.w	r0, r7, #12
  1c:	d013      	beq.n	46 <_ZN4core3ptr13drop_in_place17hb78a45fff72859b4E+0x46>
  1e:	6890      	ldr	r0, [r2, #8]
  20:	463e      	mov	r6, r7
  22:	46a8      	mov	r8, r5
  24:	0ec0      	lsrs	r0, r0, #27
  26:	d110      	bne.n	4a <_ZN4core3ptr13drop_in_place17hb78a45fff72859b4E+0x4a>
  28:	6850      	ldr	r0, [r2, #4]
  2a:	f108 050c 	add.w	r5, r8, #12
  2e:	f1a6 070c 	sub.w	r7, r6, #12
  32:	f102 040c 	add.w	r4, r2, #12
  36:	f000 0007 	and.w	r0, r0, #7
  3a:	6050      	str	r0, [r2, #4]
  3c:	4610      	mov	r0, r2
  3e:	f7ff fffe 	bl	0 <_ZN6bitvec3vec19BitVec$LT$O$C$T$GT$8with_vec17he5da1d483de8caa8E>
  42:	4622      	mov	r2, r4
  44:	e7e8      	b.n	18 <_ZN4core3ptr13drop_in_place17hb78a45fff72859b4E+0x18>
  46:	e8bd 81f0 	ldmia.w	sp!, {r4, r5, r6, r7, r8, pc}
  4a:	480b      	ldr	r0, [pc, #44]	; (78 <_ZN4core3ptr13drop_in_place17hb78a45fff72859b4E+0x78>)
  4c:	4a0b      	ldr	r2, [pc, #44]	; (7c <_ZN4core3ptr13drop_in_place17hb78a45fff72859b4E+0x7c>)
  4e:	4478      	add	r0, pc
  50:	447a      	add	r2, pc
  52:	2118      	movs	r1, #24
  54:	f7ff fffe 	bl	0 <_ZN4core6option13expect_failed17hccecd099e19e7451E>
  58:	defe      	udf	#254	; 0xfe
  5a:	e7ff      	b.n	5c <_ZN4core3ptr13drop_in_place17hb78a45fff72859b4E+0x5c>
  5c:	4605      	mov	r5, r0
  5e:	b136      	cbz	r6, 6e <_ZN4core3ptr13drop_in_place17hb78a45fff72859b4E+0x6e>
  60:	4640      	mov	r0, r8
  62:	f7ff fffe 	bl	0 <_ZN4core3ptr13drop_in_place17he17d0f0fd0b258bcE.llvm.6650279891508008866>
  66:	3e0c      	subs	r6, #12
  68:	f108 080c 	add.w	r8, r8, #12
  6c:	d1f8      	bne.n	60 <_ZN4core3ptr13drop_in_place17hb78a45fff72859b4E+0x60>
  6e:	4628      	mov	r0, r5
  70:	f7ff fffe 	bl	0 <_Unwind_Resume>
  74:	defe      	udf	#254	; 0xfe
  76:	bf00      	nop
  78:	00000026 	andeq	r0, r0, r6, lsr #32
  7c:	00000028 	andeq	r0, r0, r8, lsr #32

Disassembly of section .text._ZN5alloc11collections11linked_list19LinkedList$LT$T$GT$6append17hb2059f760709128eE:

00000000 <_ZN5alloc11collections11linked_list19LinkedList$LT$T$GT$6append17hb2059f760709128eE>:
   0:	b5b0      	push	{r4, r5, r7, lr}
   2:	b084      	sub	sp, #16
   4:	6842      	ldr	r2, [r0, #4]
   6:	b19a      	cbz	r2, 30 <_ZN5alloc11collections11linked_list19LinkedList$LT$T$GT$6append17hb2059f760709128eE+0x30>
   8:	680b      	ldr	r3, [r1, #0]
   a:	f04f 0c00 	mov.w	ip, #0
   e:	f8c1 c000 	str.w	ip, [r1]
  12:	b15b      	cbz	r3, 2c <_ZN5alloc11collections11linked_list19LinkedList$LT$T$GT$6append17hb2059f760709128eE+0x2c>
  14:	6013      	str	r3, [r2, #0]
  16:	605a      	str	r2, [r3, #4]
  18:	684a      	ldr	r2, [r1, #4]
  1a:	f8c1 c004 	str.w	ip, [r1, #4]
  1e:	6042      	str	r2, [r0, #4]
  20:	688a      	ldr	r2, [r1, #8]
  22:	f8c1 c008 	str.w	ip, [r1, #8]
  26:	6881      	ldr	r1, [r0, #8]
  28:	4411      	add	r1, r2
  2a:	6081      	str	r1, [r0, #8]
  2c:	b004      	add	sp, #16
  2e:	bdb0      	pop	{r4, r5, r7, pc}
  30:	e891 0034 	ldmia.w	r1, {r2, r4, r5}
  34:	e9d0 e300 	ldrd	lr, r3, [r0]
  38:	f8d0 c008 	ldr.w	ip, [r0, #8]
  3c:	c034      	stmia	r0!, {r2, r4, r5}
  3e:	e9c1 e300 	strd	lr, r3, [r1]
  42:	f8c1 c008 	str.w	ip, [r1, #8]
  46:	b004      	add	sp, #16
  48:	bdb0      	pop	{r4, r5, r7, pc}

Disassembly of section .text._ZN5alloc11collections11linked_list19LinkedList$LT$T$GT$9pop_front17hb3e1cd998510907cE:

00000000 <_ZN5alloc11collections11linked_list19LinkedList$LT$T$GT$9pop_front17hb3e1cd998510907cE>:
   0:	b580      	push	{r7, lr}
   2:	680a      	ldr	r2, [r1, #0]
   4:	b1d2      	cbz	r2, 3c <_ZN5alloc11collections11linked_list19LinkedList$LT$T$GT$9pop_front17hb3e1cd998510907cE+0x3c>
   6:	6813      	ldr	r3, [r2, #0]
   8:	600b      	str	r3, [r1, #0]
   a:	f103 0c04 	add.w	ip, r3, #4
   e:	2b00      	cmp	r3, #0
  10:	f04f 0300 	mov.w	r3, #0
  14:	bf08      	it	eq
  16:	f101 0c04 	addeq.w	ip, r1, #4
  1a:	f8cc 3000 	str.w	r3, [ip]
  1e:	f102 0c08 	add.w	ip, r2, #8
  22:	688b      	ldr	r3, [r1, #8]
  24:	3b01      	subs	r3, #1
  26:	608b      	str	r3, [r1, #8]
  28:	e89c 100a 	ldmia.w	ip, {r1, r3, ip}
  2c:	e880 100a 	stmia.w	r0, {r1, r3, ip}
  30:	4610      	mov	r0, r2
  32:	2114      	movs	r1, #20
  34:	2204      	movs	r2, #4
  36:	f7ff fffe 	bl	0 <__rust_dealloc>
  3a:	bd80      	pop	{r7, pc}
  3c:	2100      	movs	r1, #0
  3e:	e9c0 1100 	strd	r1, r1, [r0]
  42:	6081      	str	r1, [r0, #8]
  44:	bd80      	pop	{r7, pc}

Disassembly of section .text._ZN5alloc11collections11linked_list19LinkedList$LT$T$GT$9push_back17h33103b6f9b86cf6eE:

00000000 <_ZN5alloc11collections11linked_list19LinkedList$LT$T$GT$9push_back17h33103b6f9b86cf6eE>:
   0:	b5b0      	push	{r4, r5, r7, lr}
   2:	460d      	mov	r5, r1
   4:	4604      	mov	r4, r0
   6:	2014      	movs	r0, #20
   8:	2104      	movs	r1, #4
   a:	f7ff fffe 	bl	0 <__rust_alloc>
   e:	b190      	cbz	r0, 36 <_ZN5alloc11collections11linked_list19LinkedList$LT$T$GT$9push_back17h33103b6f9b86cf6eE+0x36>
  10:	6861      	ldr	r1, [r4, #4]
  12:	f04f 0c00 	mov.w	ip, #0
  16:	cd2c      	ldmia	r5, {r2, r3, r5}
  18:	2900      	cmp	r1, #0
  1a:	e9c0 c100 	strd	ip, r1, [r0]
  1e:	f100 0c08 	add.w	ip, r0, #8
  22:	e88c 002c 	stmia.w	ip, {r2, r3, r5}
  26:	bf08      	it	eq
  28:	4621      	moveq	r1, r4
  2a:	6008      	str	r0, [r1, #0]
  2c:	68a1      	ldr	r1, [r4, #8]
  2e:	3101      	adds	r1, #1
  30:	e9c4 0101 	strd	r0, r1, [r4, #4]
  34:	bdb0      	pop	{r4, r5, r7, pc}
  36:	2014      	movs	r0, #20
  38:	2104      	movs	r1, #4
  3a:	f7ff fffe 	bl	0 <_ZN5alloc5alloc18handle_alloc_error17ha86af5c1874b681eE>
  3e:	defe      	udf	#254	; 0xfe

Disassembly of section .text._ZN5alloc5alloc8box_free17hdb53242a643ed0abE:

00000000 <_ZN5alloc5alloc8box_free17hdb53242a643ed0abE>:
   0:	460a      	mov	r2, r1
   2:	6849      	ldr	r1, [r1, #4]
   4:	2900      	cmp	r1, #0
   6:	bf1c      	itt	ne
   8:	6892      	ldrne	r2, [r2, #8]
   a:	f7ff bffe 	bne.w	0 <__rust_dealloc>
   e:	4770      	bx	lr

Disassembly of section .text._ZN5alloc5alloc8box_free17he895e5752c641a77E.llvm.12212709632344611338:

00000000 <_ZN5alloc5alloc8box_free17he895e5752c641a77E.llvm.12212709632344611338>:
   0:	2114      	movs	r1, #20
   2:	2204      	movs	r2, #4
   4:	f7ff bffe 	b.w	0 <__rust_dealloc>

Disassembly of section .text._ZN5rayon4iter8for_each8for_each17h3d7a302652164e1fE:

00000000 <_ZN5rayon4iter8for_each8for_each17h3d7a302652164e1fE>:
   0:	b580      	push	{r7, lr}
   2:	b086      	sub	sp, #24
   4:	e9d0 e302 	ldrd	lr, r3, [r0, #8]
   8:	e9d0 c200 	ldrd	ip, r2, [r0]
   c:	429a      	cmp	r2, r3
   e:	6900      	ldr	r0, [r0, #16]
  10:	e9cd e304 	strd	lr, r3, [sp, #16]
  14:	e9cd 1002 	strd	r1, r0, [sp, #8]
  18:	a801      	add	r0, sp, #4
  1a:	4661      	mov	r1, ip
  1c:	bf98      	it	ls
  1e:	4613      	movls	r3, r2
  20:	9301      	str	r3, [sp, #4]
  22:	f7ff fffe 	bl	0 <_ZN202_$LT$$LT$rayon..iter..zip..Zip$LT$A$C$B$GT$$u20$as$u20$rayon..iter..IndexedParallelIterator$GT$..with_producer..CallbackA$LT$CB$C$B$GT$$u20$as$u20$rayon..iter..plumbing..ProducerCallback$LT$ITEM$GT$$GT$8callback17h223ee4ab9befde7fE>
  26:	b006      	add	sp, #24
  28:	bd80      	pop	{r7, pc}

Disassembly of section .text._ZN93_$LT$crossbeam_channel..flavors..array..Channel$LT$T$GT$$u20$as$u20$core..ops..drop..Drop$GT$4drop17hf89c243347e01ff1E:

00000000 <_ZN93_$LT$crossbeam_channel..flavors..array..Channel$LT$T$GT$$u20$as$u20$core..ops..drop..Drop$GT$4drop17hf89c243347e01ff1E>:
   0:	6801      	ldr	r1, [r0, #0]
   2:	6c01      	ldr	r1, [r0, #64]	; 0x40
   4:	f3bf 8f5b 	dmb	ish
   8:	6802      	ldr	r2, [r0, #0]
   a:	f3bf 8f5b 	dmb	ish
   e:	6c02      	ldr	r2, [r0, #64]	; 0x40
  10:	f3bf 8f5b 	dmb	ish
  14:	428a      	cmp	r2, r1
  16:	d1f4      	bne.n	2 <_ZN93_$LT$crossbeam_channel..flavors..array..Channel$LT$T$GT$$u20$as$u20$core..ops..drop..Drop$GT$4drop17hf89c243347e01ff1E+0x2>
  18:	f8d0 1084 	ldr.w	r1, [r0, #132]	; 0x84
  1c:	2200      	movs	r2, #0
  1e:	ebb2 1f01 	cmp.w	r2, r1, lsl #4
  22:	bf08      	it	eq
  24:	4770      	bxeq	lr
  26:	f8d0 0080 	ldr.w	r0, [r0, #128]	; 0x80
  2a:	0109      	lsls	r1, r1, #4
  2c:	2204      	movs	r2, #4
  2e:	f7ff bffe 	b.w	0 <__rust_dealloc>

Disassembly of section .text._ZN94_$LT$alloc..collections..linked_list..LinkedList$LT$T$GT$$u20$as$u20$core..ops..drop..Drop$GT$4drop17h9cdc234436f462beE:

00000000 <_ZN94_$LT$alloc..collections..linked_list..LinkedList$LT$T$GT$$u20$as$u20$core..ops..drop..Drop$GT$4drop17h9cdc234436f462beE>:
   0:	e92d 4ff0 	stmdb	sp!, {r4, r5, r6, r7, r8, r9, sl, fp, lr}
   4:	b081      	sub	sp, #4
   6:	f8d0 b000 	ldr.w	fp, [r0]
   a:	f1bb 0f00 	cmp.w	fp, #0
   e:	d04e      	beq.n	ae <_ZN94_$LT$alloc..collections..linked_list..LinkedList$LT$T$GT$$u20$as$u20$core..ops..drop..Drop$GT$4drop17h9cdc234436f462beE+0xae>
  10:	4606      	mov	r6, r0
  12:	e013      	b.n	3c <_ZN94_$LT$alloc..collections..linked_list..LinkedList$LT$T$GT$$u20$as$u20$core..ops..drop..Drop$GT$4drop17h9cdc234436f462beE+0x3c>
  14:	f8db 000c 	ldr.w	r0, [fp, #12]
  18:	2800      	cmp	r0, #0
  1a:	bf1e      	ittt	ne
  1c:	eb00 0040 	addne.w	r0, r0, r0, lsl #1
  20:	2100      	movne	r1, #0
  22:	ebb1 0f80 	cmpne.w	r1, r0, lsl #2
  26:	d13b      	bne.n	a0 <_ZN94_$LT$alloc..collections..linked_list..LinkedList$LT$T$GT$$u20$as$u20$core..ops..drop..Drop$GT$4drop17h9cdc234436f462beE+0xa0>
  28:	4658      	mov	r0, fp
  2a:	2114      	movs	r1, #20
  2c:	2204      	movs	r2, #4
  2e:	f7ff fffe 	bl	0 <__rust_dealloc>
  32:	f8d6 b000 	ldr.w	fp, [r6]
  36:	f1bb 0f00 	cmp.w	fp, #0
  3a:	d038      	beq.n	ae <_ZN94_$LT$alloc..collections..linked_list..LinkedList$LT$T$GT$$u20$as$u20$core..ops..drop..Drop$GT$4drop17h9cdc234436f462beE+0xae>
  3c:	f8db 0000 	ldr.w	r0, [fp]
  40:	46da      	mov	sl, fp
  42:	6030      	str	r0, [r6, #0]
  44:	1d01      	adds	r1, r0, #4
  46:	2800      	cmp	r0, #0
  48:	f04f 0000 	mov.w	r0, #0
  4c:	bf08      	it	eq
  4e:	1d31      	addeq	r1, r6, #4
  50:	6008      	str	r0, [r1, #0]
  52:	f06f 010b 	mvn.w	r1, #11
  56:	68b0      	ldr	r0, [r6, #8]
  58:	9600      	str	r6, [sp, #0]
  5a:	3801      	subs	r0, #1
  5c:	60b0      	str	r0, [r6, #8]
  5e:	f85a 2f08 	ldr.w	r2, [sl, #8]!
  62:	f8da 0008 	ldr.w	r0, [sl, #8]
  66:	f102 070c 	add.w	r7, r2, #12
  6a:	eb00 0040 	add.w	r0, r0, r0, lsl #1
  6e:	eb01 0580 	add.w	r5, r1, r0, lsl #2
  72:	f115 000c 	adds.w	r0, r5, #12
  76:	d0cd      	beq.n	14 <_ZN94_$LT$alloc..collections..linked_list..LinkedList$LT$T$GT$$u20$as$u20$core..ops..drop..Drop$GT$4drop17h9cdc234436f462beE+0x14>
  78:	6890      	ldr	r0, [r2, #8]
  7a:	46a9      	mov	r9, r5
  7c:	463c      	mov	r4, r7
  7e:	0ec0      	lsrs	r0, r0, #27
  80:	d118      	bne.n	b4 <_ZN94_$LT$alloc..collections..linked_list..LinkedList$LT$T$GT$$u20$as$u20$core..ops..drop..Drop$GT$4drop17h9cdc234436f462beE+0xb4>
  82:	6850      	ldr	r0, [r2, #4]
  84:	f104 070c 	add.w	r7, r4, #12
  88:	f1a9 050c 	sub.w	r5, r9, #12
  8c:	f102 080c 	add.w	r8, r2, #12
  90:	f000 0007 	and.w	r0, r0, #7
  94:	6050      	str	r0, [r2, #4]
  96:	4610      	mov	r0, r2
  98:	f7ff fffe 	bl	0 <_ZN6bitvec3vec19BitVec$LT$O$C$T$GT$8with_vec17he5da1d483de8caa8E>
  9c:	4642      	mov	r2, r8
  9e:	e7e8      	b.n	72 <_ZN94_$LT$alloc..collections..linked_list..LinkedList$LT$T$GT$$u20$as$u20$core..ops..drop..Drop$GT$4drop17h9cdc234436f462beE+0x72>
  a0:	0081      	lsls	r1, r0, #2
  a2:	f8da 0000 	ldr.w	r0, [sl]
  a6:	2204      	movs	r2, #4
  a8:	f7ff fffe 	bl	0 <__rust_dealloc>
  ac:	e7bc      	b.n	28 <_ZN94_$LT$alloc..collections..linked_list..LinkedList$LT$T$GT$$u20$as$u20$core..ops..drop..Drop$GT$4drop17h9cdc234436f462beE+0x28>
  ae:	b001      	add	sp, #4
  b0:	e8bd 8ff0 	ldmia.w	sp!, {r4, r5, r6, r7, r8, r9, sl, fp, pc}
  b4:	4811      	ldr	r0, [pc, #68]	; (fc <_ZN94_$LT$alloc..collections..linked_list..LinkedList$LT$T$GT$$u20$as$u20$core..ops..drop..Drop$GT$4drop17h9cdc234436f462beE+0xfc>)
  b6:	4a12      	ldr	r2, [pc, #72]	; (100 <_ZN94_$LT$alloc..collections..linked_list..LinkedList$LT$T$GT$$u20$as$u20$core..ops..drop..Drop$GT$4drop17h9cdc234436f462beE+0x100>)
  b8:	4478      	add	r0, pc
  ba:	447a      	add	r2, pc
  bc:	2118      	movs	r1, #24
  be:	f7ff fffe 	bl	0 <_ZN4core6option13expect_failed17hccecd099e19e7451E>
  c2:	defe      	udf	#254	; 0xfe
  c4:	e7ff      	b.n	c6 <_ZN94_$LT$alloc..collections..linked_list..LinkedList$LT$T$GT$$u20$as$u20$core..ops..drop..Drop$GT$4drop17h9cdc234436f462beE+0xc6>
  c6:	4606      	mov	r6, r0
  c8:	f1b9 0f00 	cmp.w	r9, #0
  cc:	d006      	beq.n	dc <_ZN94_$LT$alloc..collections..linked_list..LinkedList$LT$T$GT$$u20$as$u20$core..ops..drop..Drop$GT$4drop17h9cdc234436f462beE+0xdc>
  ce:	4620      	mov	r0, r4
  d0:	f7ff fffe 	bl	0 <_ZN4core3ptr13drop_in_place17he17d0f0fd0b258bcE.llvm.7409013006954644867>
  d4:	340c      	adds	r4, #12
  d6:	f1b9 090c 	subs.w	r9, r9, #12
